0000                             ; MONITOR 3 for the TEC-1G
0000                             ; ------------------------
0000                             ;  _______ ______ _____     __  _____   __  __  ____  _   _ ____
0000                             ; |__   __|  ____/ ____|   /_ |/ ____| |  \/  |/ __ \| \ | |___ \
0000                             ;    | |  | |__ | |   ______| | |  __  | \  / | |  | |  \| | __) |
0000                             ;    | |  |  __|| |  |______| | | |_ | | |\/| | |  | | . ` ||__ <
0000                             ;    | |  | |___| |____     | | |__| | | |  | | |__| | |\  |___) |
0000                             ;    |_|  |______\_____|    |_|\_____| |_|  |_|\____/|_| \_|____/
0000                             ;                 Coding by Brian Chiha, Oct-2023
0000                             ; 
0000                             ; With help from Craig Hart, Mark Jelic, Ian McLean and James Elphick
0000                             ; 
0000                             ; Constants
0000                             ; ---------
0000                             ; Ports
0000                KEYB:     EQU   00H   ;Keyboard
0000                DIGITS:   EQU   01H   ;Seven Segment Digits
0000                SEGS:     EQU   02H   ;Seven Segment Display
0000                SYS_INPUT:   EQU   03H   ;System Input
0000                LCD_INST:   EQU   04H   ;LCD Instruction
0000                LCD_DATA:   EQU   84H   ;LCD Data
0000                LED8X8H:   EQU   05H   ;LED 8x8 Horizontal
0000                LED8X8V:   EQU   06H   ;LED 8x8 Vertical
0000                GLCD_INST:   EQU   07H   ;Graphics LCD Instruction
0000                GLCD_DATA:   EQU   87H   ;Graphics LCD Data
0000                LED8X8G:   EQU   0F8H   ;LED 8x8 Green
0000                LED8X8B:   EQU   0F9H   ;LED 8x8 Blue
0000                SDIO:     EQU   0FDH   ;SD Card IO
0000                MATRIX:   EQU   0FEH   ;QWERTY Keyboard Matrix
0000                SYS_CTRL:   EQU   0FFH   ;System Control
0000                             ; 
0000                             ; SYSCTRL  port bits
0000                SHADOW:   EQU   01H   ;Shadow ROM
0000                PROTECT:   EQU   02H   ;Memory Protect
0000                EXPAND:   EQU   04H   ;Expand
0000                CART:     EQU   10H   ;Cartridge
0000                CAPSLOCK:   EQU   80H   ;Caps lock for Keyboard
0000                             ; 
0000                             ; Monitor Control Bit
0000                             ;MCB = Bits 0,1 = Data Nibbles Entered
0000                             ;      Bit 2 = Address=H/Data=L mode
0000                             ;      Bit 3 = LCD=H/Segment=L mode
0000                             ;      Bit 4 = Disassembler View=H/Data Entry View=L mode (for segment mode only)
0000                             ;      Bit 5 = Menu=L/Parameter=H Format for Menu handler (for LCD mode only)
0000                             ;      Bit 6 = RTC Add-On Present=H
0000                             ;      Bit 7 = SD Card Add-On Present=H
0000                MCB_AD_DATA:   EQU   04H   ;Address=H/Data=L mode
0000                MCB_LCD_SEG:   EQU   08H   ;LCD=H/Segment=L mode
0000                MCB_DIS_DE:   EQU   10H   ;Disassembler View=H/Data Entry View=L mode
0000                MCB_MEN_PAR:   EQU   20H   ;Menu=L/Parameter=H Format for Menu handler
0000                MCB_RTC:   EQU   40H   ;RTC Add-On Present=H
0000                MCB_SD_CARD:   EQU   80H   ;SD Card Add-On Present=H
0000                             ; 
0000                             ; Serial Constants Delay
0000                BAUD_1200:   EQU   80H   ;BAUD 1200 Delay
0000                BAUD_2400:   EQU   3FH   ;BAUD 2400 Delay
0000                BAUD_4800:   EQU   1BH   ;BAUD 4800 Delay
0000                BAUD_9600:   EQU   0BH   ;BAUD 9600 Delay
0000                BAUD_14400:   EQU   05H   ;BAUD 14400 Delay
0000                             ; 
0000                             ; ASCII Constants
0000                BKSP:     EQU   08H   ;Back space
0000                TAB:      EQU   09H   ;Horizontal Tab
0000                CR:       EQU   0DH   ;Carriage Return
0000                LF:       EQU   0AH   ;Line Feed
0000                SPACE:    EQU   " "   ;Space
0000                COLON:    EQU   ":"   ;Colon
0000                             ; 
0000                             ; Keyboard reference
0000                K_FN:     EQU   02H   ;Fn key on Keyboard Matrix
0000                K_PLUS:   EQU   10H   ;+ Key
0000                K_MINUS:   EQU   11H   ;- Key
0000                K_GO:     EQU   12H   ;GO Key
0000                K_ADDR:   EQU   13H   ;Address Key
0000                             ; 
0000                             ; Constants
0000                KEY_SPEED:   EQU   20H   ;Speed of auto repeat press (lower=faster)
0000                USER_ADDR:   EQU   4000H   ;User starting address
0000                BASE_ADDR:   EQU   0C000H   ;Start Address of monitor
0000                LCD_ROW1:   EQU   80H   ;LCD Row 1, Column 1
0000                LCD_ROW2:   EQU   0C0H   ;LCD Row 2, Column 1
0000                LCD_ROW3:   EQU   94H   ;LCD Row 3, Column 1
0000                LCD_ROW4:   EQU   0D4H   ;LCD Row 4, Column 1
0000                MENU_PTR:   EQU   7EH   ;LCD Right Arrow
0000                             ; 
0000                             ; RAM Locations
0000                MON_RAM:   EQU   0800H   ;Monitor RAM start
0000                STACK_SIZE:   EQU   80H   ;128 Bytes
0000                STACK_TOP:   EQU   MON_RAM+STACK_SIZE   
0000                TOP_RAM:   EQU   7FFFH   ;Highest RAM location (no expansion)
0000                             ; 
0000                ROMSIG:   EQU   MON_RAM   ;16 byte buffer holding the ROM signature; used for cold start detection
0000                             ; 
0000                             ; Monitor Configuration and display data
0000                DISP_BUFF:   EQU   STACK_TOP   ;Display Buffer for Segments
0000                DISP_DATA:   EQU   STACK_TOP+4   ;Display Buffer Data for Segments
0000                CEL:      EQU   STACK_TOP+6   ;Current Editing location
0000                MCB:      EQU   STACK_TOP+8   ;Monitor Control Byte
0000                KEY_BUFF:   EQU   STACK_TOP+9   ;Keypress Buffer
0000                KEY_PRESS:   EQU   STACK_TOP+10   ;Keypress Flag
0000                KEY_REPEAT:   EQU   STACK_TOP+11   ;Key Auto Repeat timer
0000                KEY_AUTO:   EQU   STACK_TOP+12   ;Key Auto Increment Flag
0000                KEY_BEEP:   EQU   STACK_TOP+13   ;Keypress Beep flag
0000                KEY_SECOND:   EQU   STACK_TOP+14   ;Matrix Keyboard second key Buffer
0000                GLCD_TERM:   EQU   STACK_TOP+15   ;GLCD Terminal Enable Flag
0000                DIS_ADDR:   EQU   STACK_TOP+16   ;Base Disassembler/Editing address
0000                USER_INT:   EQU   STACK_TOP+18   ;User defined INT routine
0000                USER_NMI:   EQU   STACK_TOP+20   ;User defined NMI routine
0000                MENU_POS:   EQU   STACK_TOP+22   ;Menu listing position
0000                MENU_SEL:   EQU   STACK_TOP+23   ;Menu pointer selection
0000                MENU_CNT:   EQU   STACK_TOP+24   ;Menu listing count
0000                MENU_CFG:   EQU   STACK_TOP+25   ;Menu configuration address
0000                MENU_IDX:   EQU   STACK_TOP+27   ;Menu depth index
0000                CAPS_LOCK:   EQU   STACK_TOP+28   ;Caps Lock Flag
0000                SYS_MODE:   EQU   STACK_TOP+29   ;SYS_CTRL current monitor state
0000                PROT_MODE:   EQU   STACK_TOP+30   ;Use Protect at GO
0000                XPND_MODE:   EQU   STACK_TOP+31   ;Expand Mode
0000                             ; 
0000                             ; Free Monitor RAM area for specific functions (08A0H).  Areas can overlap
0000                MON_FRAM:   EQU   STACK_TOP+32   ;Free Monitor RAM Starts Here
0000                             ; 
0000                             ; Parameter Base Address.  All parameters are two bytes long from this address
0000                PARAM_DATA:   EQU   MON_FRAM+32   ;Start of Parameter storage (08C0H)
0000                             ; 
0000                             ; ASCII string for data entry area  ;IE "4000: 23 34 45 56 78"
0000                DATA_BASE:   EQU   MON_FRAM   ;Base address for Data view (08A0H)
0000                DATA_ROW:   EQU   DATA_BASE+96   ;Start of ASCII data entry string (0900H)
0000                             ; 
0000                             ; Current Editing Location Quick Jump locations
0000                CEL_QJMP:   EQU   MON_FRAM+2   ;Location 1,2, and 3 (08A2H,08A4H,08A6H)
0000                             ; 
0000                             ; Menu depth pointers to remember nested menus
0000                MENU_CFG_D:   EQU   MON_FRAM+8   ;Menu Config. depth (08A8H,08AAH,08ACH,08AEH) 
0000                             ; 
0000                             ; RNG Seed
0000                RNG_SEED:   EQU   MON_FRAM+16   ;Random Number Seed (08B0H)
0000                BAUD:     EQU   MON_FRAM+17   ;Baud Rate (08B1H-08B2H)
0000                             ; 
0000                             ; RAM for Smart Copy
0000                COPY_START:   EQU   PARAM_DATA   ;Start (08C0H)
0000                COPY_END:   EQU   COPY_START+2   ;End
0000                COPY_DEST:   EQU   COPY_START+4   ;Destination
0000                COPY_PTR:   EQU   COPY_START+6   ;Pointer
0000                COPY_EBLK:   EQU   COPY_START+8   ;End Block
0000                COPY_CORR:   EQU   COPY_START+10   ;Correction
0000                REST_START:   EQU   COPY_START+12   ;Restore Start
0000                REST_END:   EQU   COPY_START+14   ;Restore End
0000                REST_DEST:   EQU   COPY_START+16   ;Restore Destination
0000                TEMP_START:   EQU   COPY_START+18   ;Temporary Start
0000                TEMP_END:   EQU   COPY_START+20   ;Temporary End
0000                TEMP_DEST:   EQU   COPY_START+22   ;Temporary Destination
0000                             ; 
0000                             ; RAM for To/From Addresses
0000                DATA_FROM:   EQU   PARAM_DATA   ;From (08C0H)
0000                DATA_TO:   EQU   DATA_FROM+2   ;To
0000                             ; 
0000                             ; Breakpoint register save area.
0000                BP_BASE_SP:   EQU   MON_FRAM+96   ;Start of Register save area (0900H)   
0000                BP_HL:    EQU   BP_BASE_SP+2   ;HL position in BP stack
0000                BP_REGS:   EQU   BP_BASE_SP+20   ;Top of Stack (Goes down towards MON_RAM)
0000                BP_PC:    EQU   BP_BASE_SP+20   ;Calling Program Counter
0000                BP_ORIG_SP:   EQU   BP_BASE_SP+22   ;Original hardware stack pointer
0000                BP_LCD:   EQU   BP_BASE_SP+24   ;LCD Screen Buffer (20x4 or 80 bytes)
0000                             ; 
0000                             ; -----------------------------------------------------------------------------
0000                             ; CODE start here, with code running at 0000H
0000                             ; -----------------------------------------------------------------------------
0000                             ; 
C000                          .ORG   BASE_ADDR   
C000                BOOT:        
C000   C3 00 C1               JP   preInit   
C003                             ; 
C008                          .ORG   BASE_ADDR+08H   
C008                RST08:       ;Key Read and Wait for key release.  (Halt simulation)
C008                             ;Output: A = Key pressed
C008   C3 56 C6               JP   scanKeysWait   ;Wait and Scan key routine
C00B                             ; 
C010                          .ORG   BASE_ADDR+10H   
C010                RST10:       ;API Call Entry
C010   C3 70 00               JP   APICall-BASE_ADDR   ;API Call routine
C013                             ; 
C018                          .ORG   BASE_ADDR+18H   
C018                RST18:       ;API Call 2 Entry
C018   C3 40 00               JP   APICall2-BASE_ADDR   ;API Call 2 routine
C01B                             ; 
C020                          .ORG   BASE_ADDR+20H   
C020                RST20:       ;Scan Segments and Keyboard.  Must be called constantly
C020                             ;Input: DE = Pointer to LCD Segment code (Must be 6 bytes)
C020                             ;Output: A = Key pressed if Zero flag is set
C020   CD 6B C5               CALL   scanSegments   ;Multiplex the seven segments
C023   CD D1 C5               CALL   scanKeys   ;Scan for key press
C026                             ; 
C028                          .ORG   BASE_ADDR+28H   
C028                RST28:       ;LCD Busy
C028   F5                     PUSH   af   ;save af
C029                BUSYLOOP:      
C029   DB 04                  IN   a,(LCD_INST)   ;Read status bit on LCD
C02B   07                     RLCA      ;put bit 7 (status) in carry
C02C   38 FB                  JR   c,busyLoop   ;loop if LCD is busy
C02E   F1                     POP   af   ;restore af
C02F   C9                     RET      
C030                             ; 
C030                          .ORG   BASE_ADDR+30H   
C030                RST30:       ;Breakpoint Entry
C030   E3                     EX   (sp),hl   ;get return address
C031   22 14 09               LD   (BP_PC),hl   ;save it
C034   E3                     EX   (sp),hl   ;fix stack
C035   C3 7A CC               JP   breakPoint   
C038                             ; 
C038                          .ORG   BASE_ADDR+38H   
C038                RST38:       
C038   E5                     PUSH   hl   ;save HL
C039   2A 92 08               LD   hl,(USER_INT)   ;get address at USER_INT
C03C   E3                     EX   (sp),hl   ;restore HL and put INT routine on stack
C03D   C9                     RET      
C03E                             ; 
C040                          .ORG   BASE_ADDR+40H   
C040                             ;API Call Routine
C040                             ; Input:   A = Function index
C040                             ;          BC, DE, HL = Parameters if needed
C040                             ; Corrupt: IX
C040                APICALL2:      
C040   FE 22                  CP   API_COUNT2/2   ;Adjust for real count
C042   38 03                  JR   c,APIGood2   
C044   C3 2E CC               JP   displayError   ;exit with Error Message
C047                APIGOOD2:      
C047   C5                     PUSH   bc   ;save BC
C048   E5                     PUSH   hl   ;save HL
C049   21 80 D2               LD   hl,APITable2   ;API Function Table
C04C   87                     ADD   a,a   ;double it
C04D   4F                     LD   c,a   ;store index in
C04E   06 00                  LD   b,0   ;bc
C050   09                     ADD   hl,bc   ;index table
C051   7E                     LD   a,(hl)   ;store jump
C052   23                     INC   hl   ;address
C053   66                     LD   h,(hl)   ;back into
C054   6F                     LD   l,a   ;HL
C055   E5                     PUSH   hl   ;IX = HL
C056   DD E1                  POP   ix   
C058   E1                     POP   hl   ;restore HL
C059   C1                     POP   bc   ;restore BC
C05A   DD E9                  JP   (ix)   ;Jump to API Routine
C05C                             ; 
C066                          .ORG   BASE_ADDR+66H   
C066                NMI:         
C066   E5                     PUSH   hl   ;save HL
C067   2A 94 08               LD   hl,(USER_NMI)   ;get address at USER_NMI
C06A   E3                     EX   (sp),hl   ;restore HL and put INT routine on stack
C06B   C9                     RET      
C06C                             ; 
C070                          .ORG   BASE_ADDR+70H   
C070                             ;API Call Routine
C070                             ; Input:   C = Function index
C070                             ;          A, B, DE, HL = Parameters if needed
C070                             ; Corrupt: IX
C070                APICALL:      
C070   F5                     PUSH   af   ;save AF
C071   79                     LD   a,c   ;Check index is within range
C072   FE 3F                  CP   API_COUNT/2   ;Adjust for real count
C074   38 04                  JR   c,APIGood   
C076   F1                     POP   af   ;restore AF
C077   C3 2E CC               JP   displayError   ;exit with Error Message
C07A                APIGOOD:      
C07A   C5                     PUSH   bc   ;save BC
C07B   E5                     PUSH   hl   ;save HL
C07C   21 00 D3               LD   hl,APITable   ;API Function Table
C07F   87                     ADD   a,a   ;double it
C080   4F                     LD   c,a   ;store index in
C081   06 00                  LD   b,0   ;bc
C083   09                     ADD   hl,bc   ;index table
C084   7E                     LD   a,(hl)   ;store jump
C085   23                     INC   hl   ;address
C086   66                     LD   h,(hl)   ;back into
C087   6F                     LD   l,a   ;HL
C088   E5                     PUSH   hl   ;IX = HL
C089   DD E1                  POP   ix   
C08B   E1                     POP   hl   ;restore HL
C08C   C1                     POP   bc   ;restore BC
C08D   F1                     POP   af   ;restore AF
C08E   DD E9                  JP   (ix)   ;Jump to API Routine
C090                             ; 
C090                             ; Restart Handler (temp)
C090                RESTARTHANDLE:      
C090   C9                     RET      
C091                             ; 
C091                             ;Interrupt Handler Stub (just return)
C091                INTHANDLER:      
C091   ED 4D                  RETI      ;Exit cleanly
C093                             ; 
C093                             ;NMI Handler Stub (just return)
C093                NMIHANDLER:      
C093   ED 45                  RETN      ;Exit cleanly
C095                             ; 
C095                             ; 
C095                             ; -----------------------------------------------------------------------------
C095                             ; CODE running in ROM proper, at C000H upwards
C095                             ; -----------------------------------------------------------------------------
C095                             ; 
C100                          .ORG   BASE_ADDR+100H   
C100                             ; 
C100                PREINIT:      
C100   31 80 08               LD   sp,STACK_TOP   ;Set the Hardware Stack to top of stack in RAM
C103   21 00 40               LD   hl,4000H   ;Long delay to ensure reset of latches are complete
C106   CD 03 C7               CALL   timeDelay   
C109   AF                     XOR   a   ;Blank the 8x8 display to prevent LED burnout
C10A   D3 05                  OUT   (LED8X8H),a   
C10C   D3 06                  OUT   (LED8X8V),a   
C10E   3E 05                  LD   a,05H   ;Set SD Card to Idle; turns off activity LED
C110   D3 FD                  OUT   (SDIO),a   
C112   DB 03                  IN   a,(SYS_INPUT)   ;Check for CART presence
C114   47                     LD   b,a   
C115   E6 10                  AND   CART   ;Check bit 4
C117   C2 00 80               JP   nz,08000H   ;Launch CARTridge code if CART present
C11A   78                     LD   a,b   ;Honor PROTECT bit
C11B   E6 02                  AND   PROTECT   
C11D   32 9E 08               LD   (PROT_MODE),a   
C120   3A 9F 08               LD   a,(XPND_MODE)   
C123   E6 04                  AND   EXPAND   
C125   4F                     LD   c,a   
C126   3A 9C 08               LD   a,(CAPS_LOCK)   
C129   E6 80                  AND   CAPSLOCK   
C12B   81                     ADD   a,c   
C12C   06 01                  LD   b,SHADOW   ;Force Shadow mode OFF
C12E   80                     ADD   a,b   
C12F   D3 FF                  OUT   (SYS_CTRL),a   
C131   32 9D 08               LD   (SYS_MODE),a   ;Update MONitors idea of the config
C134   3A 9D 08               LD   a,(SYS_MODE)   ;Is shadow disabled ? (should be yes it is)
C137   E6 01                  AND   SHADOW   
C139   28 0B                  JR   z,hardBoot   ;if enabled, skip memcopy
C13B   21 00 C0               LD   hl,0C000H   ;copy bottom 256 bytes of ROM to RAM at 0000
C13E   11 00 00               LD   de,0000H   ;so RST vectors etc. are in RAM now
C141   01 00 01               LD   bc,0100H   
C144   ED B0                  LDIR      
C146                             ; 
C146                             ;Place initialisation routines here.  MemCheck, RAM defaults
C146                HARDBOOT:      
C146   CD A3 C5               CALL   LCDinitialise   ;reset LCD Screen always on reset
C149   21 00 40               LD   hl,USER_ADDR   ;fixup edit location for startup
C14C   22 86 08               LD   (CEL),hl   
C14F   22 A0 08               LD   (DATA_BASE),hl   ;update base address
C152   DB 00                  IN   a,(KEYB)   ;Check for Fn key press when RESET key is released
C154   E6 20                  AND   20H   ;Check bit 5
C156   28 1D                  JR   z,hardInit   ;Fn Key pressed, do a hard initialise
C158   DB 03                  IN   a,(SYS_INPUT)   ;read simp buffer for keyboard input type
C15A   0F                     RRCA      ;check bit 0
C15B   30 0A                  JR   nc,skipMatrix   ;if set, matrix keyboard in use
C15D   CD 40 CC               CALL   matrixScan   
C160   20 05                  JR   nz,$+7   ;no key pressed, skip hard init       
C162   7B                     LD   a,e   ;grab first key pressed
C163   FE 02                  CP   K_FN   ;is it the FN key?
C165   28 0E                  JR   z,hardInit   ;Fn Key pressed, do a hard initialise
C167                SKIPMATRIX:      
C167                             ;Look for hard reset flag
C167   21 F0 FF               LD   hl,SOFTWARE   
C16A   11 00 08               LD   de,ROMSIG   
C16D   06 10                  LD   b,10H   
C16F   CD 97 C8               CALL   stringCompare   
C172   CA F5 C1               JP   z,preSoftBoot   ;Yes, just softboot
C175                HARDINIT:      
C175                             ;Honour Expand
C175   DB 03                  IN   a,(SYS_INPUT)   ;read simp buffer for real expand bit
C177   CD 1D D0               CALL   setExpand   ;honor EXPAND bit
C17A                             ;Set Capslock to OFF
C17A   AF                     XOR   a   ;A = 0
C17B   CD E4 CF               CALL   setCaps   ;set caps lock flag
C17E                             ;Copy ROMSTR into RAM - warm boot flag
C17E   21 F0 FF               LD   hl,SOFTWARE   
C181   11 00 08               LD   de,ROMSIG   
C184   01 10 00               LD   bc,10H   
C187   ED B0                  LDIR      
C189                             ;Default monitor RAM variables
C189   21 00 D4               LD   hl,defaults   ;Start from MCB
C18C   11 86 08               LD   de,CEL   ;Set to CEL and onwards in RAM
C18F   01 17 00               LD   bc,defaultsSize   ;Load defaultsSize bytes
C192   ED B0                  LDIR      
C194                             ;Check if RTC Add-On is installed
C194   CD 93 FA               CALL   checkDS1302Present   ;Carry set = No RTC
C197   38 12                  JR   c,skipRTC   ;skip RTC config as no RTC Add-on found
C199   21 88 08               LD   hl,MCB   ;set MCB
C19C   CB F6                  SET   6,(hl)   ;bit 6 RTC present
C19E   CD 25 FF               CALL   checkRTCchecksum   ;check if PRAM is not corrupt
C1A1   28 03                  JR   z,$+5   ;all good, skip resetting PRAM
C1A3   CD 45 CE               CALL   resetRTCPRAM   ;reset RTC PRAM
C1A6   CD 97 CE               CALL   RTCFillRAM   ;fill RTC PRAM to Mon3 RAM
C1A9   18 12                  JR   checkSDCard   
C1AB                SKIPRTC:      
C1AB                             ;Default CEL Jump Table
C1AB   21 00 40               LD   hl,USER_ADDR   ;default to initial CEL
C1AE   22 A2 08               LD   (CEL_QJMP),hl   
C1B1   22 A4 08               LD   (CEL_QJMP+2),hl   
C1B4   22 A6 08               LD   (CEL_QJMP+4),hl   
C1B7                             ;default baud rate delay
C1B7   21 1B 00               LD   hl,BAUD_4800   ;4800 baud delay
C1BA                             ;ld hl,BAUD_14400     ;14400 baud delay
C1BA   22 B1 08               LD   (BAUD),hl   ;save it
C1BD                CHECKSDCARD:      
C1BD                             ;Check if SD Card Add-On is installed
C1BD   CD 71 F7               CALL   checkSDCardPresent   ;Zero set = SD Card
C1C0   20 05                  JR   nz,LCDbanners   ;skip SD Card config as no SD Card Add-on found
C1C2   21 88 08               LD   hl,MCB   ;set MCB
C1C5   CB FE                  SET   7,(hl)   ;bit 7 SD Card present
C1C7                LCDBANNERS:      
C1C7                             ;Display Welcome Message
C1C7   21 61 D5               LD   hl,hardResetMessage   
C1CA   CD 83 C5               CALL   stringToLCD   ;print line to LCD
C1CD                             ;send a welcome message to the Serial Terminal if connected
C1CD   21 29 D5               LD   hl,serialStartup   
C1D0   CD 8C C5               CALL   stringToSerial   
C1D3                             ;send a welcome banner to the GLCD (disabled for now)
C1D3   CD 00 D8               CALL   initLCD   ;Initialise the GLCD (default graphics mode)
C1D6   21 9B E3               LD   hl,GLCD_BANNER   ;point to welcome banner
C1D9   11 00 0A               LD   de,GBUF   ;internal graphics buffer
C1DC   01 00 04               LD   bc,16*64   ;full screen
C1DF   ED B0                  LDIR      
C1E1   CD 90 DA               CALL   plotToLCD   ;Display it
C1E4                             ;play a tone...
C1E4   11 51 D5               LD   de,hardResetTune   ;Set DE to tune data
C1E7   CD 75 EF               CALL   playTune   
C1EA                             ;wait a bit
C1EA   21 EE FE               LD   hl,0FEEEH   ;delay
C1ED   CD 03 C7               CALL   timeDelay   
C1F0                             ;random number seed
C1F0   ED 5F                  LD   a,r   ;get R value
C1F2   32 B0 08               LD   (RNG_SEED),a   ;save it
C1F5                             ;TODO add more here...
C1F5                             ; 
C1F5                PRESOFTBOOT:      
C1F5                             ;get current GLCD Term status
C1F5   CD CE CF               CALL   getGLCDTerm   ;get flag
C1F8   CD F8 CF               CALL   setGLCDTerm   ;set GLCD status
C1FB                             ;set up initial menu if RESET is pressed
C1FB   21 B2 D5               LD   hl,mainMenuCFG   ;set up 1G Menu
C1FE   CD F7 CE               CALL   menuReset   ;clear menu flags
C201   3E FF                  LD   a,0FFH   ;reset menu index
C203   32 9B 08               LD   (MENU_IDX),a   ;save it
C206   CD DD CE               CALL   menuInit   
C209                             ; 
C209                             ;Soft Reset call and fallthrough for Hard Reset and GO return address
C209                SOFTBOOT:      
C209   31 80 08               LD   sp,STACK_TOP   ;Set the Hardware Stack to top of stack in RAM
C20C   3A 9D 08               LD   a,(SYS_MODE)   ;reset hardware to MONitor mode
C20F   D3 FF                  OUT   (SYS_CTRL),a   
C211                             ;reset MCB
C211   3A 88 08               LD   a,(MCB)   ;Get MCB
C214                RESETMCB:      
C214   E6 D8                  AND   0D8H   ;Mask out params, nibble and mode bits
C216                UPDATEMCB:      
C216   32 88 08               LD   (MCB),a   ;Save MCB back
C219                             ; 
C219                             ;fill display buffer with current editing location
C219                SETDISPBUFFER:      
C219   CD 0C C5               CALL   beep   ;beep the speaker bit
C21C   ED 5B 86 08            LD   de,(CEL)   ;load DE with current editing location
C220   CD 25 C5               CALL   CELToSeg   ;convert CEL and its value to display buffer
C223   CD 46 C5               CALL   setDots   ;set decimal point on segments
C226                             ;update LCD screen
C226                SETLCD:      
C226   CD 14 C4               CALL   updateLCD   ;Update LCD screen (and also DISP_BUFF if LCD)
C229                             ; 
C229                             ;main system loop
C229                MAINLOOP:      
C229   CD 68 C5               CALL   scanDisplayBuff   ;Multiplex the seven segments
C22C   CD D1 C5               CALL   scanKeys   ;Scan for key press
C22F   21 8B 08               LD   hl,KEY_REPEAT   ;get the key repeat timer
C232   28 04                  JR   z,keyDelay   ;key has been pressed
C234   36 00                  LD   (hl),00H   ;reset delay counter
C236   18 F1                  JR   mainLoop   ;loop back to the main loop
C238                KEYDELAY:      
C238   38 05                  JR   c,keyFirst   ;new key press first detection
C23A   35                     DEC   (hl)   ;key held, decrease timer
C23B   20 EC                  JR   nz,mainLoop   ;loop back to the main loop if timer is not zero
C23D   36 20                  LD   (hl),KEY_SPEED   ;short timer set for subsequent presses
C23F                KEYFIRST:      
C23F   35                     DEC   (hl)   ;set timer off
C240                             ;key has been detected handle it
C240   21 88 08               LD   hl,MCB   ;get the MCB
C243   CB 5E                  BIT   3,(hl)   ;is bit 3 set? LCD/Segment
C245   C2 47 C3               JP   nz,keyProcessLCD   ;yes, process key for LCD
C248                             ; 
C248                             ;process key press for segment data entry (A = key, HL = MCB)
C248                             ;set C=key pressed, B=MCB, HL=CEL
C248                KEYPROCESSSEGS:      
C248   4F                     LD   c,a   ;store key pressed
C249   CB A9                  RES   5,c   ;reset Fn key bit if set
C24B   7E                     LD   a,(HL)   ;get MCB
C24C   47                     LD   b,a   ;save in B
C24D   79                     LD   a,c   ;restore key pressed
C24E   2A 86 08               LD   hl,(CEL)   ;load Current Editing location in HL
C251                KEYPLUS:      
C251   FE 10                  CP   K_PLUS   ;Plus key press
C253   20 0D                  JR   nz,keyMinus   ;no, Check Minus key
C255   CD 04 C4               CALL   checkFnKey   ;check for Function key
C258   CA EE C2               JP   z,fnPlus   ;handle Fn+Plus key
C25B   23                     INC   hl   ;move to next CEL
C25C                UPDATECEL:      
C25C   22 86 08               LD   (CEL),hl   ;save CEL
C25F   78                     LD   a,b   ;get MCB
C260   18 B2                  JR   resetMCB   ;reset MCB and jump to Main loop
C262                KEYMINUS:      
C262   FE 11                  CP   K_MINUS   ;Minus key press
C264   20 09                  JR   nz,keyAddress   ;no, Check Address key
C266   CD 04 C4               CALL   checkFnKey   ;check for Function key
C269   CA 15 C3               JP   z,fnMinus   ;handle Fn+Minus key
C26C   2B                     DEC   hl   ;move to previous address
C26D   18 ED                  JR   updateCEL   ;update CEL and return
C26F                KEYADDRESS:      
C26F   FE 13                  CP   K_ADDR   ;Address key press
C271   20 0D                  JR   nz,keyGo   ;no, Check Go key
C273   CD 04 C4               CALL   checkFnKey   ;check for Function key
C276   CA 3B C3               JP   z,fnAd   ;handle Fn+AD key
C279   78                     LD   a,b   ;get MCB
C27A   EE 04                  XOR   MCB_AD_DATA   ;flip Address/Data bit
C27C   E6 FC                  AND   0FCH   ;clear nibble counter
C27E   18 96                  JR   updateMCB   ;update MCB and jump to Main loop
C280                KEYGO:       
C280   FE 12                  CP   K_GO   ;Go key press
C282   20 1F                  JR   nz,keyHex   ;no, Must be Hex key
C284   06 01                  LD   b,01H   ;clear LCD instruction
C286   CD 9C C5               CALL   commandToLCD   ;update LCD
C289   C3 AC C3               JP   lcdRunning   ;display Code running at on LCD
C28C                RUNROUTINE:      
C28C   CD 0C C5               CALL   beep   ;indicate key press
C28F   3A 9D 08               LD   a,(SYS_MODE)   ;reset hardware to MONitor mode
C292   47                     LD   b,a   
C293   3A 9E 08               LD   a,(PROT_MODE)   ;enable PROTECT if configured
C296   B0                     OR   b   
C297   D3 FF                  OUT   (SYS_CTRL),a   
C299   3E FF                  LD   a,0FFH   
C29B   32 89 08               LD   (KEY_BUFF),a   ;remove GO from key Buffer to avoid GO held
C29E   11 09 C2               LD   de,softBoot   ;get return address
C2A1   D5                     PUSH   de   ;put return address on stack
C2A2   E9                     JP   (hl)   ;jump to CEL and execute it
C2A3                KEYHEX:      
C2A3   78                     LD   a,b   ;get MCB
C2A4   CB 57                  BIT   2,a   ;check mode Address or Data
C2A6   20 25                  JR   nz,updateAddress   ;update address
C2A8   CD 04 C4               CALL   checkFnKey   ;check for Function key
C2AB   28 2F                  JR   z,keyFn   ;jump to Function key routine
C2AD                             ;update data and set nibble decimal point and auto address increment
C2AD   78                     LD   a,b   ;get MCB
C2AE   E6 03                  AND   03H   ;mask out to nibble counter
C2B0   FE 02                  CP   02H   ;is this the second nibble?
C2B2   78                     LD   a,b   ;get original MCB
C2B3   20 0E                  JR   nz,enterNibble   ;no, just enter the nibble into (CEL)
C2B5   F5                     PUSH   af   ;save MCB
C2B6   3A 8C 08               LD   a,(KEY_AUTO)   ;check for auto address increment flag
C2B9   B7                     OR   a   ;is it zero?
C2BA   20 04                  JR   nz,skipAutoInc   ;no, don't update CEL
C2BC   23                     INC   hl   ;move to next CEL to enter nibble
C2BD   22 86 08               LD   (CEL),hl   ;store it
C2C0                SKIPAUTOINC:      
C2C0   F1                     POP   af   ;restore MCB
C2C1   E6 FC                  AND   0FCH   ;clear nibble counter
C2C3                ENTERNIBBLE:      
C2C3   3C                     INC   a   ;add one to nibble counter
C2C4   32 88 08               LD   (MCB),a   ;store it
C2C7   79                     LD   a,c   ;get key
C2C8   ED 6F                  RLD      ;shift key into CEL
C2CA   C3 19 C2               JP   setDispBuffer   ;jump back to main loop
C2CD                             ;update address
C2CD                UPDATEADDRESS:      
C2CD   21 86 08               LD   hl,CEL   ;set hl to address of CEL
C2D0   79                     LD   a,c   ;load a with hex key pressed
C2D1   ED 6F                  RLD      ;shift key into lower byte of CEL
C2D3   23                     INC   hl   ;move to upper byte
C2D4   ED 6F                  RLD      ;shift carry nibble into upper byte
C2D6   CD 01 C5               CALL   setDataBase   ;set the DATA_BASE variable
C2D9   C3 19 C2               JP   setDispBuffer   ;jump back to main loop
C2DC                             ;function key handler
C2DC                KEYFN:       
C2DC   11 2F D4               LD   de,functionJumpTable   ;reference jump table
C2DF   79                     LD   a,c   ;load a with hex key pressed
C2E0   87                     ADD   a,a   ;double it
C2E1   6F                     LD   l,a   ;store index in
C2E2   26 00                  LD   h,0   ;hl
C2E4   19                     ADD   hl,de   ;index DE with HL
C2E5   7E                     LD   a,(hl)   ;store jump
C2E6   23                     INC   hl   ;address
C2E7   66                     LD   h,(hl)   ;back into
C2E8   6F                     LD   l,a   ;HL
C2E9   11 09 C2               LD   de,softBoot   ;get return address
C2EC   D5                     PUSH   de   ;put return address on stack
C2ED   E9                     JP   (hl)   ;jump to HL and execute it
C2EE                             ;function + Plus handler
C2EE                FNPLUS:      
C2EE                             ;shift from CEL to High RAM 1 byte up, make CEL=0
C2EE   ED 5B 86 08            LD   de,(CEL)   ;get current CEL
C2F2   21 FF 7F               LD   hl,TOP_RAM   ;get high ram
C2F5   B7                     OR   a   ;clear carry
C2F6   ED 52                  SBC   hl,de   ;get difference
C2F8   FA 19 C2               JP   m,setDispBuffer   ;high ram < cel, exit
C2FB   EB                     EX   de,hl   ;set hl to CEL
C2FC   22 C0 08               LD   (COPY_START),hl   ;move from CEL
C2FF   23                     INC   hl   
C300   22 C4 08               LD   (COPY_DEST),hl   ;save from CEL+1
C303   21 FF 7F               LD   hl,TOP_RAM   ;HL = 7FFEH
C306   2B                     DEC   hl   
C307   22 C2 08               LD   (COPY_END),hl   ;save from TOP_RAM-1
C30A   CD 2B CA               CALL   smartCopyDirect   ;do the smart update
C30D   2A 86 08               LD   hl,(CEL)   ;get CEL
C310   36 00                  LD   (hl),00H   ;put zero in CEL
C312   C3 19 C2               JP   setDispBuffer   ;jump back to main loop
C315                FNMINUS:      
C315                             ;shift from CEL to High RAM 1 byte down, make High RAM=0
C315   ED 5B 86 08            LD   de,(CEL)   ;get current CEL
C319   21 FF 7F               LD   hl,TOP_RAM   ;get high ram
C31C   B7                     OR   a   ;clear carry
C31D   ED 52                  SBC   hl,de   ;get difference
C31F   FA 19 C2               JP   m,setDispBuffer   ;high ram < cel, exit
C322   EB                     EX   de,hl   ;set hl to CEL
C323   22 C4 08               LD   (COPY_DEST),hl   ;move to CEL
C326   23                     INC   hl   
C327   22 C0 08               LD   (COPY_START),hl   ;save from CEL+1
C32A   21 FF 7F               LD   hl,TOP_RAM   ;HL = 7FFFH
C32D   22 C2 08               LD   (COPY_END),hl   ;save from TOP_RAM
C330   CD 2B CA               CALL   smartCopyDirect   ;do the smart update
C333   21 FF 7F               LD   hl,TOP_RAM   ;get High RAM
C336   36 00                  LD   (hl),00H   ;put zero in High RAM
C338   C3 19 C2               JP   setDispBuffer   ;jump back to main loop
C33B                FNAD:        
C33B                             ;display main menu
C33B   21 B2 D5               LD   hl,mainMenuCFG   ;set up 1G Menu
C33E   CD DD CE               CALL   menuInit   
C341   CD 65 C6               CALL   switchMode   
C344   C3 19 C2               JP   setDispBuffer   
C347                             ; 
C347                             ;process key press for segment data entry (A = key, HL = MCB)
C347                KEYPROCESSLCD:      
C347   FE 10                  CP   K_PLUS   ;is it the plus key
C349   20 26                  JR   nz,keyMinusLCD   ;no, try -
C34B                KEYPLUSLCD:      
C34B   3A 98 08               LD   a,(MENU_CNT)   ;get menu count
C34E   3D                     DEC   a   ;adjust for 0
C34F   47                     LD   b,a   ;save it in B
C350   3A 97 08               LD   a,(MENU_SEL)   ;get current menu selection
C353   B8                     CP   b   ;is count = selection?
C354   CA 29 C2               JP   z,mainLoop   ;yes, ignore and return to menu
C357   3C                     INC   a   ;move to next item
C358   32 97 08               LD   (MENU_SEL),a   ;save it
C35B   4F                     LD   c,a   ;save for later
C35C   3A 96 08               LD   a,(MENU_POS)   ;get menu display position
C35F   C6 03                  ADD   a,3   ;add 3
C361   47                     LD   b,a   ;B = menu pos
C362   79                     LD   a,c   ;A = menu sel
C363   B8                     CP   b   ;if b+3>a then no change
C364   DA 19 C2               JP   c,setDispBuffer   ;yes return to menu
C367   3A 96 08               LD   a,(MENU_POS)   ;get menu display position
C36A   3C                     INC   a   ;update it
C36B   32 96 08               LD   (MENU_POS),a   ;save it
C36E   C3 19 C2               JP   setDispBuffer   ;exit and update LCD
C371                KEYMINUSLCD:      
C371   FE 11                  CP   K_MINUS   ;is it the minus key
C373   20 1A                  JR   nz,keyGoLCD   ;no, try GO
C375   3A 97 08               LD   a,(MENU_SEL)   ;get current menu selection
C378   3D                     DEC   a   ;decrease it by 1
C379   FA 29 C2               JP   m,mainLoop   ;if negative exit
C37C   32 97 08               LD   (MENU_SEL),a   ;save it
C37F   4F                     LD   c,a   ;save for later
C380   3A 96 08               LD   a,(MENU_POS)   ;get menu display position
C383   47                     LD   b,a   ;B = menu pos
C384   79                     LD   a,c   ;A = menu sel
C385   B8                     CP   b   ;if b<a then no change
C386   D2 19 C2               JP   nc,setDispBuffer   ;return
C389   32 96 08               LD   (MENU_POS),a   ;save it
C38C   C3 19 C2               JP   setDispBuffer   ;exit
C38F                KEYGOLCD:      
C38F   FE 12                  CP   K_GO   ;is it the GO key
C391   20 2C                  JR   nz,keyAddressLCD   ;no, try AD
C393   CB 6E                  BIT   5,(hl)   ;check MCB for Parameter Entry
C395   28 03                  JR   z,menuGo   ;if Zero, it must be a menu
C397                             ;Parameter GO needs to pop menu and just return
C397   C3 06 CF               JP   menuPop   ;restore to the previous menu and return back
C39A                MENUGO:      
C39A   3A 97 08               LD   a,(MENU_SEL)   ;get current menu selection
C39D   CD 9A CF               CALL   menuIndex   ;set HL to menu config at index A
C3A0   06 01                  LD   b,01H   ;clear LCD instruction
C3A2   CD 9C C5               CALL   commandToLCD   ;update LCD
C3A5   CD 83 C5               CALL   stringToLCD   ;Display Message on LCD
C3A8                             ;HL is now at address to jump to
C3A8   7E                     LD   a,(hl)   ;fix HL
C3A9   23                     INC   hl   ;for executing
C3AA   66                     LD   h,(hl)   ;and displaying
C3AB   6F                     LD   l,a   
C3AC                LCDRUNNING:      
C3AC   E5                     PUSH   hl   ;save HL
C3AD   06 D6                  LD   b,0D6H   ;set cursor to Row 4,Col 3
C3AF   CD 9C C5               CALL   commandToLCD   ;update LCD
C3B2   21 1C D5               LD   hl,menuGoText   ;display "  Running at: 1234  "
C3B5   CD 83 C5               CALL   stringToLCD   ;write text
C3B8   E1                     POP   hl   ;restore HL
C3B9   CD B6 C5               CALL   HLtoLCD   ;display HL as a string on LCD
C3BC   C3 8C C2               JP   runRoutine   ;execute it safely
C3BF                KEYADDRESSLCD:      
C3BF   FE 13                  CP   K_ADDR   ;is key AD?
C3C1   C2 CA C3               JP   nz,keyHexLCD   ;no, try Hex key
C3C4   CD 06 CF               CALL   menuPop   ;restore to previous menu
C3C7   C3 09 C2               JP   softBoot   ;and return
C3CA                KEYHEXLCD:      
C3CA                             ;only applicable in Parameter mode
C3CA   CB 6E                  BIT   5,(hl)   ;check MCB
C3CC   CA 29 C2               JP   z,mainLoop   ;in Menu Mode, ignore key
C3CF   4F                     LD   c,a   ;save key press
C3D0   3A 97 08               LD   a,(MENU_SEL)   ;get current menu selection
C3D3   CD 9A CF               CALL   menuIndex   ;set HL to menu config at index A
C3D6   7E                     LD   a,(hl)   ;skip menu label
C3D7   23                     INC   hl   
C3D8   B7                     OR   a   ;is it zero
C3D9   20 FB                  JR   nz,$-3   ;repeat until zero found
C3DB   7E                     LD   a,(hl)   ;fix HL
C3DC   23                     INC   hl   ;for updating
C3DD   66                     LD   h,(hl)   
C3DE   6F                     LD   l,a   
C3DF   79                     LD   a,c   ;restore key pressed
C3E0   ED 6F                  RLD      ;shift key into lower byte of CEL
C3E2   23                     INC   hl   ;move to upper byte
C3E3   ED 6F                  RLD      ;shift carry nibble into upper byte
C3E5                             ;check if HL=COPY_START/END/DEST for RTC update
C3E5   3A 88 08               LD   a,(MCB)   ;check if RTC installed
C3E8   E6 40                  AND   MCB_RTC   ;is bit 6 set
C3EA   CA 19 C2               JP   z,setDispBuffer   ;no, just exit back
C3ED   2B                     DEC   hl   ;move HL back to original address
C3EE   3E 08                  LD   a,08H   
C3F0   94                     SUB   h   ;is address 08?
C3F1   C2 19 C2               JP   nz,setDispBuffer   
C3F4   7D                     LD   a,l   
C3F5   D6 C0                  SUB   0C0H   ;is address C0-C4?
C3F7   FE 05                  CP   05H   ;is it > 4
C3F9   D2 19 C2               JP   nc,setDispBuffer   
C3FC                             ;all good to update RTC
C3FC   C6 06                  ADD   a,06H   ;index A for RTC slot
C3FE   CD 86 CE               CALL   RTCSetPRAM   ;save it 
C401   C3 19 C2               JP   setDispBuffer   ;exit
C404                             ; 
C404                             ; Check for Fn key pressed.
C404                             ; Output: Zero is set if Fn key is pressed
C404                CHECKFNKEY:      
C404   DB 03                  IN   a,(SYS_INPUT)   ;read simp buffer
C406   0F                     RRCA      ;check bit 0
C407   38 05                  JR   c,checkSecond   ;if set, matrix keyboard in use
C409   DB 00                  IN   a,(KEYB)   ;check keyboard latch
C40B   E6 20                  AND   20H   ;is bit 5 set
C40D   C9                     RET      
C40E                CHECKSECOND:      
C40E   3A 8E 08               LD   a,(KEY_SECOND)   ;get second key if any
C411   FE 02                  CP   K_FN   ;is it the FN key?
C413   C9                     RET      
C414                             ; 
C414                             ; Update LCD screen.  Either show a menu if LCD mode or byte information if
C414                             ; segment mode
C414                UPDATELCD:      
C414   06 0C                  LD   b,0CH   ;display on, cursor off
C416   CD 9C C5               CALL   commandToLCD   ;update LCD
C419   06 01                  LD   b,01H   ;clear LCD instruction
C41B   CD 9C C5               CALL   commandToLCD   ;update LCD
C41E   21 88 08               LD   hl,MCB   ;get the MCB
C421   CB 5E                  BIT   3,(hl)   ;is bit 3 set? LCD/Segment
C423   C2 20 CF               JP   nz,menuDraw   ;LCD menu mode is set, draw the menu and return
C426   CB 66                  BIT   4,(hl)   ;is bit 4 set? Disassembly / Data view
C428   C2 C5 C4               JP   nz,LCDDisView   ;display Disassembly View
C42B                LCDDATAVIEW:      
C42B   CD 01 C5               CALL   setDataBase   ;set the DATA_BASE variable
C42E   11 FC FF               LD   de,0FFFCH   ;set DE to -4
C431   19                     ADD   hl,de   ;set HL = HL - 4
C432   01 04 03               LD   bc,0304H   ;three lines, four bytes
C435   11 1B D4               LD   de,LCDBaseRows   ;set de to first row
C438                LCDDATAROW:      
C438   C5                     PUSH   bc   ;save BC
C439   1A                     LD   a,(de)   ;get row value
C43A   13                     INC   de   ;move to next row
C43B   47                     LD   b,a   ;set B as LCD row
C43C   CD 9C C5               CALL   commandToLCD   ;update LCD
C43F   41                     LD   b,c   ;load byte count in B
C440   D5                     PUSH   de   ;save row table
C441   11 00 09               LD   de,DATA_ROW   ;point to Data Entry RAM
C444   CD F6 C8               CALL   genDataDump   ;fill DE with data dump line
C447   E5                     PUSH   hl   ;save HL
C448   21 00 09               LD   hl,DATA_ROW   ;point to Data Entry RAM start
C44B   CD 83 C5               CALL   stringToLCD   ;print line to LCD
C44E   E1                     POP   hl   ;get current address
C44F   D1                     POP   de   ;restore row table
C450   C1                     POP   bc   ;restore BC
C451   10 E5                  DJNZ   LCDDataRow   ;do for all three rows
C453                             ; 
C453                             ;draw disassembly line
C453   1A                     LD   a,(de)   ;get row value
C454   47                     LD   b,a   ;set B as LCD row
C455   CD 9C C5               CALL   commandToLCD   ;update LCD
C458   CD 52 CB               CALL   calcDisAddress   ;get actual dis address from CEL
C45B   2A 90 08               LD   hl,(DIS_ADDR)   ;set DE to DIS_ADDR
C45E   22 29 09               LD   (DISFROM),hl   ;user DIS_ADDR as start address for disassembler
C461   CD DE C4               CALL   drawDisRow   ;Draw the Disassembly line
C464                             ; 
C464                             ;draw state information
C464   06 91                  LD   b,091H   ;move cursor
C466   CD 9C C5               CALL   commandToLCD   ;to top right
C469   3E 7C                  LD   a,"|"   
C46B   CD 98 C5               CALL   charToLCD   
C46E   3A 88 08               LD   a,(MCB)   
C471   4F                     LD   c,a   
C472   3E 64                  LD   a,"d"   
C474   06 05                  LD   b,05h   ;special flip bit xor "a" <-> "d"
C476   CB 51                  BIT   2,c   ;is in Data or Address mode?
C478   28 01                  JR   z,$+3   
C47A   A8                     XOR   b   
C47B   CD 98 C5               CALL   charToLCD   ;Display the byte
C47E   A8                     XOR   b   ;flip it back to a or d
C47F   CD 98 C5               CALL   charToLCD   ;Display the byte
C482                             ; 
C482   06 D1                  LD   b,0D1H   ;move cursor
C484   CD 9C C5               CALL   commandToLCD   ;to far right
C487   3E 7C                  LD   a,"|"   
C489   CD 98 C5               CALL   charToLCD   
C48C   3E 20                  LD   a," "   
C48E   CD 98 C5               CALL   charToLCD   
C491   2A 86 08               LD   hl,(CEL)   ;get current byte
C494   7E                     LD   a,(HL)   ;get byte
C495   CD 98 C5               CALL   charToLCD   ;Display the byte
C498                             ; 
C498   06 A5                  LD   b,0A5H   ;move cursor
C49A   CD 9C C5               CALL   commandToLCD   ;to far right
C49D   3E 7C                  LD   a,"|"   
C49F   CD 98 C5               CALL   charToLCD   
C4A2   3E 6E                  LD   a,"n"   
C4A4   CD 98 C5               CALL   charToLCD   ;Display the byte
C4A7   79                     LD   a,c   ;mask out lower MCB
C4A8   E6 03                  AND   03H   
C4AA   C6 30                  ADD   a,"0"   ;convert binary to ascii value
C4AC   CD 98 C5               CALL   charToLCD   ;display the byte count
C4AF                             ; 
C4AF                             ;set cursor
C4AF   ED 4B A0 08            LD   bc,(DATA_BASE)   ;load BC with DATA_BASE
C4B3   B7                     OR   a   ;reset carry
C4B4   ED 42                  SBC   hl,bc   ;get difference between HL and BC
C4B6   7D                     LD   a,l   ;load difference in a
C4B7   4F                     LD   c,a   ;save to C
C4B8   87                     ADD   a,a   ;double A
C4B9   81                     ADD   a,c   ;add C
C4BA   C6 C5                  ADD   a,LCD_ROW2+5   ;add 5 to set row 1, col 5
C4BC   47                     LD   b,a   ;set LCD command
C4BD   CD 9C C5               CALL   commandToLCD   ;move cursor to correct position
C4C0   3E 7E                  LD   a,MENU_PTR   ;display ->
C4C2   C3 98 C5               JP   charToLCD   ;update LCD
C4C5                             ; 
C4C5                             ; Work out valid Disassembly start based on where CEL is.
C4C5                LCDDISVIEW:      
C4C5   CD 52 CB               CALL   calcDisAddress   ;work out Actual disassembly address from CEL
C4C8                             ;Display disassembly in 4 rows
C4C8   22 29 09               LD   (DISFROM),hl   ;Store it in the disassembler start address
C4CB   06 04                  LD   b,4   ;four lines
C4CD   11 1B D4               LD   de,LCDBaseRows   ;set DE to second row
C4D0                LCDDISROW:      
C4D0   C5                     PUSH   bc   ;save BC
C4D1   1A                     LD   a,(de)   ;get row value
C4D2   13                     INC   de   ;move to next row
C4D3   47                     LD   b,a   ;set B as LCD row
C4D4   CD 9C C5               CALL   commandToLCD   ;update LCD
C4D7   CD DE C4               CALL   drawDisRow   ;Draw the Disassembly line
C4DA   C1                     POP   bc   ;restore BC
C4DB   10 F3                  DJNZ   LCDDisRow   ;do for all four rows
C4DD   C9                     RET      
C4DE                             ; 
C4DE                             ; Update LCD with Disassembly Line: 
C4DE                             ; Input: DISFROM is to be be set, IE , ld (DISFROM),hl
C4DE                             ; Output: On LCD as current cursor: IE: "4000: LD A,34"
C4DE                             ; Destroy: HL,A
C4DE                DRAWDISROW:      
C4DE   D5                     PUSH   de   ;save row table
C4DF   CD 9B E7               CALL   disStart   ;Generate disassembly from command after CEL
C4E2   21 00 09               LD   hl,DISLINE1   ;Point to first line
C4E5   3E 3A                  LD   a,COLON   ;load A with colon
C4E7   32 04 09               LD   (DISLINE1+4),a   ;place colon after address
C4EA   3E 20                  LD   a,SPACE   ;load A with space
C4EC   32 05 09               LD   (DISLINE1+5),a   ;just display address
C4EF   AF                     XOR   a   ;zero A
C4F0   32 06 09               LD   (DISLINE1+6),a   ;just display address
C4F3   CD 83 C5               CALL   stringToLCD   ;update LCD
C4F6   21 13 09               LD   hl,DISLINE2   ;Point to second line
C4F9   CD A1 C8               CALL   stringZeroSpace   ;Place 0 at actual end of string
C4FC   CD 83 C5               CALL   stringToLCD   ;update LCD
C4FF   D1                     POP   de   ;restore row table
C500   C9                     RET      
C501                             ; 
C501                             ; Set the DATA_BASE variable with the CEL rounded down to base hex value
C501                             ; Input: none
C501                             ; Output: DATA_BASE set
C501                             ; Destroy: HL
C501                SETDATABASE:      
C501   2A 86 08               LD   hl,(CEL)   ;get CEL
C504   7D                     LD   a,l   ;get lower byte
C505   E6 FC                  AND   0FCH   ;mask out two lowest bits
C507   6F                     LD   l,a   ;store it back to get read base address
C508   22 A0 08               LD   (DATA_BASE),hl   ;store new Base
C50B   C9                     RET      
C50C                             ; 
C50C                             ; Monitor routines
C50C                             ; ----------------
C50C                             ; 
C50C                             ; Product a short Beep from the speaker
C50C                             ; Input: N/A
C50C                             ; Destroys: A
C50C                BEEP:        
C50C   3A 8D 08               LD   a,(KEY_BEEP)   ;check sound flag
C50F   B7                     OR   a   ;is it zero?
C510   C0                     RET   nz   ;exit if not zero
C511                BEEPALWAYS:      
C511   C5                     PUSH   bc   ;save BC
C512   0E 40                  LD   c,40H   ;Tone count
C514   AF                     XOR   a   ;clear A
C515                BEEPLOOP:      
C515   D3 01                  OUT   (DIGITS),a   ;output to segment latch
C517   06 40                  LD   b,40H   ;set delay
C519   10 FE                  DJNZ   $   ;delay
C51B   EE 80                  XOR   80H   ;toggle speaker bit
C51D   0D                     DEC   c   ;decrease count
C51E   20 F5                  JR   nz,beepLoop   ;repeat until c is zero
C520   C1                     POP   bc   ;restore BC
C521   AF                     XOR   a   ;clear A
C522   D3 01                  OUT   (DIGITS),a   ;output to segment latch
C524   C9                     RET      
C525                             ; 
C525                             ; Move Current Editing Location in Display Buffer
C525                             ; Input: DE = current editing location
C525                             ; Destroys: HL, DE, BC
C525                CELTOSEG:      
C525   EB                     EX   de,hl   ;swap DE with HL
C526   11 80 08               LD   de,DISP_BUFF   ;point DE to display buffer
C529   7C                     LD   a,h   ;get high byte
C52A   CD 32 C5               CALL   convAToSeg   ;convert A to segment
C52D   7D                     LD   a,l   ;get low byte
C52E   CD 32 C5               CALL   convAToSeg   ;convert A to segment
C531   7E                     LD   a,(hl)   ;get data value to convert
C532                             ; 
C532                             ; Convert register A to Seven Segment
C532                             ; Inputs: A = byte to convert, DE = address to store segment values (2 bytes)
C532                             ; Destroys: BC
C532                CONVATOSEG:      
C532   F5                     PUSH   af   ;save AF
C533   07                     RLCA      ;move upper nibble to lower
C534   07                     RLCA      
C535   07                     RLCA      
C536   07                     RLCA      
C537   CD 3B C5               CALL   convNibToSeg   ;convert lower nibble to segment
C53A   F1                     POP   af   ;restore AF
C53B                CONVNIBTOSEG:      
C53B   E6 0F                  AND   0FH   ;mask out upper nibble
C53D   01 1F D4               LD   bc,hexToSegmentTable   ;point BC to segment table
C540   81                     ADD   a,c   ;index table with A
C541   4F                     LD   c,a   
C542   0A                     LD   a,(bc)   ;get segment data
C543   12                     LD   (de),a   ;store segment data in DE
C544   13                     INC   de   ;move to next DE address
C545   C9                     RET      
C546                             ; 
C546                             ; Sets the Segment decimal point depending on what mode the TEC is in.
C546                             ; Either Address edit or Data edit.  And nibble data entry
C546                             ; Destroys: A, B, HL
C546                SETDOTS:      
C546   21 80 08               LD   hl,DISP_BUFF   ;point HL to address location in display buffer
C549   06 04                  LD   b,04H   ;four dots for address
C54B   3A 88 08               LD   a,(MCB)   ;get monitor control byte
C54E   CB 57                  BIT   2,a   ;check address/data bit status
C550   20 10                  JR   nz,setDot   ;Address mode, set 4 dots
C552   06 02                  LD   b,02H   ;two dots for data
C554   21 84 08               LD   hl,DISP_DATA   ;point HL to data location in display buffer
C557   E6 03                  AND   03H   ;mask out nibble bits
C559   B7                     OR   a   ;is it zero?
C55A   28 06                  JR   z,setDot   ;yes, display two dots
C55C   3D                     DEC   a   ;subtract 1
C55D   B7                     OR   a   ;is it zero
C55E   20 01                  JR   nz,$+3   ;no, skip buffer move
C560   23                     INC   hl   ;move to lower nibble of display
C561   05                     DEC   b   ;set only one dot
C562                SETDOT:      
C562   CB E6                  SET   4,(hl)   ;set segment decimal place dot ON
C564   23                     INC   hl   ;move to next segment
C565   10 FB                  DJNZ   setDot   ;repeat if necessary
C567   C9                     RET      
C568                             ; 
C568                             ; Entry to multiplex the monitor display buffer
C568                SCANDISPLAYBUFF:      
C568   11 80 08               LD   de,DISP_BUFF   ;point DE to display buffer location
C56B                             ; 
C56B                             ; Multiplex the Seven Segment displays with the contents of DE
C56B                             ; Inputs: DE = 6 byte location of segment data
C56B                             ; Destroys: A, B, DE = DE + 6
C56B                SCANSEGMENTS:      
C56B   06 20                  LD   b,00100000B   ;left most digit port address
C56D                SCANLOOP:      
C56D   1A                     LD   a,(de)   ;load A with Segment data
C56E   D3 02                  OUT   (SEGS),a   ;send it to LED Segment
C570   78                     LD   a,b   ;get digit port address
C571   D3 01                  OUT   (DIGITS),a   ;light up digit
C573   06 40                  LD   b,40H   ;set on delay
C575   10 FE                  DJNZ   $   ;delay
C577   13                     INC   de   ;move to next buffer location
C578   47                     LD   b,a   ;save current digit reference
C579   AF                     XOR   a   ;zero A
C57A   D3 01                  OUT   (DIGITS),a   ;blank digits
C57C   CB 08                  RRC   b   ;rotate digit port bit to the right
C57E   30 ED                  JR   nc,scanLoop   ;if not on last digit repeat
C580   D3 02                  OUT   (SEGS),a   ;clear LED Segment
C582   C9                     RET      
C583                             ; 
C583                             ; ASCII string to LCD.  Writes a string to the current cursor location on the LCD
C583                             ; Inputs: HL = ASCII string terminated with zero byte
C583                             ; Destroys: A, HL (moves to end of list)
C583                STRINGTOLCD:      
C583   7E                     LD   a,(hl)   ;get ASCII character
C584   23                     INC   hl   ;move to next ASCII character
C585   B7                     OR   a   ;is it zero?
C586   C8                     RET   z   ;yes, exit
C587   EF                     RST   28H   ;wait until LCD is not busy
C588   D3 84                  OUT   (LCD_DATA),a   ;send ASCII to LCD Data port
C58A   18 F7                  JR   stringToLCD   ;repeat
C58C                             ; 
C58C                             ; ASCII string to Serial.  Writes a string to the FTDI serial port 
C58C                             ; Inputs: HL = ASCII string terminated with zero byte
C58C                             ; Destroys: A, HL (moves to end of list)
C58C                STRINGTOSERIAL:      
C58C   CD 9C C6               CALL   readyToTransmit   ;set up serial for transmit
C58F                STRSERIALLOOP:      
C58F   7E                     LD   a,(hl)   ;get ASCII character
C590   23                     INC   hl   ;move to next ASCII character
C591   B7                     OR   a   ;is it zero?
C592   C8                     RET   z   ;yes, exit
C593   CD A8 C6               CALL   txByte   ;send ASCII to serial port
C596   18 F7                  JR   strSerialLoop   ;repeat
C598                             ; 
C598                             ; ASCII character to LCD.  Writes one character to the LCD as the current curso locaiton
C598                             ; Inputs: A = ASCII character
C598                             ; Destroys: none
C598                CHARTOLCD:      
C598   EF                     RST   28H   ;wait until LCD is not busy
C599   D3 84                  OUT   (LCD_DATA),a   ;send ASCII to LCD Data port
C59B   C9                     RET      
C59C                             ; 
C59C                             ; Command to LCD.  Sends an LCD instruction to the LCD
C59C                             ; Inputs: B = Instruction byte
C59C                             ; Destroys: none
C59C                COMMANDTOLCD:      
C59C   F5                     PUSH   af   ;save AF
C59D   EF                     RST   28H   ;wait until LCD is not busy
C59E   78                     LD   a,b   ;move instruction into A
C59F   D3 04                  OUT   (LCD_INST),a   ;send byte to instruction port
C5A1   F1                     POP   af   ;restore AF
C5A2   C9                     RET      
C5A3                             ; 
C5A3                             ; LCD initialise routine to set up LCD for correct use after a reset
C5A3                             ; Inputs: nothing
C5A3                             ; Destroys: all
C5A3                LCDINITIALISE:      
C5A3   01 04 04               LD   bc,400H+LCD_INST   ;4 instructions, LCD Instruction port
C5A6   21 17 D4               LD   hl,LCDInitTable   ;LCD instructions table
C5A9   11 00 10               LD   de,1000H   
C5AC   1B                     DEC   de   
C5AD   7B                     LD   a,e   
C5AE   B2                     OR   d   
C5AF   20 FB                  JR   nz,$-3   
C5B1   ED A3                  OUTI      ;send it to LCD
C5B3   20 F4                  JR   nz,$-10   ;loop again
C5B5   C9                     RET      
C5B6                             ; 
C5B6                             ; HL to LCD.  Dipslay the contents of HL as a string on the LCD at the current
C5B6                             ; cursor location
C5B6                             ; Inputs: HL
C5B6                             ; Destroy: A
C5B6                HLTOLCD:      
C5B6   E5                     PUSH   hl   ;save HL
C5B7   D5                     PUSH   de   ;save DE
C5B8   11 00 09               LD   de,DATA_ROW   ;tmp memory storage
C5BB   CD C9 C8               CALL   HLToString   ;convert HL to ASCII string in (DE)
C5BE   AF                     XOR   a   ;set A = 0
C5BF   12                     LD   (de),a   ;terminate string with zero
C5C0   21 00 09               LD   hl,DATA_ROW   ;set HL to text address
C5C3   CD 83 C5               CALL   stringToLCD   ;write text
C5C6   D1                     POP   de   ;restore DE
C5C7   E1                     POP   hl   ;restore HL to address
C5C8   C9                     RET      
C5C9                             ; 
C5C9                             ; LCD busy check.  Checks the LCD busy flag and loops until LCD isn't busy
C5C9                             ; Inputs: nothing
C5C9                             ; Destorys: none
C5C9                LCDBUSY:      
C5C9   F5                     PUSH   af   ;save af
C5CA   DB 04                  IN   a,(LCD_INST)   ;Read status bit on LCD
C5CC   07                     RLCA      ;put bit 7 (status) in carry
C5CD   38 FB                  JR   c,$-3   ;loop if LCD is busy
C5CF   F1                     POP   af   ;restore af
C5D0   C9                     RET      
C5D1                             ; 
C5D1                             ; Universal Key input detection routine.  Responds to Hex keypad or Matrix Keyboard
C5D1                             ; Return: A = key value
C5D1                             ;         zero flag set if a key is pressed
C5D1                             ;         carry flag set if press detected of a new key
C5D1                             ;         carry flag not set for key pressed and held
C5D1                             ; Destroys: DE if using Matrix Keyboard
C5D1                SCANKEYS:      
C5D1                             ;Detect keyboard input method
C5D1   DB 03                  IN   a,(SYS_INPUT)   ;read simp buffer
C5D3   0F                     RRCA      ;check bit 0
C5D4   38 20                  JR   c,keyboardScan   ;if set, matrix keyboard in use
C5D6                             ;Check keypad for press via keyboard decoder
C5D6   E6 20                  AND   20H   ;check bit 6 (now 5) for keypress on keypad
C5D8   28 04                  JR   z,keyPress   ;bit is low, a key is pressed
C5DA   32 8A 08               LD   (KEY_PRESS),a   ;set key press to non zero
C5DD   C9                     RET      ;return non zero for no key press
C5DE                KEYPRESS:      
C5DE   3A 8A 08               LD   a,(KEY_PRESS)   ;get key press flag
C5E1   B7                     OR   a   ;has it been already pressed (held down)?
C5E2   3A 89 08               LD   a,(KEY_BUFF)   ;set a to current key pressed if returning
C5E5   C8                     RET   z   ;key pressed and held, return zero and carry not set
C5E6   AF                     XOR   a   ;clear a
C5E7   32 8A 08               LD   (KEY_PRESS),a   ;set key press flag to zero
C5EA                             ;Universal key reader
C5EA   DB 00                  IN   a,(KEYB)   ;read key pressed
C5EC   E6 3F                  AND   3FH   ;mask out high bits
C5EE   EE 20                  XOR   20H   ;flip bit 5 (Fn-key)
C5F0                KEYEXIT:      
C5F0   BF                     CP   a   ;set zero flag
C5F1   37                     SCF      ;set carry flag
C5F2   32 89 08               LD   (KEY_BUFF),a   ;save key pressed into key buffer
C5F5   C9                     RET      
C5F6                             ; 
C5F6                             ; Matrix Keyboard handler.  If no key or invalid key press
C5F6                KEYBOARDSCAN:      
C5F6   CD 40 CC               CALL   matrixScan   ;detect if key has been pressed
C5F9   28 04                  JR   z,keyboardFetch   ;yes, continue with a key press flow
C5FB   32 8A 08               LD   (KEY_PRESS),a   ;set key press to non zero
C5FE   C9                     RET      ;return non zero for no key press
C5FF                KEYBOARDFETCH:      
C5FF                             ;E = key, D = second key
C5FF   7A                     LD   a,d   ;get seocnd key press if any
C600   32 8E 08               LD   (KEY_SECOND),a   ;store second key press
C603   7B                     LD   a,e   ;get first key press
C604                             ;Need to check if key is 0-F, +, -, GO or AD
C604                             ;0-9 = 13H-1CH, A-F = 24H-29H
C604                             ;AD = 3 or C, GO = 4 or A, - = 5, + = 6
C604   FE 2A                  CP   2AH   ;is it greater than 29H?
C606   30 4B                  JR   nc,keyBad   ;yes, return with non zero
C608   FE 24                  CP   24H   ;is it greater than 24H? (in range)
C60A   38 04                  JR   c,keyNumber   ;no, could be a number
C60C   D6 1A                  SUB   1AH   ;adjust alpha to be A-F
C60E   18 2A                  JR   keyGood   ;clean exit
C610                KEYNUMBER:      
C610   FE 1D                  CP   1DH   ;is it greater than 1CH?
C612   30 3F                  JR   nc,keyBad   ;yes, return with non zero
C614   FE 13                  CP   13H   ;is it greater than 13H? (in range)
C616   38 04                  JR   c,keySpecial   ;no, could be special key
C618   D6 13                  SUB   13H   ;adjust for number 0-9
C61A   18 1E                  JR   keyGood   ;clean exit
C61C                KEYSPECIAL:      
C61C   FE 0C                  CP   0CH   ;is it ESC?
C61E   20 04                  JR   nz,$+6   ;no, keep checking
C620   3E 13                  LD   a,K_ADDR   ;set key to AD
C622   18 16                  JR   keyGood   ;clean exit
C624   FE 0A                  CP   0AH   ;is it Enter?
C626   20 04                  JR   nz,$+6   ;no, keep checking
C628   3E 12                  LD   a,K_GO   ;set key to GO
C62A   18 0E                  JR   keyGood   ;clean exit
C62C   FE 07                  CP   07H   ;is it greater than 06H?
C62E   30 23                  JR   nc,keyBad   ;yes, return with non zero
C630   FE 05                  CP   05H   ;is it less than 5?
C632   38 1F                  JR   c,keyBad   ;yes, return with non zero
C634   D6 03                  SUB   3   ;subtract 3
C636   EE 03                  XOR   03H   ;flip bits
C638   C6 10                  ADD   a,10H   ;adjust special to be 10H-13H
C63A                KEYGOOD:      
C63A   5F                     LD   e,a   ;store key
C63B   3A 8A 08               LD   a,(KEY_PRESS)   ;get key press flag
C63E   B7                     OR   a   ;has it been already pressed (held down)?
C63F   3A 89 08               LD   a,(KEY_BUFF)   ;set a to current key pressed if returning
C642   C8                     RET   z   ;key pressed and held, return zero and carry not set
C643   AF                     XOR   a   ;clear a
C644   32 8A 08               LD   (KEY_PRESS),a   ;set key press flag to zero
C647   7A                     LD   a,d   ;check for Fn key
C648   FE 02                  CP   K_FN   ;is it function?
C64A   3E 00                  LD   a,0   ;reset A but not flags
C64C   20 02                  JR   nz,$+4   ;skip adding function
C64E   3E 20                  LD   a,00100000B   ;set bit 5
C650   83                     ADD   a,e   ;restore key
C651   18 9D                  JR   keyExit   ;clean exit
C653                KEYBAD:      
C653   F6 01                  OR   1   ;reset zero flag
C655   C9                     RET      ;return non zero for invalid key press
C656                             ; 
C656                             ; Scan keys and wait until key released to get next key
C656                             ; Input: none
C656                             ; Return: A = key pressed
C656                             ;         Zero flag is set
C656                             ; Destroys: DE if using Matrix Keyboard
C656                SCANKEYSWAIT:      
C656   CD D1 C5               CALL   scanKeys   ;check for key pressed
C659   3A 8A 08               LD   a,(KEY_PRESS)   ;is a key currently pressed?
C65C   B7                     OR   a   ;is it zero (pressed)
C65D   28 F7                  JR   z,scanKeysWait   ;repeat until key is released
C65F   CD D1 C5               CALL   scanKeys   ;check for key pressed
C662   20 FB                  JR   nz,$-3   ;repeat scanKeys until a key is pressed
C664   C9                     RET      
C665                             ; 
C665                             ; Toggles LCD Menu or Segment Data entry mode
C665                SWITCHMODE:      
C665   3A 88 08               LD   a,(MCB)   ;get MCB
C668   EE 08                  XOR   MCB_LCD_SEG   ;toggle Bit 3
C66A   CB AF                  RES   5,a   ;reset Parameter bit
C66C   32 88 08               LD   (MCB),a   ;save it back
C66F   C9                     RET      
C670                             ; 
C670                             ; Toggles Data Entry View or Disassembler View
C670                SWITCHVIEW:      
C670   3A 88 08               LD   a,(MCB)   ;get MCB
C673   EE 10                  XOR   MCB_DIS_DE   ;toggle Bit 4
C675   32 88 08               LD   (MCB),a   ;save it back
C678   C9                     RET      
C679                             ; 
C679                             ; ASCII to Segment.  Converts an ASCII character to Seven Segment character
C679                             ; Input: A = ASCII character
C679                             ; Return: A = Segment character or 0 if out of range
C679                             ; Destroys: none
C679                ASCIITOSEGMENT:      
C679   D6 20                  SUB   20H   ;adjust for table lookup
C67B   38 04                  JR   c,a2sExit   ;out of range
C67D   FE 60                  CP   60H   ;check upper range
C67F   38 02                  JR   c,a2sLookup   ;okay
C681                A2SEXIT:      
C681   AF                     XOR   a   ;set return value to zero
C682   C9                     RET      
C683                A2SLOOKUP:      
C683   E5                     PUSH   hl   ;save HL
C684   21 4F D4               LD   hl,ASCIISegTable   ;point hl to ASCII segment table
C687   85                     ADD   a,l   ;index l
C688   6F                     LD   l,a   ;save l
C689   7E                     LD   a,(hl)   ;get value in table
C68A   E1                     POP   hl   ;restore HL
C68B   C9                     RET      ;exit
C68C                             ; 
C68C                             ; Software ID.  Get Software ID String
C68C                             ; Input: nothing
C68C                             ; Return: HL = Pointer to SOFTWARE ASCIIZ String
C68C                             ; Destroys: none
C68C                SOFTWAREID:      
C68C   21 F0 FF               LD   hl,SOFTWARE   ;return the ID string pointer
C68F   C9                     RET      
C690                             ; 
C690                             ; Version ID.  Get Version Number and Version String
C690                             ; Input: nothing
C690                             ; Return: HL = Pointer to Release ASCIIZ String
C690                             ;         BC = Release major version number
C690                             ;         DE = Release minor version number
C690                             ; Destroys: none
C690                VERSIONID:      
C690   21 F8 FF               LD   hl,RELEASE   ;return the ID string pointerB
C693   ED 4B EC FF            LD   bc,(RELMAJOR)   ;return major version as a number
C697   ED 5B EE FF            LD   de,(RELMINOR)   ;return minor version as a number
C69B   C9                     RET      
C69C                             ; 
C69C                             ; Set serial for Ready To Transmit.  Must be called prior to any TEC to Serial
C69C                             ; routine
C69C                             ; Input: none
C69C                             ; Destroy: A
C69C                READYTOTRANSMIT:      
C69C   CD 23 CE               CALL   serialEnable   ;enable serial
C69F   E5                     PUSH   hl   ;save hl
C6A0   21 00 20               LD   hl,2000H   ;small
C6A3   CD 03 C7               CALL   timeDelay   ;delay
C6A6   E1                     POP   hl   ;restore HL
C6A7   C9                     RET      
C6A8                             ; 
C6A8                             ; Bit Bang FTDI USB tranmit routine.  Transmit one byte via the FTDI USB serial
C6A8                             ; connection.  It assumes a uart connection of 4800-8-N-2
C6A8                             ; Input: A = byte to transmit
C6A8                             ; Output: nothing
C6A8                             ; Destroy: none
C6A8                TXBYTE:      
C6A8   F5                     PUSH   af   ;save AF
C6A9   C5                     PUSH   bc   ;save BC
C6AA   E5                     PUSH   hl   ;save HL
C6AB   2A B1 08               LD   hl,(BAUD)   ;set HL to Baud delay
C6AE   4F                     LD   c,a   ;save transmit byte in C
C6AF                             ;transmit the start bit
C6AF   AF                     XOR   a   ;clear A
C6B0   D3 01                  OUT   (DIGITS),a   ;pull D6 low
C6B2   D3 02                  OUT   (SEGS),a   ;output to disco leds
C6B4   CD 03 C7               CALL   timeDelay   ;do a baud delay
C6B7                             ;transmit the byte
C6B7   06 08                  LD   b,8   ;eight bits to send
C6B9   CB 09                  RRC   c   ;move fist bit into carry flag
C6BB                SENDBIT:      
C6BB   CB 09                  RRC   c   ;shift to bit 6
C6BD   79                     LD   a,c   ;load byte in A
C6BE   E6 40                  AND   40H   ;mask out all bits except 6
C6C0   D3 01                  OUT   (DIGITS),a   ;output the bit
C6C2   D3 02                  OUT   (SEGS),a   ;output to disco leds
C6C4   CD 03 C7               CALL   timeDelay   ;do a baud delay
C6C7   10 F2                  DJNZ   sendBit   ;send next bit
C6C9                             ;transmit stop bits
C6C9   3E 40                  LD   a,40H   ;set bit
C6CB   D3 01                  OUT   (DIGITS),a   ;output the bit
C6CD   D3 02                  OUT   (SEGS),a   ;output to disco leds
C6CF   CD 03 C7               CALL   timeDelay   ;do a baud delay
C6D2   CD 03 C7               CALL   timeDelay   ;do a baud delay x2 (two stop bits)
C6D5   E1                     POP   hl   ;restore HL
C6D6   C1                     POP   bc   ;restore BC
C6D7   F1                     POP   af   ;restore AF
C6D8   C9                     RET      
C6D9                             ; 
C6D9                             ; Bit Bang FTDI USB receive routine.  Receive one byte via the FTDI USB serial
C6D9                             ; connection.  It assumes a uart connection of 4800-8-N-2
C6D9                             ; Input: nothing
C6D9                             ; Return: A = byte received
C6D9                             ; Destroy: none
C6D9                RXBYTE:      
C6D9   C5                     PUSH   bc   ;save BC
C6DA   E5                     PUSH   hl   ;save HL
C6DB                STARTBIT:      
C6DB   DB 03                  IN   a,(SYS_INPUT)   ;read system input for High to Low on Bit 7
C6DD   07                     RLCA      ;put bit 7 (TX line) in carry
C6DE   38 FB                  JR   c,startBit   ;loop if TX line is high
C6E0                             ;start bit detected
C6E0   2A B1 08               LD   hl,(BAUD)   ;set HL to Baud delay
C6E3   CB 3C                  SRL   h   ;half the delay
C6E5   CB 1D                  RR   l   
C6E7   CD 03 C7               CALL   timeDelay   ;do a baud delay
C6EA   DB 03                  IN   a,(SYS_INPUT)   ;get start bit
C6EC   07                     RLCA      ;move bit 7 into carry
C6ED   38 EC                  JR   c,startBit   ;start bit too short, try again
C6EF                             ;valid start bit detected
C6EF   06 08                  LD   b,8   ;eight bits to receive
C6F1                GETBIT:      
C6F1   2A B1 08               LD   hl,(BAUD)   ;set HL to Baud delay
C6F4   CD 03 C7               CALL   timeDelay   ;do a baud delay
C6F7   DB 03                  IN   a,(SYS_INPUT)   ;get data bit
C6F9   07                     RLCA      ;move bit 7 into carry
C6FA   CB 19                  RR   c   ;rotate register C and put carry in bit 7
C6FC   10 F3                  DJNZ   getBit   ;get next bit
C6FE   79                     LD   a,c   ;load byte C to A
C6FF   B7                     OR   a   ;clear carry flag
C700   E1                     POP   hl   ;restore HL
C701   C1                     POP   bc   ;restore BC
C702   C9                     RET      
C703                             ; 
C703                             ; Time delay.  16-bit Delay routine
C703                             ; Input: HL = delay amount
C703                             ; Destroy: none
C703                TIMEDELAY:      
C703   E5                     PUSH   hl   ;save HL
C704   D5                     PUSH   de   ;save DE
C705   11 01 00               LD   de,1   ;load DE with 1
C708   ED 52                  SBC   hl,de   ;subtract 1 from HL
C70A   D2 08 C7               JP   nc,$-2   ;repeat subtraction until HL=0
C70D   D1                     POP   de   ;restore DE
C70E   E1                     POP   hl   ;restore HL
C70F   C9                     RET      
C710                             ; 
C710                             ; INTEL Hex Load Routine.
C710                             ; Intel Hex file format is a string of ASCII with the following parts:
C710                             ; MARK | LENGTH | ADDRESS | RECORD TYPE | DATA | CHECKSUM
C710                             ; :10200000210621CD7D20CD98203A00213C320021AF <- EXAMPLE LINE
C710                             ; MARK is a colon character, LENGTH is the number of bytes per line, ADDRESS  is
C710                             ; the 2 byte address of where the data is to be stored.  RECORD TYPE is 00 for
C710                             ; Data and 01 for EOF.  DATA is the bytes to be stored.  CHECKSUM is the addition of
C710                             ; all bytes in the one line.
C710                             ; Input: nothing
C710                             ; Output: nothing
C710                             ; Destroy: HL,DE,BC,A
C710                INTELHEXLOAD:      
C710   3A 9D 08               LD   a,(SYS_MODE)   ;reset hardware to MONitor mode
C713   47                     LD   b,a   
C714   3E 02                  LD   a,PROTECT   ;Disable PROTECT during load
C716   2F                     CPL      
C717   A0                     AND   b   
C718   D3 FF                  OUT   (SYS_CTRL),a   
C71A   CD 28 C7               CALL   intelLoader   ;call the load routine, set zero if passed
C71D   3A 9D 08               LD   a,(SYS_MODE)   ;reset hardware to MONitor mode
C720   D3 FF                  OUT   (SYS_CTRL),a   
C722   CA 34 CC               JP   z,displayPass   ;if checksum good then display pass
C725   C3 2E CC               JP   displayError   ;else display error
C728                             ; 
C728                             ; Intel Hex Load Routine.
C728                             ; Returns: Zero Flag set = Pass, Zero Flag not set = Fail
C728                INTELLOADER:      
C728   AF                     XOR   a   ;zero A
C729   4F                     LD   c,a   ;clear checksum
C72A                             ;Get header information
C72A                INTELMARK:      
C72A   CD D9 C6               CALL   rxByte   ;Get Byte from FTDI USB driver
C72D   FE 3A                  CP   ":"   ;Is byte received a colon?
C72F   20 F9                  JR   nz,intelMark   ;No, loop until a colon is found
C731   CD 5F C7               CALL   getHexByte   ;Convert ASCII to Byte (Length)
C734   47                     LD   b,a   ;Store Record Length in B
C735   CD 5F C7               CALL   getHexByte   ;Convert ASCII to Byte (Destination address)
C738   67                     LD   h,a   ;Store High Address byte in H
C739   CD 5F C7               CALL   getHexByte   ;Convert ASCII to Byte (Destination address)
C73C   6F                     LD   l,a   ;Store Low Address byte in L
C73D                             ; 
C73D                             ;Display indication that file is loading
C73D   D3 02                  OUT   (SEGS),a   ;load low address byte to segments
C73F   3E 01                  LD   a,1   ;set first segment
C741   D3 01                  OUT   (DIGITS),a   ;light up first segment
C743                             ; 
C743   CD 5F C7               CALL   getHexByte   ;Convert ASCII to Byte (Record Type)
C746   20 11                  JR   nz,intelCheckSum   ;Anything non zero treat as EOF
C748                             ; 
C748                             ;C=checksum, B=number of bytes, HL=destination address
C748                             ;Load bytes to (HL), B times
C748                INTELLOAD:      
C748   CD 5F C7               CALL   getHexByte   ;Convert ASCII to Byte (Data)
C74B   77                     LD   (hl),a   ;store data in RAM
C74C   57                     LD   d,a   ;copy A to D for later checking
C74D   7E                     LD   a,(hl)   ;read back value stored
C74E   BA                     CP   d   ;check if we stored the value successfully
C74F   C0                     RET   nz   ;exit with ZF not set if the store value check failed
C750   23                     INC   hl   ;move to next RAM location
C751   10 F5                  DJNZ   intelLoad   ;repeat until B=0
C753   CD 59 C7               CALL   intelCheckSum   ;Get checksum value
C756   28 D0                  JR   z,intelLoader   ;Line is processed and okay, get next line
C758   C9                     RET      ;Exit with zero flag not set (load error)
C759                             ; 
C759                INTELCHECKSUM:      
C759   CD 5F C7               CALL   getHexByte   ;Convert ASCII to Byte (Checksum)
C75C   79                     LD   a,c   ;Final Checksum is zero if okay
C75D   B7                     OR   a   ;set zero flag
C75E   C9                     RET      ;get next line or exit
C75F                             ; 
C75F                             ;Get ASCII character from FTDI AND convert it to a byte
C75F                             ;IE: "D3" -> 0D3H
C75F                GETHEXBYTE:      
C75F   CD 70 C7               CALL   getHexChar   ;Get first Hex character from FTDI
C762   07                     RLCA      ;Move lower nibble
C763   07                     RLCA      ;(first character)
C764   07                     RLCA      ;to upper
C765   07                     RLCA      ;nibble in A
C766   57                     LD   d,a   ;store it in D
C767   CD 70 C7               CALL   getHexChar   ;Get second Hex character from FTDI
C76A   B2                     OR   d   ;make a byte
C76B                             ;add byte to checksum
C76B   F5                     PUSH   af   ;save AF
C76C   81                     ADD   a,c   ;add existing checksum C to current byte
C76D   4F                     LD   c,a   ;load total back to C
C76E   F1                     POP   af   ;restore AF
C76F   C9                     RET      
C770                GETHEXCHAR:      
C770   CD D9 C6               CALL   rxByte   ;Get Byte from FTDI USB driver
C773   CB 77                  BIT   6,a   ;is the chracter 0-9 or A-F?
C775   28 02                  JR   z,$+4   ;Its 0-9 skip A-F adjustment
C777   C6 09                  ADD   a,9   ;add 9 to fix A-F
C779   E6 0F                  AND   0FH   ;mask out high nibble and convert to binary
C77B   C9                     RET      
C77C                             ; 
C77C                             ; SIO Hex Dump.  Transfer data on the TEC to a serial terminal
C77C                             ; Destroys: A,HL,DE,BC
C77C                DATATOSERIAL:      
C77C   CD A3 C7               CALL   getToFrom   ;collect parameters
C77F                             ; transmits data from HL for BC bytes
C77F                SENDTOSERIAL:      
C77F   CD 9C C6               CALL   readyToTransmit   ;set up serial for transmit
C782                SENDLOOP:      
C782   7E                     LD   a,(hl)   ;load A with data
C783   CD A8 C6               CALL   txByte   ;transmit it to FTDI
C786   ED A1                  CPI      ;inc HL, dec BC
C788   EA 82 C7               JP   pe,sendLoop   ;repeat until BC=0
C78B   C9                     RET      ;all done
C78C                             ; send to serial Entry for API
C78C                             ; Input: HL = start address
C78C                             ;        DE = length in bytes
C78C                SENDTOSERIALAPI:      
C78C   D5                     PUSH   de   ;make BC = DE
C78D   C1                     POP   bc   
C78E   C3 7F C7               JP   sendToSerial   
C791                             ; 
C791                             ; SIO receive data.  Receive binary data from FTDI
C791                DATAFROMSERIAL:      
C791   CD A3 C7               CALL   getToFrom   ;collect parameters
C794                RECEIVEFROMSERIAL:      
C794   CD D9 C6               CALL   rxByte   ;get byte from serial
C797   77                     LD   (hl),a   ;load byte into HL
C798   ED A1                  CPI      ;inc HL, dec BC
C79A   EA 94 C7               JP   pe,receiveFromSerial   ;repeat until BC=0
C79D   C9                     RET      ;all done
C79E                             ; receive from serial Entry for API
C79E                             ; Input: HL = start address
C79E                             ;        DE = length in bytes
C79E                RECEIVEFROMSERIALAPI:      
C79E   D5                     PUSH   de   ;make BC = DE
C79F   C1                     POP   bc   
C7A0   C3 94 C7               JP   receiveFromSerial   
C7A3                             ; 
C7A3                             ; Collect Address To and From information from user via the LCD interface
C7A3                             ; Stores From at DATA_FROM (08C0H) and To at DATA_TO (08C2H)
C7A3                             ; Output: HL = start address
C7A3                             ;         BC = length of end - start+1
C7A3                             ; Note: if end < start (error) then call error handler
C7A3                             ; Destroys: DE
C7A3                GETTOFROM:      
C7A3   21 B4 C7               LD   hl,dataRangeParams   
C7A6   CD BD CF               CALL   paramDriver   ;collect parameters
C7A9   21 C0 08               LD   hl,DATA_FROM   ;check parameters
C7AC   CD 0D C9               CALL   checkStartEnd   ; 
C7AF   D0                     RET   nc   ;All good, continue
C7B0   E1                     POP   hl   ;remove call return from stack
C7B1   C3 2E CC               JP   displayError   ;display error if end < start
C7B4                             ; 
C7B4                DATARANGEPARAMS:      
C7B4   02                     DB   2   ;Three parameters
C7B5   45 6E 74 65 72 20      DB   "Enter "   ;7seg Text
C7BB   3D 20 45 6E 74 65 72 20 50 61 72 61 6D 65 74 65 72 73 20 3D 00 DB   "= Enter Parameters =",0   ;Parameter title
C7D0   46 72 6F 6D 20 41 64 64 72 65 73 73 3A 00 DB   "From Address:",0   ;Text and Address
C7DE   C0 08                  DW   DATA_FROM   
C7E0   54 6F 20 41 64 64 72 65 73 73 3A 00 DB   "To Address:",0   ;Text and Address
C7EC   C2 08                  DW   DATA_TO   
C7EE                             ; 
C7EE                             ; Send Disassembly to serial terminal
C7EE                             ; Destroys: All
C7EE                ASSEMBLYTOSERIAL:      
C7EE   CD A3 C7               CALL   getToFrom   ;collect parameters
C7F1                             ; prints assemblybetween DATA_FROM / DATA_TO to the serial terminal.  Can
C7F1                             ; be called externally provided DATA_FROM/TO (08C0-08C3) are populated.
C7F1                SENDASSEMBLY:      
C7F1   CD 9C C6               CALL   readyToTransmit   ;set up serial for transmit
C7F4   2A C0 08               LD   hl,(DATA_FROM)   ;get start address
C7F7   22 29 09               LD   (DISFROM),hl   ;save start in DIS_FROM
C7FA                ASSEMBLYLOOP:      
C7FA   CD 9B E7               CALL   disStart   ;generate Disassembly
C7FD   21 00 09               LD   hl,DISLINE1   ;get string
C800   06 26                  LD   b,38   ;38 characters
C802   7E                     LD   a,(hl)   ;load A with data
C803   CD A8 C6               CALL   txByte   ;transmit it to FTDI
C806   23                     INC   hl   ;move to next location
C807   10 F9                  DJNZ   $-5   ;repeat 38 times
C809   3E 0D                  LD   a,CR   ;carriage return
C80B   CD A8 C6               CALL   txByte   ;send CR
C80E   3E 0A                  LD   a,LF   ;line feed
C810   CD A8 C6               CALL   txByte   ;send LF
C813   2A 29 09               LD   hl,(DISFROM)   ;get current start
C816   ED 5B C2 08            LD   de,(DATA_TO)   ;get end address
C81A   B7                     OR   a   ;clear carry
C81B   ED 52                  SBC   hl,de   ;check difference between
C81D   19                     ADD   hl,de   ;start and end address
C81E   38 DA                  JR   c,assemblyLoop   ;if not zero then loop
C820   C9                     RET      ;all done
C821                             ; send assembly to serial Entry for API
C821                             ; Input: HL = start address
C821                             ;        DE = length in bytes
C821                SENDASSEMBLYAPI:      
C821   22 29 09               LD   (DISFROM),hl   ;save start in DIS_FROM
C824   19                     ADD   hl,de   ;get end address
C825   22 C2 08               LD   (DATA_TO),hl   ;get end address
C828   CD 9C C6               CALL   readyToTransmit   ;set up serial for transmit
C82B   C3 FA C7               JP   assemblyLoop   
C82E                             ; Send a traditional HEX dump to the serial terminal.
C82E                             ; Input: none
C82E                             ; Output: text to  serial
C82E                             ; Destroy: All
C82E                HEXDUMPTOSERIAL:      
C82E   CD A3 C7               CALL   getToFrom   ;collect parameters
C831   CD 9C C6               CALL   readyToTransmit   ;set up serial for transmit
C834                SENDHEX:      
C834   E5                     PUSH   hl   ;store current address
C835   C5                     PUSH   bc   ;store byte count
C836   E1                     POP   hl   ;HL = BC
C837   11 F0 FF               LD   de,-16   ;load DE with minus 16
C83A   19                     ADD   hl,de   ;reduce hl by 16
C83B   1E 10                  LD   e,16   
C83D   38 03                  JR   c,hexMore   
C83F   C5                     PUSH   bc   
C840   E1                     POP   hl   
C841   59                     LD   e,c   
C842                HEXMORE:      
C842   E3                     EX   (sp),hl   ;get current address, store bytes remaining
C843   43                     LD   b,e   ;byte count
C844   11 00 09               LD   de,DATA_ROW   ;point to Data Entry RAM
C847   CD F6 C8               CALL   genDataDump   ;fill DE with data dump line
C84A   E5                     PUSH   hl   ;store next address
C84B   21 00 09               LD   hl,DATA_ROW   ;make HL = start or data row
C84E                HEXTEXTLOOP:      
C84E   7E                     LD   a,(hl)   ;get ASCII
C84F   23                     INC   hl   ;move to next address
C850   B7                     OR   a   ;is it zero
C851   28 05                  JR   z,skipHex   ;yes, skip sending to serial
C853   CD A8 C6               CALL   txByte   ;send byte to serial
C856   18 F6                  JR   hexTextloop   ;repeat
C858                SKIPHEX:      
C858   3E 0D                  LD   a,CR   ;carriage return
C85A   CD A8 C6               CALL   txByte   ;send CR
C85D   3E 0A                  LD   a,LF   ;line feed
C85F   CD A8 C6               CALL   txByte   ;send LF
C862   D1                     POP   de   ;restore next start address
C863   C1                     POP   bc   ;restore bytes remaining
C864   2A C2 08               LD   hl,(DATA_TO)   ;get end address
C867   B7                     OR   a   
C868   ED 52                  SBC   hl,de   ;check difference
C86A   C8                     RET   z   ;return if all done
C86B   D8                     RET   c   ;return if all done
C86C   EB                     EX   de,hl   ;set hl to new start address
C86D   18 C5                  JR   sendHex   ;repeat until all bytes are printed
C86F                             ; send hex dump to serial Entry for API
C86F                             ; Input: HL = start address
C86F                             ;        DE = length in bytes
C86F                SENDHEXAPI:      
C86F   D5                     PUSH   de   ;make BC = DE
C870   C1                     POP   bc   
C871   EB                     EX   de,hl   ;set HL for add
C872   19                     ADD   hl,de   ;get end address
C873   22 C2 08               LD   (DATA_TO),hl   ;put end address in RAM
C876   EB                     EX   de,hl   ;restore HL  
C877   CD 9C C6               CALL   readyToTransmit   ;set up serial for transmit
C87A   C3 34 C8               JP   sendHex   
C87D                             ; 
C87D                             ; Display 7Seg Message.  Display data on the Seven Segment Display and 
C87D                             ; maintain display until a key is pressed
C87D                             ; Input: HL = 6 byte Segment Data pointer
C87D                             ; Destroy: ALL
C87D                DISPLAY7SEGS:      
C87D   11 80 08               LD   de,DISP_BUFF   ;set destination to display buffer
C880   01 06 00               LD   bc,6   ;size bytes
C883   ED B0                  LDIR      ;fill display buffer with text
C885   CD D1 C5               CALL   scanKeys   ;check for key pressed
C888   3A 8A 08               LD   a,(KEY_PRESS)   ;is a key currently pressed?
C88B   B7                     OR   a   ;is it zero (pressed)
C88C   28 F7                  JR   z,$-7   ;repeat until key is released
C88E                DISPLAYLOOP:      
C88E   CD 68 C5               CALL   scanDisplayBuff   ;Multiplex the seven segments
C891   CD D1 C5               CALL   scanKeys   ;Scan for key press
C894   20 F8                  JR   nz,displayLoop   ;Repeat scan until key pressed
C896   C9                     RET      
C897                             ; 
C897                             ; Compare strings utility
C897                             ; HL = source
C897                             ; DE = target
C897                             ; B = #bytes to compare (up to 256)
C897                             ; 
C897                             ; Z = compare match
C897                             ; NZ = compare fail
C897                             ; 
C897                             ; destroys HL, DE, A, BC
C897                STRINGCOMPARE:      
C897   7E                     LD   a,(hl)   ;Load Source into A
C898   4F                     LD   c,a   ;Store in C
C899   1A                     LD   a,(de)   ;Load compare into A
C89A   B9                     CP   c   ;A==C ?
C89B   C0                     RET   nz   ;No - so edxt with Z flag reset
C89C   23                     INC   hl   ;Yes - move on to next byte
C89D   13                     INC   de   ;Next byte
C89E   10 F7                  DJNZ   stringCompare   ;Loop around till B=0 (check whole string)
C8A0   C9                     RET      ;Matched, so return with Z flag set
C8A1                             ; 
C8A1                             ; Defaults to check for double ASCII space
C8A1                STRINGZEROSPACE:      
C8A1   3E 20                  LD   a,SPACE   ;Space and fall through.         
C8A3                             ; Place a zero at then end of a string.  Routine checks for two bytes
C8A3                             ; in a row that are the same and when found, will place a zero in the first 
C8A3                             ; byte found.  If no byte found within 20 characters then exit with no update
C8A3                             ; Input: A = byte value to check, usually 0 or " "
C8A3                             ;        HL = pointer to ASCII string
C8A3                             ; Output: Zero Set = Updated HL
C8A3                             ;         Zero not set = No match found
C8A3                             ; Destroys: A
C8A3                STRINGZERO:      
C8A3   C5                     PUSH   bc   ;save BC
C8A4   E5                     PUSH   hl   ;save HL
C8A5   01 14 00               LD   bc,20   ;twenty goes (LCD width)
C8A8                SZ1:         
C8A8   ED B1                  CPIR      ;find a matching byte
C8AA   20 06                  JR   nz,sZ2   ;if non zero here, no byte match and BC=0, just exit
C8AC   BE                     CP   (hl)   ;compare with next value
C8AD   20 F9                  JR   nz,sZ1   ;Nope, try again
C8AF   2B                     DEC   hl   ;go back to first match
C8B0   AF                     XOR   a   ;set A=0
C8B1   77                     LD   (hl),a   ;make it zero
C8B2                SZ2:         
C8B2   E1                     POP   hl   ;restore HL
C8B3   C1                     POP   bc   ;restore BC
C8B4   C9                     RET      
C8B5                             ; 
C8B5                             ; Count the number of ASCII spaces in a zero terminated string
C8B5                             ; Input: HL = pointer to string
C8B5                             ; Output: A = number of spaces
C8B5                STRINGSPACES:      
C8B5   C5                     PUSH   bc   ;save BC
C8B6   E5                     PUSH   hl   ;save HL
C8B7   0E 00                  LD   c,0   ;counter
C8B9                STRSPLOOP:      
C8B9   7E                     LD   a,(hl)   ;get value
C8BA   B7                     OR   a   ;is it zero?
C8BB   20 04                  JR   nz,strSpCheck   ;no
C8BD   79                     LD   a,c   ;set return value
C8BE   E1                     POP   hl   ;restore HL
C8BF   C1                     POP   bc   ;restore BC
C8C0   C9                     RET      ;exit
C8C1                STRSPCHECK:      
C8C1   FE 20                  CP   SPACE   ;is it a space
C8C3   23                     INC   hl   ;move to next address
C8C4   20 F3                  JR   nz,strSpLoop   ;loop again if not space
C8C6   0C                     INC   c   ;increase space counter
C8C7   18 FB                  JR   $-3   ;loop again, c = non zero
C8C9                             ; 
C8C9                             ; Convert HL to ASCII string. IE: 2CH -> "2C"
C8C9                             ; Input: HL = value to convert
C8C9                             ;        DE = address of string destination
C8C9                             ; Output: DE = address one after last ASCII entry
C8C9                             ; Destroys: A
C8C9                HLTOSTRING:      
C8C9   7C                     LD   a,h   ;get H
C8CA   CD CE C8               CALL   AToString   ;convert to String
C8CD   7D                     LD   a,l   ;get L
C8CE                             ; 
C8CE                             ; Convert A to ASCII string
C8CE                             ; Input: A = byte to convert
C8CE                             ;        DE = address of string destination
C8CE                             ; Output: DE = address one after last ASCII entry
C8CE                             ; Destroys: A
C8CE                ATOSTRING:      
C8CE   F5                     PUSH   af   ;save AF
C8CF   1F                     RRA      ;move high
C8D0   1F                     RRA      ;nibble to low nibble
C8D1   1F                     RRA      
C8D2   1F                     RRA      
C8D3   CD D7 C8               CALL   lowNibToString   ;get lower nibble and save in DE
C8D6   F1                     POP   af   ;restore AF
C8D7                LOWNIBTOSTRING:      
C8D7   E6 0F                  AND   0FH   ;mask out high nibble
C8D9   C6 90                  ADD   a,90H   ;convert to
C8DB   27                     DAA      ;ASCII
C8DC   CE 40                  ADC   a,40H   ;using this
C8DE   27                     DAA      ;amazing routine
C8DF   12                     LD   (de),a   ;save in DE
C8E0   13                     INC   de   ;move to next DE
C8E1   C9                     RET      ;exit back
C8E2                             ; 
C8E2                             ; convert register A to ASCII. IE: 2CH -> "2C"
C8E2                             ; Input: A = byte to convert
C8E2                             ; Output: HL = two byte ASCII string
C8E2                             ; Destroys: A
C8E2                REGATOASCII:      
C8E2   F5                     PUSH   af   ;save AF
C8E3   0F                     RRCA      ;move high 
C8E4   0F                     RRCA      ;nibble to
C8E5   0F                     RRCA      ;low
C8E6   0F                     RRCA      ;nibble
C8E7   CD EC C8               CALL   nibble2ASCII   ;call nib to ASCII routine
C8EA   65                     LD   h,l   ;move upper nibble to H
C8EB   F1                     POP   af   
C8EC                NIBBLE2ASCII:      
C8EC   E6 0F                  AND   0FH   ;mask out high nibble
C8EE   C6 90                  ADD   a,90H   ;convert to
C8F0   27                     DAA      ;ASCII
C8F1   CE 40                  ADC   a,40H   ;using this
C8F3   27                     DAA      ;amazing routine
C8F4   6F                     LD   l,a   ;store in L
C8F5   C9                     RET      ;exit
C8F6                             ; 
C8F6                             ; Generate data dump in ASCII.  Print Address and then C number of bytes
C8F6                             ; Input: B = number of bytes to display
C8F6                             ;        HL = start address of data dump
C8F6                             ;        DE = address of string destination
C8F6                             ; Output: DE = zero terminated address one after last ASCII entry
C8F6                             ;           IE: "4000: 23 34 45 56 78 9A BC DE",0
C8F6                             ; Destroys: A, HL (moves to next address after last byte)
C8F6                GENDATADUMP:      
C8F6   C5                     PUSH   bc   ;save BC
C8F7   CD C9 C8               CALL   HLToString   ;convert HL to address in ASCII
C8FA   3E 3A                  LD   a,COLON   ;set A = colon
C8FC   12                     LD   (de),a   ;write a colon after address
C8FD   13                     INC   de   
C8FE                DATADUMPLOOP:      
C8FE   3E 20                  LD   a,SPACE   ;set A = space
C900   12                     LD   (de),a   ;write a space
C901   13                     INC   de   
C902   7E                     LD   a,(hl)   ;get byte at HL
C903   CD CE C8               CALL   AToString   ;convert A to string
C906   23                     INC   hl   ;move HL to next address
C907   10 F5                  DJNZ   dataDumpLoop   ;if not zero get next byte
C909   AF                     XOR   a   ;set A = 0
C90A   12                     LD   (de),a   ;terminate string with zero
C90B   C1                     POP   bc   ;restore BC
C90C   C9                     RET      
C90D                             ; 
C90D                             ; Check start and end address difference.
C90D                             ; Input: HL = address location of START value
C90D                             ;        HL+2 = address location of END value
C90D                             ; Output: HL = start address
C90D                             ;         BC = length of end-start
C90D                             ;         Carry = set if end is less than start
C90D                             ; Destroys: DE
C90D                CHECKSTARTEND:      
C90D   5E                     LD   e,(HL)   ;move start
C90E   23                     INC   hl   ;address into DE
C90F   56                     LD   d,(HL)   ;move end
C910   23                     INC   hl   ;address into HL
C911   4E                     LD   c,(HL)   
C912   23                     INC   hl   
C913   66                     LD   h,(HL)   
C914   69                     LD   l,c   
C915   B7                     OR   a   ;clear carry
C916   ED 52                  SBC   hl,de   ;is END > START (it should be)
C918   4D                     LD   c,l   ;move byte count
C919   44                     LD   b,h   ;into BC
C91A   03                     INC   bc   ;if END < START then carry is set
C91B   EB                     EX   de,hl   ;HL is start address
C91C   C9                     RET      
C91D                             ; 
C91D                             ; Block Move generic routine.  Move a block of code between start and end
C91D                             ; to destination.
C91D                             ; NOTE: Must have COPY_START,COPY_END and COPY_DEST filled
C91D                             ; Destroys HL, DE, A, BC
C91D                BLOCKMOVE:      
C91D   21 C0 08               LD   hl,COPY_START   ;get start location
C920   CD 0D C9               CALL   checkStartEnd   ;check start < end
C923   DA 2E CC               JP   c,displayError   ;if carry is set exit and error
C926   ED 5B C4 08            LD   de,(COPY_DEST)   ;load DE with destination address
C92A   ED 52                  SBC   hl,de   ;see if destination is < or > than start
C92C   30 0B                  JR   nc,mvup   ;jump if start > destination
C92E   EB                     EX   de,hl   ;add byte count to destination
C92F   09                     ADD   hl,bc   
C930   2B                     DEC   hl   
C931   EB                     EX   de,hl   
C932   2A C2 08               LD   hl,(COPY_END)   ;get end address
C935   ED B8                  LDDR      ;copy End to Start going backwards
C937   13                     INC   de   
C938   C9                     RET      ;move done
C939                MVUP:        
C939   19                     ADD   hl,de   ;make HL the difference between start and dest
C93A   ED B0                  LDIR      ;copy Start to End going forwards
C93C   1B                     DEC   de   
C93D   C9                     RET      ;move done
C93E                BLOCKMOVEPARAMS:      
C93E   03                     DB   3   ;Three parameters
C93F   42 41 43 4B 55 50      DB   "BACKUP"   ;7seg Text
C945   3D 20 20 20 42 6C 6F 63 6B 20 42 61 63 6B 75 70 20 20 20 3D 00 DB   "=   Block Backup   =",0   ;Parameter title
C95A   53 74 61 72 74 20 41 64 64 72 65 73 73 3A 00 DB   "Start Address:",0   ;Text and Address
C969   C0 08                  DW   COPY_START   
C96B   45 6E 64 20 41 64 64 72 65 73 73 3A 00 DB   "End Address:",0   ;Text and Address
C978   C2 08                  DW   COPY_END   
C97A   44 65 73 74 2E 20 41 64 64 72 65 73 73 3A 00 DB   "Dest. Address:",0   ;Text and Address
C989   C4 08                  DW   COPY_DEST   
C98B                BLOCKCOPYPARAMS:      
C98B   03                     DB   3   ;Three parameters
C98C   53 2D 43 4F 50 59      DB   "S-COPY"   ;7seg Text
C992   3D 20 53 6D 61 72 74 20 42 6C 6F 63 6B 20 43 6F 70 79 20 3D 00 DB   "= Smart Block Copy =",0   ;Parameter title
C9A7   53 74 61 72 74 20 41 64 64 72 65 73 73 3A 00 DB   "Start Address:",0   ;Text and Address
C9B6   C0 08                  DW   COPY_START   
C9B8   45 6E 64 20 41 64 64 72 65 73 73 3A 00 DB   "End Address:",0   ;Text and Address
C9C5   C2 08                  DW   COPY_END   
C9C7   44 65 73 74 2E 20 41 64 64 72 65 73 73 3A 00 DB   "Dest. Address:",0   ;Text and Address
C9D6   C4 08                  DW   COPY_DEST   
C9D8                BLOCKRESTOREPARAMS:      
C9D8   03                     DB   3   ;Three parameters
C9D9   52 45 53 54 4F 52      DB   "RESTOR"   ;7seg Text
C9DF   3D 20 20 52 65 73 74 6F 72 65 20 42 61 63 6B 75 70 20 20 3D 00 DB   "=  Restore Backup  =",0   ;Parameter title
C9F4   53 74 61 72 74 20 41 64 64 72 65 73 73 3A 00 DB   "Start Address:",0   ;Text and Address
CA03   CC 08                  DW   REST_START   
CA05   45 6E 64 20 41 64 64 72 65 73 73 3A 00 DB   "End Address:",0   ;Text and Address
CA12   CE 08                  DW   REST_END   
CA14   44 65 73 74 2E 20 41 64 64 72 65 73 73 3A 00 DB   "Dest. Address:",0   ;Text and Address
CA23   D0 08                  DW   REST_DEST   
CA25                             ; 
CA25                             ; Move a block of code AND update all absolute jumps and calls.
CA25                             ; Destroys HL, DE, A, BC
CA25                SMARTCOPY:      
CA25   21 8B C9               LD   hl,blockCopyParams   
CA28   CD BD CF               CALL   paramDriver   ;collect parameters
CA2B                SMARTCOPYDIRECT:      
CA2B   CD 1D C9               CALL   blockMove   ;move block
CA2E   2A C4 08               LD   hl,(COPY_DEST)   ;put destination in HL
CA31   ED 5B C0 08            LD   de,(COPY_START)   ;put start in DE
CA35   B7                     OR   a   ;clear carry
CA36   ED 52                  SBC   hl,de   ;get offset from start and destination
CA38   22 CA 08               LD   (COPY_CORR),HL   ;save offset in correction
CA3B   2A C2 08               LD   hl,(COPY_END)   ;put end in HL
CA3E   ED 5B C0 08            LD   de,(COPY_START)   ;put start in DE
CA42   B7                     OR   a   ;clear carry
CA43   ED 52                  SBC   hl,de   ;get byte count between start and end
CA45   23                     INC   hl   ;correct HL to real count
CA46   ED 5B C4 08            LD   de,(COPY_DEST)   ;put destination in DE
CA4A   19                     ADD   hl,de   ;find end of destination block
CA4B   22 C8 08               LD   (COPY_EBLK),hl   ;save it
CA4E   ED 53 C6 08            LD   (COPY_PTR),de   ;save destination to pointer
CA52                CHECKINST:      
CA52   2A C6 08               LD   hl,(COPY_PTR)   ;get pointer
CA55   7E                     LD   a,(hl)   ;get instruction
CA56   CD C5 CA               CALL   getInstLen   ;get instruction length in C
CA59   79                     LD   a,c   ;get instruction count
CA5A   FE 04                  CP   4   ;is it 4 bytes long?
CA5C   20 22                  JR   nz,check3   ;no, check 3
CA5E   7E                     LD   a,(hl)   ;get instruction
CA5F   FE ED                  CP   0EDH   ;is it extended instruciton?
CA61   28 17                  JR   z,fourByteAddr   ;yes, modify address
CA63   E6 DF                  AND   0DFH   ;check fo IX
CA65   FE DD                  CP   0DDH   ;and IY
CA67   20 56                  JR   nz,nextInst   ;skip, as its something else
CA69   23                     INC   hl   ;move to second byte
CA6A   46                     LD   b,(hl)   ;get instruction
CA6B   2B                     DEC   hl   ;move back one byte
CA6C   78                     LD   a,b   ;check A
CA6D   E6 CF                  AND   0CFH   ;is it 21H?
CA6F   FE 01                  CP   01H   ; 
CA71   28 07                  JR   z,fourByteAddr   ;yes, modify address
CA73   78                     LD   a,b   ;check A
CA74   E6 E7                  AND   0E7H   ;is it 22H
CA76   FE 22                  CP   22H   ;or 2AH?
CA78   20 45                  JR   nz,nextInst   ;no, skip instruction
CA7A                FOURBYTEADDR:      
CA7A   23                     INC   hl   ;move to make 3 bytes
CA7B   22 C6 08               LD   (COPY_PTR),hl   ;save destination to pointer
CA7E   18 02                  JR   $+4   ;continue
CA80                CHECK3:      
CA80   FE 03                  CP   3   ;is it 3 bytes long?
CA82   20 3B                  JR   nz,nextInst   ;no, just get next instruction
CA84   7E                     LD   a,(hl)   ;get instruction
CA85   E6 DF                  AND   0DFH   ;check fo IX
CA87   FE DD                  CP   0DDH   ;and IY
CA89   28 34                  JR   z,nextInst   ;skip, as its something else
CA8B   7E                     LD   a,(hl)   ;get instruction
CA8C   E5                     PUSH   hl   ;store instruction
CA8D   D1                     POP   de   ;put in DE
CA8E   23                     INC   hl   ;put address
CA8F   4E                     LD   c,(hl)   ;in
CA90   23                     INC   hl   ;BC
CA91   46                     LD   b,(hl)   
CA92   2A C0 08               LD   hl,(COPY_START)   ;load HL with start address
CA95   2B                     DEC   hl   
CA96   B7                     OR   a   ;clear carry
CA97   ED 42                  SBC   hl,bc   ;get target difference
CA99   30 11                  JR   nc,targetSkip   ;jump if target is less than start
CA9B   2A C2 08               LD   hl,(COPY_END)   ;load HL with end address
CA9E   B7                     OR   a   ;clear carry
CA9F   ED 42                  SBC   hl,bc   ;get target difference
CAA1   38 09                  JR   c,targetSkip   ;jump if target is higher than end
CAA3   2A CA 08               LD   hl,(COPY_CORR)   ;get correction factor
CAA6   09                     ADD   hl,bc   ;adjust target with correction
CAA7   EB                     EX   de,hl   ;put new address in DE
CAA8   23                     INC   hl   ;and store
CAA9   73                     LD   (hl),e   ;it
CAAA   23                     INC   hl   ;back
CAAB   72                     LD   (hl),d   ;to jump/call instruction
CAAC                TARGETSKIP:      
CAAC   2A C6 08               LD   hl,(COPY_PTR)   ;get pointer
CAAF   23                     INC   hl   ;increase to next instruction
CAB0   23                     INC   hl   
CAB1   23                     INC   hl   
CAB2                ENDTEST:      
CAB2   22 C6 08               LD   (COPY_PTR),hl   ;save new pointer
CAB5   ED 5B C8 08            LD   de,(COPY_EBLK)   ;get end block
CAB9   B7                     OR   a   ;clear carry
CABA   ED 52                  SBC   hl,de   ;test for finish
CABC   38 94                  JR   c,checkInst   ;not at end, check next instruction
CABE   C9                     RET      ;end, just return
CABF                NEXTINST:      
CABF   23                     INC   hl   ;move to next byte
CAC0   0D                     DEC   c   ;until new instruction
CAC1   20 FC                  JR   nz,nextInst   
CAC3   18 ED                  JR   endTest   ;jump to end test
CAC5                             ; 
CAC5                             ; Instruction byte count routine
CAC5                             ; Input: HL = address of first op code
CAC5                             ; Return: C = instruction length
CAC5                             ;         Carry Set = instruction is a RET,JP,CALL,RST
CAC5                             ; Destroys A, B
CAC5                GETINSTLEN:      
CAC5   0E 04                  LD   c,4   ;set length to longest instruction
CAC7   7E                     LD   a,(hl)   ;put first op code in A
CAC8   23                     INC   hl   
CAC9   46                     LD   b,(hl)   ;put second op code in B
CACA   2B                     DEC   hl   ;restore HL
CACB   E6 DF                  AND   0DFH   
CACD   FE DD                  CP   0DDH   ;is it an IX/IY instruction
CACF   20 12                  JR   nz,getIns2   
CAD1   78                     LD   a,b   
CAD2   FE CB                  CP   0CBH   ;is it a IX/IY Bit instruction
CAD4   30 05                  JR   nc,getIns1   
CAD6   FE 36                  CP   36H   
CAD8   C8                     RET   z   
CAD9   FE 21                  CP   21H   
CADB                GETINS1:      
CADB   C8                     RET   z   
CADC   E6 F7                  AND   0F7H   
CADE   FE 22                  CP   22H   
CAE0   C8                     RET   z   
CAE1   18 0F                  JR   getIns3   
CAE3                GETINS2:      
CAE3   7E                     LD   a,(hl)   
CAE4   FE ED                  CP   0EDH   ;is it an Misc Instruction
CAE6   20 1F                  JR   nz,getIns4   
CAE8   78                     LD   a,b   
CAE9   E6 C7                  AND   0C7H   
CAEB   FE 43                  CP   43H   ;does it have a 2 byte address?
CAED   C8                     RET   z   
CAEE   B7                     OR   a   
CAEF   0D                     DEC   c   
CAF0   0D                     DEC   c   
CAF1   C9                     RET      
CAF2                GETINS3:      
CAF2   0D                     DEC   c   
CAF3   78                     LD   a,b   
CAF4   E6 B8                  AND   0B8H   
CAF6   FE 30                  CP   30H   
CAF8   C8                     RET   z   
CAF9   78                     LD   a,b   
CAFA   E6 06                  AND   06H   
CAFC   FE 06                  CP   06H   
CAFE   C8                     RET   z   
CAFF   0D                     DEC   c   
CB00   78                     LD   a,b   
CB01   FE E9                  CP   0E9H   
CB03   37                     SCF      
CB04   C8                     RET   z   
CB05   3F                     CCF      
CB06   C9                     RET      
CB07                GETINS4:      
CB07   0D                     DEC   c   
CB08   7E                     LD   a,(hl)   
CB09   E6 CF                  AND   0CFH   
CB0B   FE 01                  CP   01H   
CB0D   C8                     RET   z   
CB0E   7E                     LD   a,(hl)   
CB0F   E6 E7                  AND   0E7H   
CB11   FE 22                  CP   22H   
CB13   C8                     RET   z   
CB14   7E                     LD   a,(hl)   
CB15   FE C3                  CP   0C3H   
CB17   37                     SCF      
CB18   C8                     RET   z   
CB19   FE CD                  CP   0CDH   
CB1B   37                     SCF      
CB1C   C8                     RET   z   
CB1D   E6 C7                  AND   0C7H   
CB1F   FE C2                  CP   0C2H   
CB21   37                     SCF      
CB22   C8                     RET   z   
CB23   FE C4                  CP   0C4H   
CB25   37                     SCF      
CB26   C8                     RET   z   
CB27   0D                     DEC   c   
CB28   FE 06                  CP   06H   
CB2A   C8                     RET   z   
CB2B   FE C6                  CP   0C6H   
CB2D   C8                     RET   z   
CB2E   0D                     DEC   c   
CB2F   37                     SCF      
CB30   C8                     RET   z   
CB31   7E                     LD   a,(hl)   
CB32   E6 F7                  AND   0F7H   
CB34   C8                     RET   z   
CB35   0C                     INC   c   
CB36   7E                     LD   a,(hl)   
CB37   E6 E7                  AND   0E7H   
CB39   FE C3                  CP   0C3H   
CB3B   C8                     RET   z   
CB3C   E6 C7                  AND   0C7H   
CB3E   37                     SCF      
CB3F   C8                     RET   z   
CB40   0D                     DEC   c   
CB41   7E                     LD   a,(hl)   
CB42   FE E9                  CP   0E9H   
CB44   37                     SCF      
CB45   C8                     RET   z   
CB46   FE C9                  CP   0C9H   
CB48   37                     SCF      
CB49   C8                     RET   z   
CB4A   E6 C1                  AND   0C1H   
CB4C   FE C0                  CP   0C0H   
CB4E   37                     SCF      
CB4F   C8                     RET   z   
CB50   3F                     CCF      
CB51   C9                     RET      
CB52                             ; 
CB52                             ; Calculate actual disassembly address from CEL
CB52                             ; Output: HL = Disassembly start address
CB52                             ; Destroy: A,DE
CB52                             ; Updates DIS_ADDR
CB52                CALCDISADDRESS:      
CB52   2A 86 08               LD   hl,(CEL)   ;get CEL
CB55   01 F9 FF               LD   bc,0FFF9H   ;set BC = -7
CB58   09                     ADD   hl,bc   ;modify HL with offset
CB59   38 03                  JR   c,disTestLoop   ;if HL <=3 then fix HL
CB5B   21 00 00               LD   hl,0   
CB5E                DISTESTLOOP:      
CB5E   22 90 08               LD   (DIS_ADDR),hl   ;update DIS_ADDR with current HL
CB61   22 29 09               LD   (DISFROM),hl   ;Store it in the disassembler start address
CB64   CD 9B E7               CALL   disStart   ;Work out next valid from address
CB67   ED 5B 86 08            LD   de,(CEL)   ;get CEL
CB6B   EB                     EX   de,hl   ;swap HL,DE
CB6C   B7                     OR   a   
CB6D   ED 52                  SBC   hl,de   ;Calculate CEL-DISFROM
CB6F   EB                     EX   de,hl   
CB70   F2 5E CB               JP   p,disTestLoop   ;If DISFROM < CEL then
CB73   2A 90 08               LD   hl,(DIS_ADDR)   ;Store HL with previous valid disassembly address
CB76   C9                     RET      
CB77                             ; 
CB77                             ; Just move a block from A to B with no 2 byte address updates
CB77                             ; Destroys HL, DE, A, BC
CB77                DUMBCOPY:      
CB77   21 3E C9               LD   hl,blockMoveParams   
CB7A   CD BD CF               CALL   paramDriver   ;collect parameters
CB7D   C3 1D C9               JP   blockMove   ;move block
CB80                             ; 
CB80                             ; Restore from backup.  This is the reverse of the Backup or Smart Copy
CB80                             ; Start = COPY_DEST
CB80                             ; End = COPY_DEST + (COPY_END - COPY_START + 1)
CB80                             ; Dest = COPY_START
CB80                RESTOREBACKUP:      
CB80   21 C0 08               LD   hl,COPY_START   
CB83   11 D0 08               LD   de,REST_DEST   
CB86   CD CB CB               CALL   HLtoDE   
CB89   21 C4 08               LD   hl,COPY_DEST   
CB8C   11 CC 08               LD   de,REST_START   
CB8F   CD CB CB               CALL   HLtoDE   
CB92   21 C0 08               LD   hl,COPY_START   
CB95   CD 0D C9               CALL   checkStartEnd   
CB98   0B                     DEC   bc   
CB99   2A CC 08               LD   hl,(REST_START)   
CB9C   09                     ADD   hl,bc   
CB9D   22 CE 08               LD   (REST_END),hl   
CBA0   21 D8 C9               LD   hl,blockRestoreParams   
CBA3   CD BD CF               CALL   paramDriver   ;collect parameters
CBA6   21 C0 08               LD   hl,COPY_START   
CBA9   11 D2 08               LD   de,TEMP_START   
CBAC   01 06 00               LD   bc,6   
CBAF   ED B0                  LDIR      
CBB1   21 CC 08               LD   hl,REST_START   
CBB4   11 C0 08               LD   de,COPY_START   
CBB7   01 06 00               LD   bc,6   
CBBA   ED B0                  LDIR      
CBBC   CD 1D C9               CALL   blockMove   ;move block
CBBF   21 D2 08               LD   hl,TEMP_START   
CBC2   11 C0 08               LD   de,COPY_START   
CBC5   01 06 00               LD   bc,6   
CBC8   ED B0                  LDIR      
CBCA   C9                     RET      
CBCB                             ; 
CBCB                HLTODE:      
CBCB   7E                     LD   a,(hl)   
CBCC   12                     LD   (de),a   
CBCD   23                     INC   hl   
CBCE   13                     INC   de   
CBCF   7E                     LD   a,(hl)   
CBD0   12                     LD   (de),a   
CBD1   C9                     RET      
CBD2                             ; 
CBD2                             ; Fill with NOP.  Fill data range with 00h or NOP instruction
CBD2                NOPFILL:      
CBD2   21 F1 CB               LD   hl,fillRangeParams   
CBD5   CD BD CF               CALL   paramDriver   ;collect parameters
CBD8   CD 32 CE               CALL   LCDConfirm   ;this is serious mum!
CBDB   C0                     RET   nz   ;no, just exit
CBDC   21 D2 08               LD   hl,TEMP_START   ;check parameters
CBDF   CD 0D C9               CALL   checkStartEnd   ; 
CBE2   30 04                  JR   nc,doFill   ;All good, continue
CBE4   E1                     POP   hl   ;remove call return from stack
CBE5   C3 2E CC               JP   displayError   ;display error if end < start
CBE8                DOFILL:      
CBE8   54                     LD   d,h   
CBE9   5D                     LD   e,l   
CBEA   13                     INC   de   
CBEB   AF                     XOR   a   
CBEC   77                     LD   (hl),a   
CBED   0B                     DEC   bc   
CBEE   ED B0                  LDIR      
CBF0   C9                     RET      
CBF1                             ; 
CBF1                FILLRANGEPARAMS:      
CBF1   02                     DB   2   ;Three parameters
CBF2   46 49 4C 4C 20 20      DB   "FILL  "   ;7seg Text
CBF8   3D 20 20 46 69 6C 6C 20 77 69 74 68 20 4E 4F 50 73 20 20 3D 00 DB   "=  Fill with NOPs  =",0   ;Parameter title
CC0D   46 72 6F 6D 20 41 64 64 72 65 73 73 3A 00 DB   "From Address:",0   ;Text and Address
CC1B   D2 08                  DW   TEMP_START   
CC1D   54 6F 20 41 64 64 72 65 73 73 3A 00 DB   "To Address:",0   ;Text and Address
CC29   D4 08                  DW   TEMP_END   
CC2B                             ; 
CC2B                             ; 
CC2B   CD A3 C7               CALL   getToFrom   ;collect parameters
CC2E                             ; 
CC2E                             ; 
CC2E                             ; Display ERROR/PASS on the 7Segs and wait for key press
CC2E                DISPLAYERROR:      
CC2E   21 B4 D4               LD   hl,errorText   ;error text
CC31   C3 7D C8               JP   display7Segs   ;display on 7Segs and exit when key is pressed
CC34                DISPLAYPASS:      
CC34   21 AE D4               LD   hl,passText   ;pass text
CC37   C3 7D C8               JP   display7Segs   ;display on 7Segs and exit when key is pressed
CC3A                DISPLAYNOFN:      
CC3A   21 BA D4               LD   hl,noFnText   ;no function text
CC3D   C3 7D C8               JP   display7Segs   ;display on 7Segs and exit when key is pressed
CC40                             ; 
CC40                             ; Key scan routine for the Matrix Keyboard.  This routine detects up to
CC40                             ; two key presses at the same time.  Key values stored in DE
CC40                             ; Note: Must be called repetatively
CC40                             ; Input: None
CC40                             ; Output: E = Key pressed between 00H-3FH (0-64)
CC40                             ;         D = Second key, FF=no key, 00=shift, 01=Ctrl, 02=Fn
CC40                             ;         zero flag set if a key is pressed or combination valid
CC40                MATRIXSCAN:      
CC40   2E FF                  LD   l,0FFH   ;Row value accumulator. Add 8 for each ROW
CC42   11 FF FF               LD   de,0FFFFH   ;Return Values if no key is pressed
CC45   01 FE FE               LD   bc,0FEFEH   ;Port = C, A8-A15 = B. B loaded with only A8 = 0 to start.
CC48                KLINE:       
CC48   ED 78                  IN   a,(c)   ;Check data bus for Port C and high address B
CC4A   2F                     CPL      ;Invert to check for zero
CC4B   E6 FF                  AND   0FFH   ;Masking of bits would happen here, but we use all 8
CC4D   28 0B                  JR   z,kDone   ;If Zero, no key press for Address line
CC4F   67                     LD   h,a   ;Save key(s) pressed data in H
CC50   7D                     LD   a,l   ;Load A with the current ROW count*8
CC51                KBITS:       
CC51   3C                     INC   a   ;Add one until data bit found
CC52   CB 3C                  SRL   h   ;Shift H right until bit is detected
CC54   30 FB                  JR   nc,kBits   ;If Carry is not set, shift again
CC56   53                     LD   d,e   ;Load first key detected into D
CC57   5F                     LD   e,a   ;Store key detected
CC58   20 F7                  JR   nz,kBits   ;Keep going until all bits are checked.
CC5A                KDONE:       
CC5A   3E 08                  LD   a,8   ; 
CC5C   85                     ADD   a,l   ;Increase L by 8 for each ROW checked
CC5D   6F                     LD   l,a   
CC5E   CB 00                  RLC   b   ;Move to next address line
CC60   38 E6                  JR   c,kLine   ;if more address lines needed repeat key check
CC62                             ; 
CC62   7B                     LD   a,e   ;Check for any key press
CC63   FE 40                  CP   40H   ;Is it a valid key?
CC65   D0                     RET   nc   ;No, exit with Zero flag false
CC66                             ; 
CC66   7A                     LD   a,d   ;Check if 1 or two key pressed
CC67   3C                     INC   a   
CC68   C8                     RET   z   ;If one key exit, D=FF, E=key
CC69                             ;Check for Shift/Ctrl/Fn keys pressed
CC69   3D                     DEC   a   
CC6A   C8                     RET   z   ;Exit zero if Shift pressed
CC6B   3D                     DEC   a   
CC6C   C8                     RET   z   ;Exit zero if Control pressed
CC6D   3D                     DEC   a   
CC6E   C9                     RET      ;Exit zero if Function pressed or non zero for anything else
CC6F                             ; 
CC6F                             ; Joystick port scan routines.  This routine will return a value based on the
CC6F                             ; movement / button of the joystick or any combination: IE: UP+DOWN = 03H
CC6F                             ; Note: Must be called repetatively
CC6F                             ; Input: None
CC6F                             ; Output: A = Joystick return value between 00H-5FH (0-95)
CC6F                             ;       01H = Up        10H = Fire 2
CC6F                             ;       02H = Down      20H = Comm2 (Pin 9)
CC6F                             ;       04H = Left      40H = Fire 1
CC6F                             ;       08H = Right     80H = Fire 3
CC6F                             ;         zero flag set if no joystick value returned
CC6F                             ; Destroy: none
CC6F                JOYSTICKSCAN:      
CC6F   C5                     PUSH   bc   ;save BC
CC70   01 FE F7               LD   bc,0F7FEH   ;Port = FE, B is only loaded with A11 = 0 (Joystick Line)
CC73   ED 78                  IN   a,(c)   ;read joystick port
CC75   2F                     CPL      ;Invert to check for zero
CC76   E6 FF                  AND   0FFH   ;Mask and set zero flag if A=0
CC78   C1                     POP   bc   ;restore BC
CC79   C9                     RET      ;Exit with A set and Zero flag
CC7A                             ; 
CC7A                             ; Breakpoint Entry.  Display flags and most registers on the LCD Screen.
CC7A                             ; Press GO to continue executing, AD to do a soft reset.  Entry to this
CC7A                             ; routine can be done by RST 30H or 0F7H
CC7A                BREAKPOINT:      
CC7A   CD 1D CD               CALL   saveRegisters   ;save all current registers to BP stack
CC7D   CD 65 CD               CALL   saveLCD   ;save contents of DDRAM into RAM
CC80   06 01                  LD   b,01H   ;clear LCD
CC82   CD 9C C5               CALL   commandToLCD   ;update LCD
CC85                             ; display register text on LCD
CC85   11 E6 D4               LD   de,breakPointRows   ;LCD row table
CC88   21 C6 D4               LD   hl,breakPointRegs   ;LCD resgister text
CC8B   0E 08                  LD   c,8   ;eight registers
CC8D                BPTEXT:      
CC8D   1A                     LD   a,(de)   ;get row position
CC8E   47                     LD   b,a   ;move to B
CC8F   CD 9C C5               CALL   commandToLCD   ;update LCD
CC92   13                     INC   de   
CC93   CD 83 C5               CALL   stringToLCD   ;output text (HL) to LCD
CC96   0D                     DEC   c   ;next register
CC97   20 F4                  JR   nz,bpText   ;repeat for all 8 registers
CC99                             ; 
CC99                             ;display register values next to text
CC99                BPDATA:      
CC99   11 E6 D4               LD   de,breakPointRows   ;LCD row table
CC9C   21 00 09               LD   hl,BP_BASE_SP   ;register memory location
CC9F   0E 06                  LD   c,6   ;six registers
CCA1   CD F8 CC               CALL   bpPrintData   
CCA4   21 14 09               LD   hl,BP_PC   ;start at PC
CCA7   0E 02                  LD   c,2   ;two registers
CCA9   CD F8 CC               CALL   bpPrintData   
CCAC                             ; 
CCAC                             ;display flags
CCAC   3A 00 09               LD   a,(BP_BASE_SP)   ;register AF
CCAF   4F                     LD   c,a   
CCB0   11 F6 D4               LD   de,breakPointFlagRows   
CCB3   21 EE D4               LD   hl,breakPointFlags   
CCB6                BPFLAGROW:      
CCB6   1A                     LD   a,(de)   
CCB7   B7                     OR   a   
CCB8   28 16                  JR   z,bpQuery   ;No more, go to key query
CCBA   47                     LD   b,a   ;move to B
CCBB   CD 9C C5               CALL   commandToLCD   ;update LCD
CCBE   13                     INC   de   
CCBF   06 02                  LD   b,2   ;two flags
CCC1                BPFLAGCOL:      
CCC1   7E                     LD   a,(hl)   
CCC2   23                     INC   HL   
CCC3   CB 01                  RLC   c   
CCC5   38 02                  JR   c,$+4   ;Skip lower case
CCC7   C6 20                  ADD   a,20H   ;Make lowercase
CCC9   CD 98 C5               CALL   charToLCD   ;send character to LCD
CCCC   10 F3                  DJNZ   bpFlagCol   
CCCE   18 E6                  JR   bpFlagRow   
CCD0                             ; 
CCD0                             ;handle keypress and exit. GO = continue, AD = Exit
CCD0                BPQUERY:      
CCD0   11 C0 D4               LD   de,breakText   ;set display buffer to Breakpoint display
CCD3   CD 6B C5               CALL   scanSegments   ;Multiplex the seven segments
CCD6   DB 03                  IN   a,(SYS_INPUT)   ;Get System input
CCD8   E6 20                  AND   20H   ;check if GIMP is set
CCDA   20 0B                  JR   nz,bpNoStop   ;simulate GO pressed
CCDC   CD D1 C5               CALL   scanKeys   ;Scan for key press
CCDF   20 EF                  JR   nz,bpQuery   ;Repeat scan until key pressed
CCE1   30 ED                  JR   nc,bpQuery   ;Skip if not new key
CCE3   FE 12                  CP   K_GO   ;is key GO
CCE5   20 07                  JR   nz,$+9   ;No, check if AD key pressed
CCE7                BPNOSTOP:      
CCE7   CD 82 CD               CALL   restoreLCD   ;restore content of LCD from RAM
CCEA   CD 49 CD               CALL   restoreRegisters   ;clean up stack and exit back to code execution
CCED   C9                     RET      ;return back to last execution location
CCEE   FE 13                  CP   K_ADDR   ;is it the AD key (Exit back to monitor)
CCF0   20 DE                  JR   nz,bpQuery   ;no, keep scanning
CCF2   31 80 08               LD   sp,STACK_TOP   ;reset the Hardware Stack to top of stack in RAM
CCF5   C3 09 C2               JP   softBoot   ;just do a softboot and exit
CCF8                             ; 
CCF8                BPPRINTDATA:      
CCF8   1A                     LD   a,(de)   ;get row position
CCF9   C6 03                  ADD   a,3   ;move three to the right
CCFB   47                     LD   b,a   ;move to B
CCFC   CD 9C C5               CALL   commandToLCD   ;update LCD
CCFF   13                     INC   de   ;move to next postion
CD00   D5                     PUSH   de   ;save DE
CD01   EB                     EX   de,hl   
CD02   06 02                  LD   b,2   
CD04   13                     INC   de   
CD05                BPDATAOUT:      
CD05   1A                     LD   a,(de)   
CD06   CD E2 C8               CALL   regAToASCII   
CD09   7C                     LD   a,h   
CD0A   CD 98 C5               CALL   charToLCD   ;send character to LCD
CD0D   7D                     LD   a,l   
CD0E   CD 98 C5               CALL   charToLCD   ;send character to LCD
CD11   1B                     DEC   de   
CD12   10 F1                  DJNZ   bpDataOut   
CD14   13                     INC   de   
CD15   13                     INC   de   
CD16   13                     INC   de   
CD17   EB                     EX   de,hl   
CD18   D1                     POP   de   
CD19   0D                     DEC   c   
CD1A   20 DC                  JR   nz,bpPrintData   
CD1C   C9                     RET      
CD1D                             ; 
CD1D                             ; Save registers to Break Point stack.  Registers are saved in memory in
CD1D                             ; this order: AF,HL,BC,DE,IX,IY,AF",HL",BC",DE",PC,SP
CD1D                             ; Input: none
CD1D                             ; Destroys: nothing
CD1D                             ; Note: need to set BP_PC prior to calling this routine to set actual program counter
CD1D                             ; Routine is to be called from previous CALL to get Actual SP. SP=SP-4.
CD1D                             ; IE: Actual Code > RST 30H > saveRegisters. 
CD1D                SAVEREGISTERS:      
CD1D   22 02 09               LD   (BP_HL),hl   ;save HL first so to use HL in routine
CD20   F5                     PUSH   af   ;store AF
CD21   E1                     POP   hl   ;HL = AF
CD22   22 00 09               LD   (BP_BASE_SP),hl   ;save AF as flags get corrupt below
CD25   21 04 00               LD   hl,4   ;set HL to calling SP
CD28   39                     ADD   hl,sp   ;HL = SP+4
CD29   22 16 09               LD   (BP_ORIG_SP),hl   ;save actual SP
CD2C   31 14 09               LD   sp,BP_REGS   ;set SP to use Break Point stack
CD2F   08                     EX   af,af'   ;start saving registers
CD30   D9                     EXX      
CD31   D5                     PUSH   de   
CD32   C5                     PUSH   bc   
CD33   E5                     PUSH   hl   
CD34   F5                     PUSH   af   
CD35   08                     EX   af,af'   
CD36   D9                     EXX      
CD37   FD E5                  PUSH   iy   
CD39   DD E5                  PUSH   ix   
CD3B   D5                     PUSH   de   
CD3C   C5                     PUSH   bc   
CD3D   2A 02 09               LD   hl,(BP_HL)   ;restore original hl
CD40   ED 7B 16 09            LD   sp,(BP_ORIG_SP)   ;restore hardware stack
CD44   3B                     DEC   sp   ;to 
CD45   3B                     DEC   sp   ;acutal 
CD46   3B                     DEC   sp   ;position prior
CD47   3B                     DEC   sp   ;to calling this routine
CD48   C9                     RET      
CD49                             ; 
CD49                             ; Restore registers.  Replace CPU registers with values stored in the BreakPoint buffer
CD49                             ; A call to saveRegisters is to be called prior
CD49                             ; Input: none
CD49                             ; Output: Updates registers AF,HL,BC,DE,IX,IY,AF",HL",BC" and DE"
CD49                RESTOREREGISTERS:      
CD49   ED 73 16 09            LD   (BP_ORIG_SP),sp   
CD4D   31 00 09               LD   sp,BP_BASE_SP   
CD50   F1                     POP   af   
CD51   E1                     POP   hl   
CD52   C1                     POP   bc   
CD53   D1                     POP   de   
CD54   DD E1                  POP   ix   
CD56   FD E1                  POP   iy   
CD58   08                     EX   af,af'   
CD59   D9                     EXX      
CD5A   F1                     POP   af   
CD5B   E1                     POP   hl   
CD5C   C1                     POP   bc   
CD5D   D1                     POP   de   
CD5E   08                     EX   af,af'   
CD5F   D9                     EXX      
CD60   ED 7B 16 09            LD   sp,(BP_ORIG_SP)   
CD64   C9                     RET      
CD65                             ; 
CD65                             ; Save LCD screen contents.  Copy LCD DDRAM contents to RAM location BP_LCD.  
CD65                             ; Input: none
CD65                             ; Output: Writes 80 bytes (20x4) of LCD DDRAM to BP_LCD address (08B8H-0908H)
CD65                             ; Destroys: A, BC, HL
CD65                SAVELCD:      
CD65   06 80                  LD   b,LCD_ROW1   ;Set DDRAM address counter to Row 1
CD67   CD 9C C5               CALL   commandToLCD   ;Send instruction to LCD
CD6A   21 18 09               LD   hl,BP_LCD   ;set HL to LCD RAM location
CD6D   01 84 28               LD   bc,40*100H+LCD_DATA   ;40 bytes to read, Port LCD_DATA
CD70   EF                     RST   28H   ;ensure LCD isn't busy
CD71   ED A2                  INI      ;read port C, into (HL), inc HL, dec B
CD73   20 FB                  JR   nz,$-3   ;Do unitl B=0
CD75                             ; 
CD75   06 C0                  LD   b,LCD_ROW2   ;Set DDRAM address counter to Row 2
CD77   CD 9C C5               CALL   commandToLCD   ;Send instruction to LCD
CD7A   06 28                  LD   b,40   ;40 bytes to read
CD7C   EF                     RST   28H   ;ensure LCD isn't busy
CD7D   ED A2                  INI      ;read port C, into (HL), inc HL, dec B
CD7F   20 FB                  JR   nz,$-3   ;Do unitl B=0
CD81   C9                     RET      
CD82                             ; 
CD82                             ; Restore LCD screen contents.  Copy RAM location BP_LCD to LCD DDRAM
CD82                             ; A call to saveLCD is to be called prior
CD82                             ; Input: none
CD82                             ; Output: Updates LCD with values at BP_LCD (08B8H-0908H)
CD82                             ; Destroys: A, BC, HL
CD82                RESTORELCD:      
CD82   06 80                  LD   b,LCD_ROW1   ;Set DDRAM address counter to Row 1
CD84   CD 9C C5               CALL   commandToLCD   ;Send instruction to LCD
CD87   21 18 09               LD   hl,BP_LCD   ;set HL to LCD RAM location
CD8A   01 84 28               LD   bc,40*100H+LCD_DATA   ;40 bytes to read, Port LCD_DATA
CD8D   EF                     RST   28H   ;ensure LCD isn't busy
CD8E   ED A3                  OUTI      ;write to port C, from (HL), inc HL, dec B
CD90   20 FB                  JR   nz,$-3   ;Do unitl B=0
CD92                             ; 
CD92   06 C0                  LD   b,LCD_ROW2   ;Set DDRAM address counter to Row 2
CD94   CD 9C C5               CALL   commandToLCD   ;Send instruction to LCD
CD97   06 28                  LD   b,40   ;40 bytes to read
CD99   EF                     RST   28H   ;ensure LCD isn't busy
CD9A   ED A3                  OUTI      ;write to port C, from (HL), inc HL, dec B
CD9C   20 FB                  JR   nz,$-3   ;Do unitl B=0
CD9E   C9                     RET      
CD9F                             ; 
CD9F                             ; Set the address of a Quick Jump CEL
CD9F                             ; Input: none
CD9F                             ; Destroys: All
CD9F                SETCELQUICKJUMP:      
CD9F   CD 0C C5               CALL   beep   ;beep the speaker bit
CDA2   06 01                  LD   b,01H   ;clear LCD
CDA4   CD 9C C5               CALL   commandToLCD   ;update LCD
CDA7   21 FB D4               LD   hl,CELJumpText   ;point to CEL Jump text
CDAA   CD 83 C5               CALL   stringToLCD   ;write text
CDAD   06 C9                  LD   b,0C9H   ;set cursor to Row 2,Col 9
CDAF   CD 9C C5               CALL   commandToLCD   ;update LCD
CDB2   21 10 D5               LD   hl,CELHelpText   ;point to CEL Help text
CDB5   CD 83 C5               CALL   stringToLCD   ;write text
CDB8   0E 03                  LD   c,3   ;three values
CDBA   11 1E D4               LD   de,LCDBaseRows+3   ;set de to last row
CDBD   21 A7 08               LD   hl,CEL_QJMP+5   ;move to last entry
CDC0                PRINTCELROW:      
CDC0   1A                     LD   a,(de)   ;get column
CDC1   47                     LD   b,a   ;set B as LCD row
CDC2   CD 9C C5               CALL   commandToLCD   ;update LCD
CDC5   79                     LD   a,c   ;get location value
CDC6   C6 30                  ADD   a,30H   ;adjust for ascii
CDC8   CD 98 C5               CALL   charToLCD   ;send character to LCD
CDCB   3E 3A                  LD   a,COLON   
CDCD   CD 98 C5               CALL   charToLCD   ;send character to LCD
CDD0   06 02                  LD   b,2   ;two nibbles
CDD2                PRINTHL:      
CDD2   E5                     PUSH   hl   ;save CEL jump table
CDD3   7E                     LD   a,(hl)   ;get nibble
CDD4   CD E2 C8               CALL   regAToASCII   
CDD7   7C                     LD   a,h   
CDD8   CD 98 C5               CALL   charToLCD   ;send character to LCD
CDDB   7D                     LD   a,l   
CDDC   CD 98 C5               CALL   charToLCD   ;send character to LCD
CDDF   E1                     POP   hl   ;restore CEL jump table
CDE0   2B                     DEC   hl   ;move to next nibble
CDE1   10 EF                  DJNZ   printHL   
CDE3   1B                     DEC   de   ;move to next column
CDE4   0D                     DEC   c   ;move to next location
CDE5   20 D9                  JR   nz,printCELRow   ;do next row
CDE7                             ; LCD displayed, now get key
CDE7                CELKEYPRESS:      
CDE7   CF                     RST   08H   ;get key and wait
CDE8   FE 13                  CP   K_ADDR   ;is it address?
CDEA   C8                     RET   z   ;yes, just exit
CDEB   3D                     DEC   a   ;adjust key for index
CDEC   FE 03                  CP   3   ;check for range 0-2
CDEE   30 F7                  JR   nc,CELKeyPress   ;loop again until 1-3,AD is pressed
CDF0   21 86 08               LD   hl,CEL   ;get CEL
CDF3   11 A2 08               LD   de,CEL_QJMP   ;point to table
CDF6                QJMPTOCEL:      
CDF6   87                     ADD   a,a   ;double for index
CDF7   83                     ADD   a,e   ;index it
CDF8   5F                     LD   e,a   
CDF9   01 02 00               LD   bc,2   ;two bytes
CDFC   ED B0                  LDIR      
CDFE                             ; Check for RTC installed
CDFE   3A 88 08               LD   a,(MCB)   ;get MCB
CE01   E6 40                  AND   MCB_RTC   ;is bit 6 set?
CE03   C8                     RET   z   ;no just exit
CE04   1B                     DEC   de   
CE05   1B                     DEC   de   
CE06   EB                     EX   de,hl   ;reset QJMP address and make it HL
CE07   7D                     LD   a,l   
CE08   D6 A2                  SUB   0A2H   ;take base off to get RTC slot
CE0A   CD 86 CE               CALL   RTCSetPRAM   ;save it to RTC
CE0D   C9                     RET      
CE0E                             ; 
CE0E                GETCELQUICKJUMP:      
CE0E   11 86 08               LD   de,CEL   ;get CEL
CE11   21 A2 08               LD   hl,CEL_QJMP   ;point to table
CE14                             ;reg c=key
CE14   79                     LD   a,c   ;get key pressed
CE15   3D                     DEC   a   ;adjust for index
CE16   87                     ADD   a,a   ;double for index
CE17   85                     ADD   a,l   ;index it
CE18   6F                     LD   l,a   
CE19   7E                     LD   a,(hl)   ;hl = (hl)
CE1A   23                     INC   hl   
CE1B   66                     LD   h,(hl)   
CE1C   6F                     LD   l,a   
CE1D   22 86 08               LD   (CEL),hl   
CE20   C3 01 C5               JP   setDataBase   ;set the DATA_BASE variable
CE23                             ; 
CE23                             ; Serial Enable.  Sets the TX line to high ready for serial transfer
CE23                             ; Input: none
CE23                             ; Destroys: A
CE23                SERIALENABLE:      
CE23   3E 40                  LD   a,40H   ;Serial TX bit
CE25   D3 01                  OUT   (DIGITS),a   ;Set it high
CE27   3E 44                  LD   a,44H   ;Set Tri colour LEDs to Disco Blue
CE29   D3 02                  OUT   (SEGS),a   ;output it
CE2B   C9                     RET      
CE2C                             ; 
CE2C                             ; Serial Disable.  Sets the TX line to low disabling serial transfer
CE2C                             ; Input: none
CE2C                             ; Destroys: A
CE2C                SERIALDISABLE:      
CE2C   AF                     XOR   a   ;clear A
CE2D   D3 01                  OUT   (DIGITS),a   ;Set it segment display off
CE2F   D3 02                  OUT   (SEGS),a   ;Clear segment leds
CE31   C9                     RET      
CE32                             ; 
CE32                             ; Confirmation LCD Question.  Press "C" to confirm or any other key to not confirm
CE32                             ; Input: none
CE32                             ; Return: Zero Flag Set === Confirmed
CE32                LCDCONFIRM:      
CE32   21 3C D5               LD   hl,confirmText   
CE35   06 01                  LD   b,01H   ;clear LCD instruction
CE37   CD 9C C5               CALL   commandToLCD   ;update LCD
CE3A   CD 83 C5               CALL   stringToLCD   ;Display Message on LCD
CE3D   CF                     RST   08H   ;get key and wait
CE3E   FE 0C                  CP   0CH   ;is it C? Set Zero Flag
CE40   C9                     RET      
CE41                             ; 
CE41                             ; Real Time Clock (RTC) Routines
CE41                             ; ------------------------------
CE41                             ; 
CE41                             ; Nicely reset RTC PRAM by asking the question first!
CE41                RTCRESET:      
CE41   CD 32 CE               CALL   LCDConfirm   ;check before proceding TISM
CE44   C0                     RET   nz   ;no, just exit
CE45                             ;fall through to next routine
CE45                             ; 
CE45                             ; Reset Mon3 RTC PRAM data to default values.
CE45                             ; Input: none
CE45                             ; Destroys: none
CE45                RESETRTCPRAM:      
CE45   CD B8 FA               CALL   resetDS1302   ;Reset RTC Time/Date to start it off
CE48   01 00 08               LD   bc,0800H   ;B=eight 2 byte addresses, C=slot 0
CE4B   21 00 40               LD   hl,USER_ADDR   ;default to 4000H
CE4E                RTCRESETLOOP1:      
CE4E   51                     LD   d,c   ;load slot
CE4F   5D                     LD   e,l   ;load LSB
CE50   CD 46 FC               CALL   writeRTCByte   ; 
CE53   0C                     INC   c   ;next slot
CE54   51                     LD   d,c   ;load slot
CE55   5C                     LD   e,h   ;load MSB
CE56   CD 46 FC               CALL   writeRTCByte   ; 
CE59   0C                     INC   c   ;next slot
CE5A   3E 0C                  LD   a,0CH   ;are we on slot 12?
CE5C   B9                     CP   c   ;yes, check if slot 12
CE5D   20 03                  JR   nz,$+5   ;no, ignore
CE5F   21 1B 00               LD   hl,BAUD_4800   ;set baud rate to 4800
CE62   3E 0E                  LD   a,0EH   ;are we on slot 14?
CE64   B9                     CP   c   ;yes, check if slot 14
CE65   20 03                  JR   nz,$+5   ;no, ignore
CE67   21 00 00               LD   hl,0000h   ;set beep and auto address inc to on
CE6A   10 E2                  DJNZ   RTCResetLoop1   
CE6C   CD 97 CE               CALL   RTCfillRAM   ;fill RTC PRAM to Mon3 Ram
CE6F                             ; 
CE6F                             ;get checksum
CE6F                RTCSAVECHECKSUM:      
CE6F   CD 30 FF               CALL   getRTCChecksum   ;get new checksum
CE72   16 1E                  LD   d,30   ;load slot 30
CE74   5F                     LD   e,a   ;load with new checksum
CE75   C3 46 FC               JP   writeRTCByte   ;save checksum
CE78                             ; 
CE78                             ; Get two byte value from PRAM
CE78                             ; Input: A = first slot value
CE78                             ; Output: HL = two byte value where L=slot, H=slot+1
CE78                RTCGETPRAM:      
CE78   F5                     PUSH   af   
CE79   57                     LD   d,a   
CE7A   CD 37 FC               CALL   readRTCByte   
CE7D   6F                     LD   l,a   
CE7E   F1                     POP   af   
CE7F   3C                     INC   a   
CE80   57                     LD   d,a   
CE81   CD 37 FC               CALL   readRTCByte   
CE84   67                     LD   h,a   
CE85   C9                     RET      
CE86                             ; 
CE86                             ; Set two byte value to PRAM
CE86                             ; Input: A = first slot value
CE86                             ;        HL = address of value to write to
CE86                RTCSETPRAM:      
CE86   F5                     PUSH   af   
CE87   57                     LD   d,a   
CE88   5E                     LD   e,(hl)   
CE89   CD 46 FC               CALL   writeRTCByte   
CE8C   F1                     POP   af   
CE8D   23                     INC   hl   
CE8E   3C                     INC   a   
CE8F   57                     LD   d,a   
CE90   5E                     LD   e,(hl)   
CE91   CD 46 FC               CALL   writeRTCByte   
CE94   C3 6F CE               JP   RTCSaveChecksum   
CE97                             ; 
CE97                             ; Copy the RTC PRAM to Mon3 RAM locations
CE97                RTCFILLRAM:      
CE97                             ;Set CEL Jump Table from PRAM (Ugly code here!!)
CE97   3E 00                  LD   a,0   ;get 1st slot
CE99   CD 78 CE               CALL   RTCGetPRAM   
CE9C   22 A2 08               LD   (CEL_QJMP),hl   
CE9F   3E 02                  LD   a,2   ;get 3rd slot
CEA1   CD 78 CE               CALL   RTCGetPRAM   
CEA4   22 A4 08               LD   (CEL_QJMP+2),hl   
CEA7   3E 04                  LD   a,4   ;get 5th slot
CEA9   CD 78 CE               CALL   RTCGetPRAM   
CEAC   22 A6 08               LD   (CEL_QJMP+4),hl   
CEAF                             ;Set Copy/To/Dest from PRAM
CEAF   3E 06                  LD   a,6   ;get 7th slot
CEB1   CD 78 CE               CALL   RTCGetPRAM   
CEB4   22 C0 08               LD   (COPY_START),hl   
CEB7   3E 08                  LD   a,8   ;get 9th slot
CEB9   CD 78 CE               CALL   RTCGetPRAM   
CEBC   22 C2 08               LD   (COPY_END),hl   
CEBF   3E 0A                  LD   a,10   ;get 11th slot
CEC1   CD 78 CE               CALL   RTCGetPRAM   
CEC4   22 C4 08               LD   (COPY_DEST),hl   
CEC7   3E 0C                  LD   a,12   ;get 13th slot
CEC9   CD 78 CE               CALL   RTCGetPRAM   
CECC   22 B1 08               LD   (BAUD),hl   
CECF   3E 0E                  LD   a,14   ;get 15th slot
CED1   CD 78 CE               CALL   RTCGetPRAM   
CED4   7C                     LD   a,h   
CED5   32 8D 08               LD   (KEY_BEEP),a   
CED8   7D                     LD   a,l   
CED9   32 8C 08               LD   (KEY_AUTO),a   
CEDC   C9                     RET      
CEDD                             ; 
CEDD                             ; Menu Initialise.  Set a custom user menu on the LCD. 
CEDD                             ; Input: HL = Pointer to Menu configuration.
CEDD                             ; Destroys: A, HL
CEDD                MENUINIT:      
CEDD   CD F7 CE               CALL   menuReset   ;reset menu variables
CEE0   D5                     PUSH   de   ;store DE
CEE1   3A 9B 08               LD   a,(MENU_IDX)   ;get menu index
CEE4   3C                     INC   a   ;move to next index
CEE5   E6 03                  AND   03H   ;reset to 0 if 4
CEE7   32 9B 08               LD   (MENU_IDX),a   ;save it
CEEA   87                     ADD   a,a   ;double it
CEEB   11 A8 08               LD   de,MENU_CFG_D   ;get config depth table
CEEE   83                     ADD   a,e   ;index table
CEEF   5F                     LD   e,a   ;to index postion
CEF0   7D                     LD   a,l   ;(DE) = HL
CEF1   12                     LD   (de),a   
CEF2   13                     INC   de   
CEF3   7C                     LD   a,h   
CEF4   12                     LD   (de),a   
CEF5   D1                     POP   de   ;restore DE
CEF6   C9                     RET      
CEF7                             ; 
CEF7                             ; Reset the menu variables for setting up a new menu
CEF7                             ; Input: HL = Pointer to Menu configuration.
CEF7                             ; Destroys: A
CEF7                MENURESET:      
CEF7   AF                     XOR   a   ;clear A
CEF8   32 96 08               LD   (MENU_POS),a   ;set menu position to first
CEFB   32 97 08               LD   (MENU_SEL),a   ;set first item to be selected
CEFE   7E                     LD   a,(hl)   ;get menu count
CEFF   32 98 08               LD   (MENU_CNT),a   ;save menu count
CF02   22 99 08               LD   (MENU_CFG),hl   ;store new menu configuration
CF05   C9                     RET      
CF06                             ; 
CF06                             ; Revert the menu to the previous one if any.
CF06                             ; Input: none
CF06                             ; Destroy: A
CF06                MENUPOP:      
CF06   3A 9B 08               LD   a,(MENU_IDX)   ;get current menu index
CF09   3D                     DEC   a   ;reduce by one
CF0A   32 9B 08               LD   (MENU_IDX),a   ;save it back
CF0D   FA 65 C6               JP   m,switchMode   ;if a < 0, switch to Data mode and return
CF10   87                     ADD   a,a   ;double it
CF11   E5                     PUSH   hl   ;save HL
CF12   21 A8 08               LD   hl,MENU_CFG_D   ;get config depth table
CF15   85                     ADD   a,l   ;index table
CF16   6F                     LD   l,a   ;to index postion
CF17   7E                     LD   a,(hl)   ;get low byte
CF18   23                     INC   hl   
CF19   66                     LD   h,(hl)   ;get high byte
CF1A   6F                     LD   l,a   ;make HL = (HL)
CF1B   CD F7 CE               CALL   menuReset   ;reset menu to new menu
CF1E   E1                     POP   hl   ;restore HL
CF1F   C9                     RET      
CF20                             ; 
CF20                             ; Menu Draw routine.  Title, then menu items from MENU_POS
CF20                MENUDRAW:      
CF20   06 01                  LD   b,01H   ;clear LCD instruction
CF22   CD 9C C5               CALL   commandToLCD   ;update LCD
CF25   2A 99 08               LD   hl,(MENU_CFG)   ;load menu config
CF28   23                     INC   hl   ;move to seven segment text
CF29                             ;set segment text
CF29   11 80 08               LD   de,DISP_BUFF   ;store in Monitor 7seg Buffer
CF2C   06 06                  LD   b,6   
CF2E                LCDSEGLOOP:      
CF2E   7E                     LD   a,(hl)   
CF2F   CD 79 C6               CALL   ASCIItoSegment   ;convert A to segment code
CF32   12                     LD   (de),a   
CF33   23                     INC   hl   
CF34   13                     INC   de   
CF35   10 F7                  DJNZ   LCDSegLoop   
CF37                             ;HL is now at menu title
CF37   CD 83 C5               CALL   stringToLCD   ;send Title to LCD
CF3A   3A 96 08               LD   a,(MENU_POS)   ;get current menu selection
CF3D   CD 9A CF               CALL   menuIndex   ;set HL to menu config at index A
CF40   0E 03                  LD   c,3   ;three rows
CF42   3A 98 08               LD   a,(MENU_CNT)   ;get menu count
CF45   B9                     CP   c   ;is it 3 or less?
CF46   30 01                  JR   nc,$+3   ;yes, skip setting b=count
CF48   4F                     LD   c,a   ;set rows to max count
CF49   11 1C D4               LD   de,LCDBaseRows+1   ;LCD rows 2,3,4
CF4C                DRAWLOOP:      
CF4C   1A                     LD   a,(de)   ;get row value
CF4D   47                     LD   b,a   ;set B as LCD row
CF4E   04                     INC   b   ;move one to the right
CF4F   CD 9C C5               CALL   commandToLCD   ;update LCD
CF52   CD 83 C5               CALL   stringToLCD   ;write menu item
CF55   3A 88 08               LD   a,(MCB)   ;get MCB
CF58   E6 20                  AND   MCB_MEN_PAR   ;check to see if menu or parameter structure
CF5A   28 21                  JR   z,drawHLSkip   ;menu so skip HL draw
CF5C   1A                     LD   a,(de)   ;get row value
CF5D   C6 10                  ADD   a,16   ;right justify
CF5F   47                     LD   b,a   ;set B as LCD row/column
CF60   CD 9C C5               CALL   commandToLCD   ;update LCD                
CF63   E5                     PUSH   hl   ;save HL
CF64   7E                     LD   a,(hl)   ;store ram
CF65   23                     INC   hl   ;address
CF66   66                     LD   h,(hl)   ;back into
CF67   6F                     LD   l,a   ;HL
CF68   23                     INC   hl   ;move to high byte
CF69   06 02                  LD   b,2   ;type bytes
CF6B                DRAWHL:      
CF6B   7E                     LD   a,(hl)   ;get byte
CF6C   E5                     PUSH   hl   ;save HL
CF6D   CD E2 C8               CALL   regAToASCII   
CF70   7C                     LD   a,h   
CF71   CD 98 C5               CALL   charToLCD   ;send character to LCD
CF74   7D                     LD   a,l   
CF75   CD 98 C5               CALL   charToLCD   ;send character to LCD
CF78   E1                     POP   hl   ;restore HL
CF79   2B                     DEC   hl   ;move to low byte
CF7A   10 EF                  DJNZ   drawHL   ;do next byte
CF7C   E1                     POP   hl   ;restore HL
CF7D                DRAWHLSKIP:      
CF7D   23                     INC   hl   ;skip jump
CF7E   23                     INC   hl   
CF7F   13                     INC   de   ;move to next row
CF80   0D                     DEC   c   ;get next row
CF81   20 C9                  JR   nz,drawLoop   ;if any
CF83                             ;draw pointer
CF83   3A 96 08               LD   a,(MENU_POS)   ;get menu text pos
CF86   47                     LD   b,a   
CF87   3A 97 08               LD   a,(MENU_SEL)   ;get selection
CF8A   90                     SUB   b   ;A = 0,1 or 2
CF8B   11 1C D4               LD   de,LCDBaseRows+1   ;LCD rows 2,3,4
CF8E   83                     ADD   a,e   ;index DE (same page!)
CF8F   5F                     LD   e,a   
CF90   1A                     LD   a,(de)   ;get row index
CF91   47                     LD   b,a   
CF92   CD 9C C5               CALL   commandToLCD   ;update LCD
CF95   3E 7E                  LD   a,MENU_PTR   ;display ->
CF97   C3 98 C5               JP   charToLCD   ;display it and exit
CF9A                             ; 
CF9A                             ; Index menu configuration with A
CF9A                             ; Input: A = index
CF9A                             ; Output: HL = position of menu entry text.
CF9A                MENUINDEX:      
CF9A   47                     LD   b,a   ;save index
CF9B   2A 99 08               LD   hl,(MENU_CFG)   ;get configuration
CF9E   7E                     LD   a,(hl)   ;skip menu title and 7seg/count data (can't be zero)
CF9F   23                     INC   hl   
CFA0   B7                     OR   a   ;is it zero
CFA1   20 FB                  JR   nz,$-3   ;repeat until zero found
CFA3   78                     LD   a,b   ;is index zero?
CFA4   B7                     OR   a   ;yes
CFA5   C8                     RET   z   ;HL in correct spot
CFA6                INDEXLOOP:      
CFA6   7E                     LD   a,(hl)   ;skip menu entry
CFA7   23                     INC   hl   
CFA8   B7                     OR   a   ;is it zero
CFA9   20 FB                  JR   nz,$-3   ;repeat until zero found
CFAB   23                     INC   hl   ;move to next menu entry
CFAC   23                     INC   hl   
CFAD   10 F7                  DJNZ   indexLoop   ;keep going until done
CFAF   C9                     RET      
CFB0                             ; 
CFB0                             ; Menu driver for external applications.  Creates a selectable custom menu
CFB0                             ; Keys: Go = Select menu item, AD = Exit Menu, +/- = Navigate menu
CFB0                             ; Input: HL = Pointer to Menu configuration. (See Note)
CFB0                             ; Destroys: A, HL
CFB0                             ; Note: Menu configuration is as follows.  All strings are ZERO terminated!
CFB0                             ; <Menu Entries>, <7Seg Text>, <Menu Text Title>,
CFB0                             ;        [<Menu Text Label>, <Menu Routine Address>]+
CFB0                             ; EG: .db 2             ;Two menu items
CFB0                             ;     .db "Games "      ;7Seg Text
CFB0                             ;     .db "Games",0     ;Menu title
CFB0                             ;     .db "TEC Invaders",0  ;Text and Routine
CFB0                             ;     .dw invaders
CFB0                             ;     .db "TEC Maze",0  ;Text and routine
CFB0                             ;     .dw maze
CFB0                MENUDRIVER:      
CFB0   CD DD CE               CALL   menuInit   ;Initialise the internal memory with menu config
CFB3   21 88 08               LD   hl,MCB   ;set MCB
CFB6   CB DE                  SET   3,(hl)   ;into LCD mode
CFB8   E1                     POP   hl   ;pop return address of rst 10
CFB9   E1                     POP   hl   ;pop return address of GO call
CFBA   C3 26 C2               JP   setLCD   ;hook into monitor menu controller
CFBD                             ; 
CFBD                             ; Parameter data entry driver.  Creates a list of editable two byte parameters
CFBD                             ; utilising the menu handler.
CFBD                             ; Keys: Go = Continue, AD = Exit, +/- = Navigate, 0-F = enter values
CFBD                             ; Input: HL = Pointer to Parameter configuration. (See Note)
CFBD                             ; Note: Parameter configuration is as follows.  All strings are ZERO terminated!
CFBD                             ; Parameter text can be no longer than 14 characters
CFBD                             ; <No. of Entries>, <7Seg Text>, <Parameter Title Text>,
CFBD                             ;      [<Param Text Label>, <Param RAM Address>]+
CFBD                             ; EG: .db 3             ;Three parameters
CFBD                             ;     .db "Params"      ;7seg text
CFBD                             ;     .db "= Enter Parameters =",0     ;Parameter title
CFBD                             ;     .db "Start Address:",0  ;Text and Address
CFBD                             ;     .dw COPY_START
CFBD                             ;     .db "End Address:",0  ;Text and Address
CFBD                             ;     .dw COPY_END
CFBD                             ;     .db "Dest. Address:",0  ;Text and Address
CFBD                             ;     .dw COPY_DEST
CFBD                PARAMDRIVER:      
CFBD   CD DD CE               CALL   menuInit   ;Initialise the internal memory with param config
CFC0   21 88 08               LD   hl,MCB   ;set MCB
CFC3   CB DE                  SET   3,(hl)   ;into LCD mode
CFC5   CB EE                  SET   5,(hl)   ;and Parameter Entry mode
CFC7   C3 26 C2               JP   setLCD   ;hook into monitor menu controller    
CFCA                             ; 
CFCA                             ; Get Caps lock state
CFCA                             ; Input: none
CFCA                             ; Output: A = caps lock state; 0 = off, CAPSLOCK = on
CFCA                GETCAPS:      
CFCA   3A 9C 08               LD   a,(CAPS_LOCK)   ; fetch current value
CFCD   C9                     RET      
CFCE                             ; 
CFCE                             ; Get GLCD Terminal state
CFCE                             ; Input: none
CFCE                             ; Output: A = GLCD Terminal state; 0 = off, FF = on
CFCE                GETGLCDTERM:      
CFCE   3A 8F 08               LD   a,(GLCD_TERM)   ; fetch current value
CFD1   C9                     RET      
CFD2                             ; 
CFD2                             ; Get SHADOW state
CFD2                             ; Input: none
CFD2                             ; Output: A = shadow state; 0 = off, SHADOW = on
CFD2                GETSHADOW:      
CFD2   3A 9D 08               LD   a,(SYS_MODE)   ; fetch current value
CFD5   E6 01                  AND   SHADOW   ; return SHADOW bit only
CFD7   EE 01                  XOR   SHADOW   ; flip bit becuase active low
CFD9   C9                     RET      
CFDA                             ; 
CFDA                             ; Get PROTECT state
CFDA                             ; Input: none
CFDA                             ; Output: A = protect state; 0 = off
CFDA                GETPROTECT:      
CFDA   3A 9E 08               LD   a,(PROT_MODE)   ; fetch current value
CFDD   C9                     RET      
CFDE                             ; 
CFDE                             ; Get EXPAND state
CFDE                             ; Input: none
CFDE                             ; Output: A = expand state; 0 = off
CFDE                GETEXPAND:      
CFDE   3A 9D 08               LD   a,(SYS_MODE)   ; fetch current value
CFE1   E6 04                  AND   EXPAND   ; return EXPAND bit only
CFE3   C9                     RET      
CFE4                             ; 
CFE4                             ; Set Caps lock state
CFE4                             ; Input: A = Desired caps lock state; 0 = off, CAPSLOCK = on
CFE4                             ; Destroy: A
CFE4                SETCAPS:      
CFE4   C5                     PUSH   bc   
CFE5   E6 80                  AND   CAPSLOCK   ; ensure only correct bit is accepted
CFE7   32 9C 08               LD   (CAPS_LOCK),a   ; save caps lock
CFEA   47                     LD   b,a   ; save A in B
CFEB   3A 9D 08               LD   a,(SYS_MODE)   ; get current state
CFEE   E6 7F                  AND   CAPSLOCK-1   ; clear bit
CFF0                UPDATEMODE:      
CFF0   B0                     OR   b   ; set new bit state from B
CFF1   D3 FF                  OUT   (SYS_CTRL),a   
CFF3   32 9D 08               LD   (SYS_MODE),a   
CFF6   C1                     POP   bc   
CFF7   C9                     RET      
CFF8                             ; 
CFF8                             ; Set GLCD Terminal state
CFF8                             ; Input: A = Desired GLCD Terminal state; 0 = off, FF = on
CFF8                             ; Destroy: A
CFF8                SETGLCDTERM:      
CFF8   B7                     OR   a   ; check for zero
CFF9   28 02                  JR   z,$+4   ; yes, skip force FF
CFFB   3E FF                  LD   a,0FFH   ; set to FF
CFFD   32 8F 08               LD   (GLCD_TERM),a   ; save glcd termnial flag
D000   C3 54 D0               JP   initGLCDTerminal   ; set GLCD based on flag
D003                             ; 
D003                             ; Set SHADOW state
D003                             ; Input: A = Desired SHADOW state; 0 = off, SHADOW = on
D003                             ; Destroy: A
D003                SETSHADOW:      
D003   C5                     PUSH   bc   
D004   E6 01                  AND   SHADOW   ; ensure only correct is accepted
D006   AF                     XOR   a   ; flip bit because active low
D007   47                     LD   b,a   ; save A in B
D008   3A 9D 08               LD   a,(SYS_MODE)   ; get current state
D00B   E6 FE                  AND   -SHADOW-1   ; clear bit
D00D   18 E1                  JR   updateMode   ; set mode and exit
D00F                             ; 
D00F                             ; Set PROTECT state
D00F                             ; Input: A = Desired Protect state; 0 = off, PROTECT = on
D00F                             ; Destroy: A
D00F                SETPROTECT:      
D00F   C5                     PUSH   bc   
D010   E6 02                  AND   PROTECT   ; ensure only correct bit is accepted
D012   32 9E 08               LD   (PROT_MODE),a   ; save prot mode
D015   47                     LD   b,a   ; save A in B
D016   3A 9D 08               LD   a,(SYS_MODE)   ; get current state
D019   E6 FD                  AND   -PROTECT-1   ; clear bit
D01B   18 D3                  JR   updateMode   ; set mode and exit
D01D                             ; 
D01D                             ; Set EXPAND state
D01D                             ; Input: A = Desired Expand state; 0 = off, EXPAND = on
D01D                             ; Destroy: A
D01D                SETEXPAND:      
D01D   C5                     PUSH   bc   
D01E   E6 04                  AND   EXPAND   ; ensure only correct bit is accepted
D020   32 9F 08               LD   (XPND_MODE),a   ; Save expand
D023   47                     LD   b,a   ; save A in B
D024   3A 9D 08               LD   a,(SYS_MODE)   ; get current state
D027   E6 FB                  AND   -EXPAND-1   ; clear bit
D029   18 C5                  JR   updateMode   ; set mode and exit
D02B                             ; 
D02B                             ; Toggle Caps Lock
D02B                             ; Input: none
D02B                             ; Destroy: A
D02B                TOGGLECAPS:      
D02B   3A 9C 08               LD   a,(CAPS_LOCK)   ; get caps lock mode status
D02E   EE 80                  XOR   CAPSLOCK   ; toggle bit
D030   32 9C 08               LD   (CAPS_LOCK),a   ; return it back
D033   3A 9D 08               LD   a,(SYS_MODE)   ; get current state
D036   EE 80                  XOR   CAPSLOCK   ; toggle bit
D038                UPDATECTL:      
D038   D3 FF                  OUT   (SYS_CTRL),a   ; update latch
D03A   32 9D 08               LD   (SYS_MODE),a   ; save state
D03D   C9                     RET      
D03E                             ; 
D03E                             ; Toggle EXPAND
D03E                             ; Input: none
D03E                             ; Destroy: A
D03E                TOGGLEEXPAND:      
D03E   3A 9F 08               LD   a,(XPND_MODE)   ; get expand mode status
D041   EE 04                  XOR   EXPAND   ; toggle bit
D043   32 9F 08               LD   (XPND_MODE),a   ; return it back
D046   3A 9D 08               LD   a,(SYS_MODE)   ; get current state
D049   EE 04                  XOR   EXPAND   ; toggle bit
D04B   18 EB                  JR   updateCTL   
D04D                             ; 
D04D                             ; Toggle GLCD Terminal Flag
D04D                             ; Input: none
D04D                             ; Destroy: A
D04D                TOGGLEGLCDTERMINAL:      
D04D   3A 8F 08               LD   a,(GLCD_TERM)   ; get glcd terminal status
D050   2F                     CPL      ; twos complement
D051   32 8F 08               LD   (GLCD_TERM),a   ; save it back
D054                INITGLCDTERMINAL:      
D054   C5                     PUSH   bc   
D055   D5                     PUSH   de   
D056   E5                     PUSH   hl   
D057   F5                     PUSH   af   
D058   B7                     OR   a   
D059   28 05                  JR   z,$+7   
D05B   CD 18 DB               CALL   initTerminal   ; set GLCD as terminal
D05E   18 03                  JR   $+5   
D060   CD 00 D8               CALL   initLCD   ; set GLCD as normal
D063   F1                     POP   af   
D064   E1                     POP   hl   
D065   D1                     POP   de   
D066   C1                     POP   bc   
D067   C9                     RET      
D068                             ; 
D068                             ; Toggle Key Press Beep
D068                             ; Input: none
D068                             ; Destroy: A
D068                TOGGLEBEEP:      
D068   3A 8D 08               LD   a,(KEY_BEEP)   ; get current state
D06B   2F                     CPL      ; twos complement
D06C   32 8D 08               LD   (KEY_BEEP),a   ; save it back
D06F   18 07                  JR   toggleRTCUpdate   
D071                             ; 
D071                             ; Toggle Auto increment address after second nibble keyed
D071                             ; Input: none
D071                             ; Destroy: A
D071                TOGGLEAUTOADDRESS:      
D071   3A 8C 08               LD   a,(KEY_AUTO)   ; get current state
D074   2F                     CPL      ; twos complement
D075   32 8C 08               LD   (KEY_AUTO),a   ; save it back
D078                TOGGLERTCUPDATE:      
D078   3A 88 08               LD   a,(MCB)   ;get MCB
D07B   E6 40                  AND   MCB_RTC   ;is bit 6 set?
D07D   C8                     RET   z   ;no just exit
D07E   E5                     PUSH   hl   
D07F   D5                     PUSH   de   
D080   C5                     PUSH   bc   
D081   21 8C 08               LD   hl,KEY_AUTO   ;get current state
D084   3E 0E                  LD   a,14   ;index A for RTC slot
D086   CD 86 CE               CALL   RTCSetPRAM   ;save it 
D089   C1                     POP   bc   
D08A   D1                     POP   de   
D08B   E1                     POP   hl   
D08C   C9                     RET      
D08D                             ; 
D08D                             ; Display credits via menu
D08D                DISPLAYCREDITS:      
D08D   21 31 D7               LD   hl,creditsCFG   
D090   CD B0 CF               CALL   menuDriver   
D093                             ; 
D093                             ; Display setting menu
D093                DISPLAYSETTINGS:      
D093   21 98 D6               LD   hl,settingsCFG   
D096   CD B0 CF               CALL   menuDriver   
D099                             ; 
D099                             ; Display baud rate menu
D099                DISPLAYBAUD:      
D099   21 A2 D1               LD   hl,baudCFG   
D09C   CD B0 CF               CALL   menuDriver   
D09F                             ; 
D09F                             ; Display Drive menu
D09F                DISPLAYDRIVE:      
D09F   21 DB D1               LD   hl,driveCFG   
D0A2   CD B0 CF               CALL   menuDriver   
D0A5                             ; 
D0A5                             ; Random Number generator.
D0A5                             ; Input: note
D0A5                             ; Output: A = pseudo random number
D0A5                             ; Destroy: B
D0A5                RANDOM:      
D0A5   3A B0 08               LD   a,(RNG_SEED)   ;Random RAM seed
D0A8   47                     LD   b,a   
D0A9   CB 20                  SLA   b   
D0AB   9F                     SBC   a,a   
D0AC   E6 5F                  AND   5FH   
D0AE   A8                     XOR   b   
D0AF   32 B0 08               LD   (RNG_SEED),a   
D0B2   47                     LD   b,a   
D0B3   ED 5F                  LD   a,r   
D0B5   80                     ADD   a,b   
D0B6   C9                     RET      
D0B7                             ; 
D0B7                             ; Set Disassembly Start Address.  Set the first address for disassembler output
D0B7                             ; Input: HL = start address
D0B7                             ; Output: none
D0B7                             ; Destroy: none
D0B7                SETDISSTART:      
D0B7   22 29 09               LD   (DISFROM),hl   ;save start in DIS_FROM
D0BA   C9                     RET      
D0BB                             ; 
D0BB                             ; Get Disassembly Next Address.  Get the next disassembly address
D0BB                             ; Input: none
D0BB                             ; Output: HL = next disassembly address
D0BB                             ; Destroy: none
D0BB                GETDISNEXT:      
D0BB   2A 29 09               LD   hl,(DISFROM)   ;get next address from DIS_FROM
D0BE   C9                     RET      
D0BF                             ; 
D0BF                             ; Generate Disassembly line
D0BF                             ; Input: None (but must call setDisStart first)
D0BF                             ; Output: HL = pointer to disassembly ASCII output, zero terminated
D0BF                             ; Destroy: All
D0BF                GETDISASSEMBLY:      
D0BF   CD 9B E7               CALL   disStart   ;generate Disassembly
D0C2   21 26 09               LD   hl,DISPTR   ;get end of output string
D0C5   36 00                  LD   (hl),0   ;place zero at end of string
D0C7   21 00 09               LD   hl,DISLINE1   ;reset HL to point to start of string
D0CA   C9                     RET      
D0CB                             ; 
D0CB                             ; Convert the output of the matrixScan routine to ASCII.  matrixScan returns values between 0 and 64
D0CB                             ; these represent key presses on the keyboard.  This routine will convert the output of matrixScan, DE
D0CB                             ; to the actual key pressed in ASCII.  If key doesn't map to an ASCII character then the
D0CB                             ; matrix key value is returned.
D0CB                             ; Input: DE = value return from matrixScan. E = key, D = secondary key
D0CB                             ; Output: A = key pressed in ASCII
D0CB                             ; Destroy: BC, HL
D0CB                MATRIXSCANASCII:      
D0CB   7B                     LD   a,e   ;get key pressed
D0CC                             ;handle ESC, CR, Space, Single Quote and Backslash
D0CC   21 EF D0               LD   hl,KMOD_TABLE   ;point to mod table
D0CF   01 05 00               LD   bc,0005H   ;five keys to check
D0D2   ED A1        KCPI:     CPI      ;compare A to value in Table
D0D4   28 06                  JR   z,kModA   ;yes, mod it
D0D6   23                     INC   hl   ;skip the next table entry
D0D7   EA D2 D0               JP   pe,kCPI   ;does BC=0, no check again
D0DA   18 1D                  JR   kNumChar   ;key doesn't need modding, move to next check
D0DC                KMODA:       
D0DC   7E                     LD   a,(hl)   ;save A with new modded value
D0DD   FE 26                  CP   26H   ;is it either a quote or back slash?
D0DF   D8                     RET   c   ;no, then just cleanly exit as shift doesn't apply
D0E0   47                     LD   b,a   ;save A in B
D0E1   7A                     LD   a,d   ;check second key
D0E2   B7                     OR   a   ;is A a SHIFT? Shift = 0
D0E3   20 5B                  JR   nz,kAlpEnd   ;No, exit cleanly with modded value
D0E5   21 10 D1               LD   hl,KSHIFT_TABLE   ;point to shift table
D0E8   3E 12                  LD   a,12H   ;set base index
D0EA   81                     ADD   a,c   ;add key index
D0EB                KSHIFTINDEX:      
D0EB   85                     ADD   a,l   ;index table
D0EC   6F                     LD   l,a   ;set L
D0ED   7E                     LD   a,(hl)   ;get shifted value for quote or backslash
D0EE   C9                     RET      ;cleanly exit
D0EF                KMOD_TABLE:      
D0EF                             ;First value is key, second value is modded ASCII, 5 keys in total
D0EF   0A 0D 0C 1B 0D 20 0E 27 3F 5C DB   0AH,0DH,0CH,1BH,0DH,20H,0EH,27H,3FH,5CH   
D0F9                KNUMCHAR:      
D0F9                             ;Handle number and Characters
D0F9   FE 21                  CP   21H   ;check key range below A-Z
D0FB   30 27                  JR   nc,kAlpha   ;its higher, check for Chracter
D0FD   FE 0F                  CP   0FH   ;is it greater than Comma?
D0FF   38 23                  JR   c,kAlpha   ;yes, check for Character
D101   C6 1D                  ADD   a,1DH   ;index to get correct ASCII
D103   47                     LD   b,a   ;save key
D104   7A                     LD   a,d   ;check second key
D105   B7                     OR   a   ;is it a SHIFT? Shift = 0
D106   20 38                  JR   nz,kAlpEnd   ;No, exit cleanly with new value
D108   21 10 D1               LD   hl,KSHIFT_TABLE   ;point to shift table
D10B   78                     LD   a,b   ;get key value
D10C   D6 2C                  SUB   2CH   ;set base index
D10E   18 DB                  JR   kShiftIndex   ;do index and cleanly exit
D110                KSHIFT_TABLE:      
D110                             ;Characters when shift is pressed.  22H is double quote
D110   3C 5F 3E 3F 29 21 40 23 24 25 5E 26 2A 28 20 3A 20 2B 7C 22 DB   "<_>?)!@#$%^&*( : +|",22H   
D124                KALPHA:      
D124                             ;Handle Alphabet characters A-Z
D124   FE 24                  CP   24H   ;is key is A or over
D126   D8                     RET   c   ;no, no mod just exit cleanly
D127   C6 3D                  ADD   a,3DH   ;index key to get correct ASCII
D129   47                     LD   b,a   ;save key
D12A   7A                     LD   a,d   ;check second key
D12B   3D                     DEC   a   ;is it CTRL?
D12C   20 04                  JR   nz,kCaps   ;no, check for caps lock
D12E   78                     LD   a,b   ;get correct key
D12F   D6 60                  SUB   60H   ;adjust for CTRL-? keys
D131   C9                     RET      ;exit
D132                KCAPS:       
D132   CD CA CF               CALL   getCaps   ;get CAPS lock state
D135   B7                     OR   a   ;is it set or not?
D136   20 04                  JR   nz,kUpper   ;yes, make upper case
D138   7A                     LD   a,d   ;check second key
D139   B7                     OR   a   ;is it SHIFT?
D13A   20 04                  JR   nz,kAlpEnd   ;no, cleanly exit
D13C                KUPPER:      
D13C   78                     LD   a,b   ;get key
D13D   D6 20                  SUB   "a"-"A"   ;subtract 20H to adjust for upper case
D13F   C9                     RET      ;exit cleanly
D140                KALPEND:      
D140   78                     LD   a,b   ;save correct key
D141   C9                     RET      ;exit
D142                             ; 
D142                             ; Parse matrix keyboard input.  This routine checks the key(s) pressed on
D142                             ; the Matrix Keyboard and either returns the key pressed in ASCII or handle
D142                             ; special cases.  The special cases are Key Bounce/Repeat and Caps lock.  This routine
D142                             ; is designed to come directly after matrixScan and included in the Scan loop.
D142                             ; Input: DE = value return from matrixScan. E = key, D = secondary key
D142                             ;        Zero Flag = Set if key pressed. (From matrixScan output)
D142                             ; Output: A = key pressed in ASCII
D142                             ;         Carry Flag = Set if ASCII returned.
D142                             ;         Carry Flag = Not Set if special case and no ASCII returned
D142                             ; Destroy: BC, HL
D142                PARSEMATRIXSCAN:      
D142   21 8B 08               LD   hl,KEY_REPEAT   ;get the key repeat timer
D145   28 0E                  JR   z,parseKey   ;Key has been pressed, check it
D147   36 00                  LD   (hl),00H   ;reset delay counter
D149   AF                     XOR   a   ;no key pressed, clear the key buffer
D14A   32 89 08               LD   (KEY_BUFF),a   
D14D                PARSESPECIAL:      
D14D   06 00                  LD   b,00H   ;delay to slow this
D14F   10 FE                  DJNZ   $   ;shit down.
D151   10 FE                  DJNZ   $   ;shit down.
D153   B7                     OR   a   ;Clear carry flag
D154   C9                     RET      
D155                PARSEKEY:      
D155                             ;check for previous key
D155   3A 89 08               LD   a,(KEY_BUFF)   ;Check previous key
D158   BB                     CP   e   ;is the key pressed
D159   20 05                  JR   nz,parseNewKey   ;New key, parse it
D15B   35                     DEC   (hl)   ;key held, decrease timer
D15C   20 EF                  JR   nz,parseSpecial   ;loop back to exit as if no key pressed
D15E   36 20                  LD   (hl),KEY_SPEED   ;short timer set for subsequent presses
D160                PARSENEWKEY:      
D160                             ;different key, save it
D160   7B                     LD   a,e   
D161   32 89 08               LD   (KEY_BUFF),a   ;save key to key buffer
D164   FE 03                  CP   03H   ;ignore Shift/Ctrl/Fn if first key pressed
D166   38 E5                  JR   c,parseSpecial   ;exit cleanly
D168   35                     DEC   (hl)   ;set timer off
D169                             ;check for Caps lock pressed (need to fix auto repeat issue)
D169   3E 07                  LD   a,07H   ;caps lock key value
D16B   BB                     CP   e   
D16C   20 05                  JR   nz,parseMatrix   ;no, then convert key pressed
D16E   CD 2B D0               CALL   toggleCaps   
D171   18 DA                  JR   parseSpecial   ;exit cleanly
D173                PARSEMATRIX:      
D173   CD CB D0               CALL   matrixScanASCII   
D176                             ;All good, A=ASCII key pressed,
D176   37                     SCF      ;set carry for good exit
D177   C9                     RET      
D178                             ; 
D178                             ; Baud Rate Selection entries
D178                BAUD2400:      
D178   3E 3F                  LD   a,BAUD_2400   ;2400
D17A   18 0A                  JR   saveBaud   
D17C                BAUD4800:      
D17C   3E 1B                  LD   a,BAUD_4800   ;4800
D17E   18 06                  JR   saveBaud   
D180                BAUD9600:      
D180   3E 0B                  LD   a,BAUD_9600   ;9600
D182   18 02                  JR   saveBaud   
D184                BAUD14400:      
D184   3E 05                  LD   a,BAUD_14400   ;14400
D186                SAVEBAUD:      
D186   32 B1 08               LD   (BAUD),a   ;save in RAM (most significant byte)
D189   3A 88 08               LD   a,(MCB)   ;get MCB
D18C   E6 40                  AND   MCB_RTC   ;is bit 6 set?
D18E   CA 06 CF               JP   z,menuPop   ;no just exit
D191   E5                     PUSH   hl   
D192   D5                     PUSH   de   
D193   C5                     PUSH   bc   
D194   21 B1 08               LD   hl,BAUD   ;get current state
D197   3E 0C                  LD   a,12   ;index A for RTC slot
D199   CD 86 CE               CALL   RTCSetPRAM   ;save it 
D19C   C1                     POP   bc   
D19D   D1                     POP   de   
D19E   E1                     POP   hl   
D19F   C3 06 CF               JP   menuPop   ;pop off baud menu and return the prevous menu
D1A2                             ; 
D1A2                             ;Baud Rate Select Menu
D1A2                BAUDCFG:      
D1A2   04                     DB   4   ;four entries
D1A3   42 41 55 44 20 20      DB   "BAUD  "   ;7segment Text
D1A9                             ;"                   " <- Max LCD entry width
D1A9   3D 20 53 65 6C 65 63 74 20 42 61 75 64 20 52 61 74 65 20 3D 00 DB   "= Select Baud Rate =",0   
D1BE   31 34 34 30 30 00      DB   "14400",0   
D1C4   84 D1                  DW   baud14400   
D1C6   39 36 30 30 00         DB   "9600",0   
D1CB   80 D1                  DW   baud9600   
D1CD   34 38 30 30 00         DB   "4800",0   
D1D2   7C D1                  DW   baud4800   
D1D4   32 34 30 30 00         DB   "2400",0   
D1D9   78 D1                  DW   baud2400   
D1DB                             ; 
D1DB                             ;Drive Menu
D1DB                DRIVECFG:      
D1DB   03                     DB   3   ;three entries
D1DC   44 52 49 56 45 20      DB   "DRIVE "   ;7segment Text
D1E2                             ;"                   " <- Max LCD entry width
D1E2   3D 20 20 20 44 72 69 76 65 20 41 63 63 65 73 73 20 20 20 3D 00 DB   "=   Drive Access   =",0   
D1F7   43 61 74 61 6C 6F 67 00 DB   "Catalog",0   
D1FF   22 F0                  DW   loadFromDisk   
D201   53 61 76 65 20 53 65 73 73 69 6F 6E 00 DB   "Save Session",0   
D20E   89 F6                  DW   saveRAM   
D210   4C 6F 61 64 20 53 65 73 73 69 6F 6E 00 DB   "Load Session",0   
D21D   1F D2                  DW   loadRAMConfirm   
D21F                             ; 
D21F                             ;Restoring Session confirmation
D21F                LOADRAMCONFIRM:      
D21F   CD 32 CE               CALL   LCDConfirm   ;this is serious mum!
D222   C0                     RET   nz   ;no, just exit
D223   C3 DB F6               JP   loadRAM   
D226                             ; 
D226                EGG:         
D226   0E 00                  LD   c,0   
D228                EGG1:        
D228   DD 21 45 D2            LD   ix,EGG_DATA   
D22C                EGG2:        
D22C   DD E5                  PUSH   ix   
D22E   DD 54                  LD   d,ixh   
D230   DD 5D                  LD   e,ixl   
D232   E7                     RST   20h   
D233   DD E1                  POP   ix   
D235   FE 13                  CP   13h   
D237   C8                     RET   z   
D238   0D                     DEC   c   
D239   20 F1                  JR   nz,egg2   
D23B   DD 7E 06               LD   a,(ix+6)   
D23E   3C                     INC   a   
D23F   28 E7                  JR   z,egg1   
D241   DD 23                  INC   ix   
D243   18 E7                  JR   egg2   
D245                             ; 
D245                EGG_DATA:      
D245   00 00 00 00 00 00 04 04 DB   00H,00H,00H,00H,00H,00H,04H,04H   
D24D   04 00 61 EB 6B AD 00 C3 DB   04H,00H,61H,0EBH,6BH,0ADH,00H,0C3H   
D255   EB EC C7 EC 00 E6 AE 00 DB   0EBH,0ECH,0C7H,0ECH,00H,0E6H,0AEH,00H   
D25D   4B C7 6F EC AE 00 CD EF DB   4BH,0C7H,6FH,0ECH,0AEH,00H,0CDH,0EFH   
D265   EB 10 10 10 00 C7 C2 C7 DB   0EBH,10H,10H,10H,00H,0C7H,0C2H,0C7H   
D26D   C3 C6 4B 42 C3 00 E6 EB DB   0C3H,0C6H,4BH,42H,0C3H,00H,0E6H,0EBH   
D275   EB E3 6F C2 EB EB 00 00 DB   0EBH,0E3H,6FH,0C2H,0EBH,0EBH,00H,00H   
D27D   00 00 FF               DB   00H,00H,0FFH   
D280                             ; 
D280                             ; GLCD API Table
D280                          .ORG   BASE_ADDR+1280H   
D280                APITABLE2:      
D280   00 D8                  DW   initLCD   ;Initalise the LCD
D282   1D D8                  DW   clearGBUF   ;Clear the Graphics Buffer
D284   2D D8                  DW   clearGrLCD   ;Clear the Graphics LCD Screen
D286   57 D8                  DW   clearTxtLCD   ;Clear the Text LCD Screen
D288   6D D8                  DW   setGrMode   ;Set Graphics Mode
D28A   7B D8                  DW   setTxtMode   ;Set Text Mode
D28C   82 D8                  DW   drawBox   ;Draw a rectangle between two points
D28E   BD D8                  DW   drawLine   ;Draw a line between two points
D290   68 D9                  DW   drawCircle   ;Draw a circle from Mid X,Y to Radius
D292   3D DA                  DW   drawPixel   ;Draw one pixel at X,Y
D294   AD D8                  DW   fillBox   ;Draw a filled rectangle between two points
D296   2F DA                  DW   fillCircle   ;Draw a filled circle from Mid X,Y to Radius
D298   90 DA                  DW   plotToLCD   ;Display the Graphics Buffer to the LCD Screen
D29A   C3 DA                  DW   printString   ;Print Text on the screen in a given row
D29C   E4 DA                  DW   printChars   ;Print Characters on the screen in a given row and column
D29E   02 DB                  DW   delayUS   ;Microsecond delay for LCD updates
D2A0   05 DB                  DW   delayMS   ;Millisecond delay for LCD updates
D2A2   0B DB                  DW   setBufClear   ;Clear the Graphics buffer on after Plotting to the screen
D2A4   13 DB                  DW   setBufNoClear   ;Retain the Graphics buffer on after Plotting to the screen
D2A6   4E DA                  DW   clearPixel   ;Remove a Pixel at X,Y
D2A8   60 DA                  DW   flipPixel   ;Flip a Pixel On/Off at X,Y
D2AA   EA DC                  DW   drawGraphic   ;Draw an ASCII charcter or Sprite to the LCD
D2AC   D0 DC                  DW   invGraphic   ;Inverse graphics printing
D2AE   18 DB                  DW   initTerminal   ;Initialize the LCD for terminal emulation
D2B0   45 DB                  DW   sendCharToLCD   ;Send an ASCII Character to the LCD
D2B2   B7 DB                  DW   sendStringToLCD   ;Send an ASCII String to the LCD
D2B4   DF DB                  DW   sendRegToLCD   ;Send register A to the LCD
D2B6   FE DB                  DW   sendHLToLCD   ;Send register HL to the LCD
D2B8   0A DC                  DW   setCursor   ;Set the graphics cursor
D2BA   C0 DC                  DW   getCursor   ;Get the current cursor
D2BC   C5 DC                  DW   displayCursor   ;Turn Cursor on or off
D2BE   E0 DC                  DW   autoLF   ;toggle the terminal auto LF on and off
D2C0   D8 DC                  DW   underline   ;Set the underline mode on or off
D2C2   E5 DC                  DW   plotAlways   ;Set the plot always mode on or off
D2C4                             ; 
D2C4                API_COUNT2:   EQU   $-APITable2   ;Total number of GLCD API functions
D2C4                             ; 
D2D0                          .ORG   BASE_ADDR+12D0H   
D2D0                             ; 
D2D0                             ; 
D2D0                             ; RGB LED 8x8 Scan routine
D2D0                             ; This routine scans the RGB LED 8x8 matrix and outputs the data to the
D2D0                             ; LED8x8V, LED8x8G and LED8x8B ports.  It uses the REDSCR, GRNSCR and BLUSCR
D2D0                             ; buffers to get the data for each row.  The LED8x8H port is used to select the
D2D0                             ; row to be lit.  The RGB LED matrix is scanned in a loop, lighting each
D2D0                             ; row in turn and outputting the corresponding RGB data for that row.
D2D0                             ; The RGB LED matrix is scanned at a rate of 40Hz, which is fast enough
D2D0                             ; Inputs: IY = Pointer to REDSCR, GRNSCR and BLUSCR buffers
D2D0                             ; Outputs: None
D2D0                RGBSCAN:      
D2D0   C5                     PUSH   bc   ; Save registers
D2D1   FD E5                  PUSH   iy   ; Save IY register
D2D3   0E 01                  LD   c,01H   ; Row counter (bitmask starts at row 1)
D2D5                RGBLOOP:      
D2D5   FD 7E 00               LD   a,(iy+0)   ; Get red data from REDSCR
D2D8   D3 06                  OUT   (LED8X8V),a   ; Output to red port
D2DA   FD 7E 08               LD   a,(iy+8)   ; Get green data from GRNSCR
D2DD   D3 F8                  OUT   (LED8X8G),a   ; Output to green port
D2DF   FD 7E 10               LD   a,(iy+16)   ; Get blue data from BLUSCR
D2E2   D3 F9                  OUT   (LED8X8B),a   ; Output to blue port
D2E4   79                     LD   a,c   ; Current row select bitmask
D2E5   D3 05                  OUT   (LED8X8H),a   ; Select the row
D2E7   06 40                  LD   b,40H   ; ON time counter
D2E9   10 FE                  DJNZ   $   ; Delay for 40 cycles to keep row lit
D2EB   AF                     XOR   a   ; Clear A for next row
D2EC   D3 05                  OUT   (LED8X8H),a   ; Turn off red row to prevent ghosting
D2EE   FD 23                  INC   iy   ; Move to next row in red buffer
D2F0   CB 11                  RL   c   ; Shift row bitmask left
D2F2   30 E1                  JR   nc,RGBLoop   ; Continue until all 8 rows are done
D2F4   FD E1                  POP   iy   ; Restore IY register
D2F6   C1                     POP   bc   ; Restore BC register
D2F7   C9                     RET      
D2F8                             ; 
D2F8                             ; Mon3 API Table
D300                          .ORG   BASE_ADDR+1300H   
D300                APITABLE:      
D300   8C C6                  DW   softwareID   
D302   90 C6                  DW   versionID   
D304   00 C1                  DW   preInit   
D306   11 C5                  DW   beepAlways   
D308   32 C5                  DW   convAToSeg   
D30A   E2 C8                  DW   regAToASCII   
D30C   79 C6                  DW   ASCIItoSegment   
D30E   97 C8                  DW   stringCompare   
D310   C9 C8                  DW   HLToString   
D312   CE C8                  DW   AToString   
D314   6B C5                  DW   scanSegments   
D316   2E CC                  DW   displayError   
D318   C9 C5                  DW   LCDBusy   
D31A   83 C5                  DW   stringToLCD   
D31C   98 C5                  DW   charToLCD   
D31E   9C C5                  DW   commandToLCD   
D320   D1 C5                  DW   scanKeys   
D322   56 C6                  DW   scanKeysWait   
D324   40 CC                  DW   matrixScan   
D326   6F CC                  DW   joystickScan   
D328   23 CE                  DW   serialEnable   
D32A   2C CE                  DW   serialDisable   
D32C   A8 C6                  DW   txByte   
D32E   D9 C6                  DW   rxByte   
D330   10 C7                  DW   intelHexLoad   
D332   8C C7                  DW   sendToSerialAPI   
D334   9E C7                  DW   receiveFromSerialAPI   
D336   21 C8                  DW   sendAssemblyAPI   
D338   6F C8                  DW   sendHexAPI   
D33A   F6 C8                  DW   genDataDump   
D33C   0D C9                  DW   checkStartEnd   
D33E   B0 CF                  DW   menuDriver   
D340   BD CF                  DW   paramDriver   
D342   03 C7                  DW   timeDelay   
D344   A7 EF                  DW   playNote   
D346   75 EF                  DW   playTune   
D348   6B EF                  DW   playTuneMenu   
D34A   CA CF                  DW   getCaps   
D34C   D2 CF                  DW   getShadow   
D34E   DA CF                  DW   getProtect   
D350   DE CF                  DW   getExpand   
D352   E4 CF                  DW   setCaps   
D354   03 D0                  DW   setShadow   
D356   0F D0                  DW   setProtect   
D358   1D D0                  DW   setExpand   
D35A   8C C5                  DW   stringToSerial   
D35C   78 FA                  DW   RTCAPI   
D35E   06 CF                  DW   menuPop   
D360   2B D0                  DW   toggleCaps   
D362   A5 D0                  DW   random   
D364   B7 D0                  DW   setDisStart   
D366   BB D0                  DW   getDisNext   
D368   BF D0                  DW   getDisassembly   
D36A   CB D0                  DW   matrixScanASCII   
D36C   42 D1                  DW   parseMatrixScan   
D36E   32 CE                  DW   LCDConfirm   
D370   CE CF                  DW   getGLCDTerm   
D372   F8 CF                  DW   setGLCDTerm   
D374   22 F0                  DW   loadFromDisk   
D376   A1 F5                  DW   openFile   
D378   D5 F5                  DW   readSector   
D37A   6D F6                  DW   writeSector   
D37C   D0 D2                  DW   RGBScan   
D37E                             ; 
D37E                API_COUNT:   EQU   $-APITable   ;Total number of API functions
D37E                             ; 
D37E                             ; -----------------------------------------------------------------------------
D37E                             ; Strings, Constants, JP tables etc.
D37E                             ; -----------------------------------------------------------------------------
D400                          .ORG   BASE_ADDR+1400H   
D400                             ;Initial defaults on Hard Boot (Copied to RAM)
D400                             ;MCB = Bits 0,1 = Data Nibbles Entered
D400                             ;      Bit 2 = Address=H/Data=L mode
D400                             ;      Bit 3 = LCD=H/Segment=L mode
D400                             ;      Bit 4 = Disassembler View=H/Data Entry View=L mode (for segment mode only)
D400                             ;      Bit 5 = Menu=L/Parameter=H Format for Menu handler (for LCD mode only)
D400                             ;      Bit 6 = RTC Add-On Present=H
D400                             ;      Bit 7 = SD Card Add-On Present=H
D400                DEFAULTS:      
D400   00 40                  DW   USER_ADDR   ;Initial Editing Location
D402   08                     DB   08H   ;Monitor Control Byte (Default LCD Menu Mode)
D403   00                     DB   00H   ;Key Buffer
D404   20                     DB   20H   ;Key Press Flag (non zero = no press)
D405   00                     DB   00H   ;Auto Increment
D406   00                     DB   00H   ;Key repeat timer
D407   00                     DB   00H   ;Key Beep On/Off
D408   00                     DB   00H   ;Matrix Second Key Buffer
D409   00                     DB   00H   ;GLCD Terminal flag (zero = use FTDI)
D40A   00 40                  DW   USER_ADDR   ;Disassembler/Editor Starting Location
D40C   91 C0                  DW   INTHandler   ;INT User jump routine (default RETI)
D40E   93 C0                  DW   NMIHandler   ;NMI User jump routine (default RETI)
D410   00                     DB   00H   ;Menu postion
D411   00                     DB   00H   ;Menu selection
D412   00                     DB   00H   ;Menu count
D413   B2 D5                  DW   mainMenuCFG   ;Menu configuration
D415   FF                     DB   0FFH   ;Menu configuration depth index
D416   00                     DB   00H   ;Capslock OFF
D417                DEFAULTSSIZE:   EQU   $-defaults   
D417                             ; 
D417                             ;LCD Initiliastion codes
D417                LCDINITTABLE:      
D417   38                     DB   38H   ;8-Bit, 2 Lines
D418   01                     DB   01H   ;Clear Display
D419   06                     DB   06H   ;No Shift, Cursor move right
D41A   0C                     DB   0CH   ;Display On, Cursor Off
D41B                             ; 
D41B                             ;LCD Row Column 1 Values
D41B                LCDBASEROWS:      
D41B   80 C0 94 D4            DB   LCD_ROW1,LCD_ROW2,LCD_ROW3,LCD_ROW4   
D41F                             ; 
D41F                             ;Hexidecimal to Seven Segment display
D41F                HEXTOSEGMENTTABLE:      
D41F   EB 28 CD AD 2E A7 E7 29 DB   0EBH,28H,0CDH,0ADH,2EH,0A7H,0E7H,29H   ;0-7
D427   EF 2F 6F E6 C3 EC C7 47 DB   0EFH,2FH,6FH,0E6H,0C3H,0ECH,0C7H,47H   ;8-F
D42F                             ; 
D42F                             ; Jump table to various routines and function when a Fn+key is pressed
D42F                FUNCTIONJUMPTABLE:      
D42F   9F CD                  DW   setCELQuickJump   ;0 = Set CEL Quick Jump Address
D431   0E CE                  DW   getCELQuickJump   ;1 = Get CEL Quick Jump 1
D433   0E CE                  DW   getCELQuickJump   ;2 = Get CEL Quick Jump 2
D435   0E CE                  DW   getCELQuickJump   ;3 = Get CEL Quick Jump 3
D437   10 C7                  DW   intelHexLoad   ;4 = Intel Hex File Loader
D439   4D D0                  DW   toggleGLCDTerminal   ;5 = Toggle GLCD Terminal output
D43B   89 F6                  DW   saveRAM   ;6 = Save Session to Drive (if present)
D43D   1F D2                  DW   loadRAMConfirm   ;7 = Load Session to RAM (if present)
D43F   D2 CB                  DW   NOPFill   ;8 = NOP Fill
D441   3A CC                  DW   displayNoFn   ;9 = Unused
D443   80 CB                  DW   restoreBackup   ;A = Restore Backup
D445   77 CB                  DW   dumbCopy   ;B = Block Backup
D447   25 CA                  DW   smartCopy   ;C = Smart Copy
D449   70 C6                  DW   switchView   ;D = Switch between Hex and Disassembly view
D44B   3E D0                  DW   toggleExpand   ;E = Toggle Expand
D44D   22 F0                  DW   loadFromDisk   ;F = Disk Menu
D44F                             ; 
D44F                ASCIISEGTABLE:      
D44F   00 18 0A EE A7 5C 2C 02 DB   00H,18H,0AH,0EEH,0A7H,5CH,2CH,02H   ;  ! " # $ % & '
D457   83 89 A3 46 40 04 10 4C DB   83H,89H,0A3H,46H,40H,04H,10H,4CH   ;( ) * + , - . /
D45F   EB 28 CD AD 2E A7 E7 29 DB   0EBH,28H,0CDH,0ADH,2EH,0A7H,0E7H,29H   ;0 1 2 3 4 5 6 7
D467   EF AF 81 A1 07 84 0D 5D DB   0EFH,0AFH,81H,0A1H,07H,84H,0DH,5DH   ;8 9 : ; < = > ?
D46F   ED 6F E6 C3 EC C7 47 E3 DB   0EDH,6FH,0E6H,0C3H,0ECH,0C7H,47H,0E3H   ;@ A B C D E F G
D477   6E 42 E8 67 C2 61 6B EB DB   6EH,42H,0E8H,67H,0C2H,61H,6BH,0EBH   ;H I J K L M N O
D47F   4F 8F 4B A7 C6 EA EA 8A DB   4FH,8FH,4BH,0A7H,0C6H,0EAH,0EAH,8AH   ;P Q R S T U V W
D487   6E AE CD C3 26 A9 0B 80 DB   6EH,0AEH,0CDH,0C3H,26H,0A9H,0BH,80H   ;X Y Z [ \ ] ^ _
D48F   08 ED E6 C4 EC CF 47 AF DB   08H,0EDH,0E6H,0C4H,0ECH,0CFH,47H,0AFH   ;` a b c d e f g
D497   66 40 A0 67 42 60 64 E4 DB   66H,40H,0A0H,67H,42H,60H,64H,0E4H   ;h i j k l m n o
D49F   4F 2F 44 A7 C6 E0 E0 60 DB   4FH,2FH,44H,0A7H,0C6H,0E0H,0E0H,60H   ;p q r s t u v w
D4A7   6E AE CD 2C 42 46 01   DB   6EH,0AEH,0CDH,2CH,42H,46H,01H   ;x y z 00bbIHwg ~
D4AE                             ; 
D4AE                PASSTEXT:      
D4AE   4F 6F A7 A7 00 00      DB   4FH,6FH,0A7H,0A7H,00H,00H   ;PASS
D4B4                ERRORTEXT:      
D4B4   C7 4B 4B EB 4B 00      DB   0C7H,4BH,4BH,0EBH,4BH,00H   ;ERROR
D4BA                NOFNTEXT:      
D4BA   6B E4 47 64 00 00      DB   6BH,0E4H,47H,64H,00H,00H   ;NoFn
D4C0                BREAKTEXT:      
D4C0   C3 4F EA 00 E6 4F      DB   0C3H,4FH,0EAH,00H,0E6H,4FH   ;CPU bP
D4C6                             ; 
D4C6                BREAKPOINTREGS:      
D4C6   41 46 3D 00 48 4C 3D 00 42 43 3D 00 44 45 3D 00 DB   "AF=",0,"HL=",0,"BC=",0,"DE=",0   
D4D6   49 58 3D 00 49 59 3D 00 50 43 3D 00 53 50 3D 00 DB   "IX=",0,"IY=",0,"PC=",0,"SP=",0   
D4E6                BREAKPOINTROWS:      
D4E6   80 88 C0 C8 94 9C D4 DC DB   80H,88H,0C0H,0C8H,94H,9CH,0D4H,0DCH   
D4EE                BREAKPOINTFLAGS:      
D4EE   53 5A 59 48 58 50 4E 43 DB   "SZYHXPNC"   
D4F6                BREAKPOINTFLAGROWS:      
D4F6   91 D1 A5 E5 00         DB   91H,0D1H,0A5H,0E5H,00H   
D4FB                             ; 
D4FB                             ;Address Jump text
D4FB                CELJUMPTEXT:      
D4FB   53 61 76 65 20 43 75 72 72 65 6E 74 20 41 64 64 72 65 73 73 00 DB   "Save Current Address",0   
D510                CELHELPTEXT:      
D510   50 72 65 73 73 20 31 2C 32 2C 33 00 DB   "Press 1,2,3",0   
D51C                             ; 
D51C                             ;Menu Go text
D51C                MENUGOTEXT:      
D51C   52 75 6E 6E 69 6E 67 20 61 74 3A 20 00 DB   "Running at: ",0   
D529                             ; 
D529                             ;Serial startup text if connected on Hard boot
D529                SERIALSTARTUP:      
D529   54 45 43 2D 31 47 20 43 6F 6E 6E 65 63 74 65 64 0D 0A 00 DB   "TEC-1G Connected",CR,LF,0   
D53C                             ; 
D53C                             ;Confirmation Text
D53C                CONFIRMTEXT:      
D53C   50 72 65 73 73 20 27 43 27 20 74 6F 20 43 6F 6E 66 69 72 6D 00 DB   "Press 'C' to Confirm",0   
D551                             ; 
D551                             ;Hard Reset Tune
D551                HARDRESETTUNE:      
D551   01 01 00 00 12 12 17 17 DB   01H,01H,00H,00H,12H,12H,17H,17H   ;Funky Town!
D559   16 16 12 12 00 00 00 1F DB   16H,16H,12H,12H,00H,00H,00H,1FH   
D561                             ;Hard Reset Message
D561                HARDRESETMESSAGE:      
D561   A5 2D 2D 2D 2D 2D 2D 3D 3D F4 F4 3D 3D 2D 2D 2D 2D 2D 2D A5 DB   0A5H,"------==",0F4H,0F4H,"==------",0A5H   
D575   7C 20 54 45 43 2D 31 47 20 43 6F 6D 70 75 74 65 72 20 20 7C DB   "| TEC-1G Computer  |"   
D589   7C 20 20 20 4F 70 65 6E 20 53 6F 75 72 63 65 21 20 20 20 7C DB   "|   Open Source!   |"   
D59D   A5 2D 2D 2D 2D 2D 2D 3D 3D F4 F4 3D 3D 2D 2D 2D 2D 2D 2D A5 00 DB   0A5H,"------==",0F4H,0F4H,"==------",0A5H,0   
D5B2                             ; 
D5B2                             ;Main Menu Configuration
D5B2                MAINMENUCFG:      
D5B2   0C                     DB   12   ;twelve entries
D5B3   54 45 43 2D 31 47      DB   "TEC-1G"   ;7segment Text
D5B9                             ;"                   " <- Max LCD entry width
D5B9   3D 20 54 45 43 2D 31 47 20 4D 61 69 6E 20 4D 65 6E 75 20 3D 00 DB   "= TEC-1G Main Menu =",0   
D5CE                INTELLABEL:      
D5CE   49 6E 74 65 6C 20 48 45 58 20 4C 6F 61 64 00 DB   "Intel HEX Load",0   
D5DD   10 C7                  DW   intelHexLoad   
D5DF   44 72 69 76 65 20 41 63 63 65 73 73 00 DB   "Drive Access",0   
D5EC   9F D0                  DW   displayDrive   
D5EE   53 6D 61 72 74 20 42 6C 6F 63 6B 20 43 6F 70 79 00 DB   "Smart Block Copy",0   
D5FF   25 CA                  DW   smartCopy   
D601   42 6C 6F 63 6B 20 42 61 63 6B 75 70 00 DB   "Block Backup",0   
D60E   77 CB                  DW   dumbCopy   
D610   45 78 70 6F 72 74 20 5A 38 30 20 41 73 73 65 6D 62 6C 79 00 DB   "Export Z80 Assembly",0   
D624   EE C7                  DW   assemblyToSerial   
D626   45 78 70 6F 72 74 20 52 61 77 20 44 61 74 61 00 DB   "Export Raw Data",0   
D636   7C C7                  DW   dataToSerial   
D638   45 78 70 6F 72 74 20 48 65 78 20 44 75 6D 70 00 DB   "Export Hex Dump",0   
D648   2E C8                  DW   hexDumpToSerial   
D64A   49 6D 70 6F 72 74 20 42 69 6E 61 72 79 20 46 69 6C 65 00 DB   "Import Binary File",0   
D65D   91 C7                  DW   dataFromSerial   
D65F   4D 75 73 69 63 20 52 6F 75 74 69 6E 65 00 DB   "Music Routine",0   
D66D   6B EF                  DW   playTuneMenu   
D66F   53 65 74 74 69 6E 67 73 00 DB   "Settings",0   
D678   93 D0                  DW   displaySettings   
D67A   43 72 65 64 69 74 73 00 DB   "Credits",0   
D682   8D D0                  DW   displayCredits   
D684   20 56 65 72 73 69 6F 6E 3A 20 32 30 32 35 2E 31 36 00 DB   " Version: ",REL_TXT,0   
D696   09 C2                  DW   softBoot   
D698                             ; 
D698                             ;Settings Menu
D698                SETTINGSCFG:      
D698   07                     DB   7   
D699   43 6F 6E 66 69 67      DB   "Config"   ;7segment Text
D69F                             ;"                   " <- Max LCD entry width
D69F   3D 20 20 54 45 43 2D 31 47 20 53 65 74 74 69 6E 67 73 20 3D 00 DB   "=  TEC-1G Settings =",0   
D6B4   54 6F 67 67 6C 65 20 4B 65 79 20 42 65 65 70 00 DB   "Toggle Key Beep",0   
D6C4   68 D0                  DW   toggleBeep   
D6C6   53 65 74 20 42 61 75 64 20 52 61 74 65 00 DB   "Set Baud Rate",0   
D6D4   99 D0                  DW   displayBaud   
D6D6   54 6F 67 67 6C 65 20 47 4C 43 44 20 54 65 72 6D 00 DB   "Toggle GLCD Term",0   
D6E7   4D D0                  DW   toggleGLCDTerminal   
D6E9   54 6F 67 67 6C 65 20 41 64 64 72 65 73 73 20 49 6E 63 00 DB   "Toggle Address Inc",0   
D6FC   71 D0                  DW   toggleAutoAddress   
D6FE   43 6F 6E 66 69 67 75 72 65 20 52 54 43 00 DB   "Configure RTC",0   
D70C   E8 FC                  DW   RTCSetup   
D70E   52 65 73 65 74 20 52 54 43 20 26 20 50 52 41 4D 00 DB   "Reset RTC & PRAM",0   
D71F   41 CE                  DW   RTCReset   
D721   54 6F 67 67 6C 65 20 45 58 50 41 4E 44 00 DB   "Toggle EXPAND",0   
D72F   3E D0                  DW   toggleExpand   
D731                             ; 
D731                             ;Credits Menu
D731                CREDITSCFG:      
D731   08                     DB   8   ;eight entries
D732   43 72 65 64 69 74      DB   "Credit"   ;7segment Text
D738                             ;"                   " <- Max LCD entry width
D738   3D 20 20 54 45 43 2D 31 47 20 43 72 65 64 69 74 73 20 20 3D 00 DB   "=  TEC-1G Credits  =",0   
D74D   4D 61 72 6B 20 4A 65 6C 69 63 20 2D 20 44 65 73 69 67 6E 00 DB   "Mark Jelic - Design",0   
D761   09 C2                  DW   softBoot   
D763   42 72 69 61 6E 20 43 68 69 68 61 20 2D 20 43 6F 64 65 72 00 DB   "Brian Chiha - Coder",0   
D777   26 D2                  DW   egg   
D779   43 72 61 69 67 20 48 61 72 74 20 2D 20 54 45 43 47 75 79 00 DB   "Craig Hart - TECGuy",0   
D78D   09 C2                  DW   softBoot   
D78F   49 61 6E 20 4D 63 4C 65 61 6E 20 2D 20 54 65 73 74 65 72 00 DB   "Ian McLean - Tester",0   
D7A3   09 C2                  DW   softBoot   
D7A5   4A 61 6D 65 73 20 45 6C 70 68 69 63 6B 20 2D 20 5E 5E 5E 00 DB   "James Elphick - ^^^",0   
D7B9   09 C2                  DW   softBoot   
D7BB   2D 20 4F 72 69 67 69 6E 61 6C 20 44 65 73 69 67 6E 20 2D 00 DB   "- Original Design -",0   
D7CF   09 C2                  DW   softBoot   
D7D1   20 20 20 62 79 20 4A 6F 68 6E 20 48 61 72 64 79 20 20 20 00 DB   "   by John Hardy   ",0   
D7E5   09 C2                  DW   softBoot   
D7E7   20 20 20 61 6E 64 20 4B 65 6E 20 53 74 6F 6E 65 20 20 20 00 DB   "   and Ken Stone   ",0   
D7FB   09 C2                  DW   softBoot   
D7FD                             ; 
D7FD                             ; END OF CORE MONITOR
D7FD                             ; 
D7FD                             ; Monitor Packages
D800                          .ORG   BASE_ADDR+1800H   
D800                             ; MON3 Additional Packages
D800                             ; Include packages are to be placed in memory from 0D000H to 0FFECH
D800                             ; Disassembler code
D800                             ; Graphical LCD 128 x 64 Library
D800                             ; ------------------------------
D800                             ; By B. Chiha May-2023
D800                             ; 
D800                             ; This is a native Z80 Graphics library to be used with 128x64 Graphical LCD Screens
D800                             ; 
D800                             ; There are a few variants of these LCD screens, but they must all must use the ST7920
D800                             ; LCD Controller.  The LCD Screen that I used is the QC12864B.  This screen has two
D800                             ; ST7921 Panels (128 x 32) stacked one above the other.
D800                             ; 
D800                             ; These screens have DDRAM (Graphics) and CGRAM (Text) areas.  Both RAM areas can
D800                             ; be displayed at the same time.
D800                             ; 
D800                             ; The Pinout for the QC12864B board is as follows:
D800                             ; 
D800                             ; Pin	Name	Desc                    Serial  Parallel
D800                             ; ---   ----    -------------           ------  -------------
D800                             ; 1     VSS     Ground                  GND     GND
D800                             ; 2     VDD     Power                   5v      5v
D800                             ; 3     V0      Contrast                N/A     N/A
D800                             ; 4     D/I     IR/DR (CS)              5v      A7
D800                             ; 5     R/W     R/W (SID)               D0      RD (inverted)
D800                             ; 6     E       Enable (SCLK)           D1      Port 7 (inverted)
D800                             ; 7     DB0     Data                    N/A     D0
D800                             ; 8     DB1     Data                    N/A     D1
D800                             ; 9     DB2     Data                    N/A     D2
D800                             ; 10    DB3     Data                    N/A     D3
D800                             ; 11    DB4     Data                    N/A     D4
D800                             ; 12    DB5     Data                    N/A     D5
D800                             ; 13    DB6     Data                    N/A     D6
D800                             ; 14    DB7     Data                    N/A     D7
D800                             ; 15    PSB     Serial/Para             GND     5v
D800                             ; 16    NC
D800                             ; 17    RST     Reset                   RST     RST
D800                             ; 18    VEE     LCD Drive               N/A     N/A
D800                             ; 19    A       Backlight               5v/NC   5v/NC
D800                             ; 20    K       Backlight               GND/NC  GND/NC
D800                             ; 
D800                             ; 
D800                             ; Modifiable values.  Thse three values can be modified to suit your own set up
D800                             ; GLCD_INST and GLCD_DATA are the output ports to send an Instruction or Data value.
D800                             ; V_DELAY_US is the minimum delay needed for a command to be processed by the
D800                             ; LCD board.  If only some of the data is being sent, make this value larger
D800                             ;Port 7 on TEC is connected to LCD Enable (Pin 6)
D800                             ;A7 is connected to Register select (Pin 4).  (A7=0 for Instruction, A7=1 for Data)
D800                V_DELAY_US:   EQU   000AH   ;Delay for 76us on your system
D800                             ; Dont need to modify anything else below.
D800                UP:       EQU   05H   ; Up Arrow
D800                DN:       EQU   06H   ; Down Arrow
D800                FF:       EQU   0CH   ; Form Feed
D800                CURSOR:   EQU   8FH   ; Cursor
D800                             ; Initialise LCD
D800                INITLCD:      
D800   21 97 DD               LD   HL,INIT_BASIC   ;POINT HL TO LCD INITIALIZE TABLE
D803   06 04                  LD   B,04H   ;B=4 BYTES
D805                NEXT_CMD:      
D805   7E                     LD   A,(HL)   
D806   D3 07                  OUT   (GLCD_INST),A   
D808   CD 02 DB               CALL   delayUS   
D80B   23                     INC   HL   
D80C   10 F7                  DJNZ   NEXT_CMD   
D80E   11 40 01               LD   DE,0140H   ;1.6 ms
D811   CD 05 DB               CALL   delayMS   
D814   21 00 0A               LD   HL,GBUF   ;Set viewport
D817   22 13 0E               LD   (VPORT),HL   ;to GBUF
D81A   CD 2D D8               CALL   clearGrLCD   
D81D                             ; Clears the Graphics Memory Buffer
D81D                CLEARGBUF:      
D81D   2A 13 0E               LD   HL,(VPORT)   
D820   ED 5B 13 0E            LD   DE,(VPORT)   
D824   13                     INC   DE   
D825   AF                     XOR   A   
D826   77                     LD   (HL),A   
D827   01 FF 03               LD   BC,03FFH   
D82A   ED B0                  LDIR      
D82C   C9                     RET      
D82D                             ; Clears the Graphics LCD Buffer
D82D                CLEARGRLCD:      
D82D   CD 6D D8               CALL   setGrMode   
D830   0E 00                  LD   C,00H   
D832                CLR_X:       
D832   3E 80                  LD   A,80H   
D834   B1                     OR   C   
D835   D3 07                  OUT   (GLCD_INST),A   
D837   CD 02 DB               CALL   delayUS   
D83A   3E 80                  LD   A,80H   
D83C   D3 07                  OUT   (GLCD_INST),A   
D83E   CD 02 DB               CALL   delayUS   
D841   AF                     XOR   A   ;Clear Byte
D842   06 10                  LD   B,10H   
D844                CLR_Y:       
D844   D3 87                  OUT   (GLCD_DATA),A   
D846   CD 02 DB               CALL   delayUS   
D849   D3 87                  OUT   (GLCD_DATA),A   
D84B   CD 02 DB               CALL   delayUS   
D84E   10 F4                  DJNZ   CLR_Y   
D850   0C                     INC   C   
D851   79                     LD   A,C   
D852   FE 20                  CP   20H   
D854   20 DC                  JR   NZ,CLR_X   
D856   C9                     RET      
D857                             ; Clears the ASCII Text LCD
D857                CLEARTXTLCD:      
D857   CD 7B D8               CALL   setTxtMode   
D85A   3E 80                  LD   A,80H   
D85C   D3 07                  OUT   (GLCD_INST),A   
D85E   CD 02 DB               CALL   delayUS   
D861   06 40                  LD   B,40H   
D863                CLR_ROWS:      
D863   3E 20                  LD   A," "   
D865   D3 87                  OUT   (GLCD_DATA),A   
D867   CD 02 DB               CALL   delayUS   
D86A   10 F7                  DJNZ   CLR_ROWS   
D86C   C9                     RET      
D86D                             ; Set Graphics Mode
D86D                SETGRMODE:      
D86D   3E 34                  LD   A,34H   
D86F   D3 07                  OUT   (GLCD_INST),A   
D871   CD 02 DB               CALL   delayUS   
D874   3E 36                  LD   A,36H   
D876   D3 07                  OUT   (GLCD_INST),A   
D878   C3 02 DB               JP   delayUS   
D87B                             ; Set Text Mode
D87B                SETTXTMODE:      
D87B   3E 30                  LD   A,30H   
D87D   D3 07                  OUT   (GLCD_INST),A   
D87F   C3 02 DB               JP   delayUS   
D882                             ;Draw Box
D882                             ;Inputs: BC = X0,Y0
D882                             ;        DE = X1,Y1
D882                             ;Destroys: HL
D882                DRAWBOX:      
D882   C5                     PUSH   BC   
D883                TOP:         
D883   CD 3D DA               CALL   drawPixel   
D886   7A                     LD   A,D   
D887   04                     INC   B   
D888   B8                     CP   B   
D889   30 F8                  JR   NC,TOP   
D88B   C1                     POP   BC   
D88C   C5                     PUSH   BC   
D88D   4B                     LD   C,E   
D88E                BOTTOM:      
D88E   CD 3D DA               CALL   drawPixel   
D891   7A                     LD   A,D   
D892   04                     INC   B   
D893   B8                     CP   B   
D894   30 F8                  JR   NC,BOTTOM   
D896   C1                     POP   BC   
D897   C5                     PUSH   BC   
D898                LEFT:        
D898   CD 3D DA               CALL   drawPixel   
D89B   7B                     LD   A,E   
D89C   0C                     INC   C   
D89D   B9                     CP   C   
D89E   30 F8                  JR   NC,LEFT   
D8A0   C1                     POP   BC   
D8A1   C5                     PUSH   BC   
D8A2   42                     LD   B,D   
D8A3                RIGHT:       
D8A3   CD 3D DA               CALL   drawPixel   
D8A6   7B                     LD   A,E   
D8A7   0C                     INC   C   
D8A8   B9                     CP   C   
D8A9   30 F8                  JR   NC,RIGHT   
D8AB   C1                     POP   BC   
D8AC   C9                     RET      
D8AD                             ;Fill Box
D8AD                             ;Draws vertical lines from X0,Y0 to X0,Y1 and increase X0 to X1 until X0=X1
D8AD                             ;Inputs: BC = X0,Y0
D8AD                             ;        DE = X1,Y1
D8AD                             ;Destroys: HL
D8AD                FILLBOX:      
D8AD   C5                     PUSH   BC   
D8AE                NEXT_PIXEL:      
D8AE   CD 3D DA               CALL   drawPixel   
D8B1   7B                     LD   A,E   
D8B2   0C                     INC   C   
D8B3   B9                     CP   C   
D8B4   30 F8                  JR   NC,NEXT_PIXEL   
D8B6   C1                     POP   BC   
D8B7   7A                     LD   A,D   
D8B8   04                     INC   B   
D8B9   B8                     CP   B   
D8BA   30 F1                  JR   NC,fillBox   
D8BC   C9                     RET      
D8BD                             ;Draw a line between two points using Bresenham Line Algorithm
D8BD                             ; void plotLine(int x0, int y0, int x1, int y1)
D8BD                             ; {
D8BD                             ;    int dx =  abs(x1-x0), sx = x0<x1 ? 1 : -1;
D8BD                             ;    int dy = -abs(y1-y0), sy = y0<y1 ? 1 : -1;
D8BD                             ;    int err = dx+dy, e2; /* error value e_xy */
D8BD                             ;    for(;;){  /* loop */
D8BD                             ;       setPixel(x0,y0);
D8BD                             ;       if (x0==x1 && y0==y1) break;
D8BD                             ;       e2 = 2*err;
D8BD                             ;       if (e2 >= dy) 00bbIGVyciArPSBkeTsgeDAgKz0gc3g7IA== /* e_xy+e_x > 0 */
D8BD                             ;       if (e2 <= dx) 00bbIGVyciArPSBkeDsgeTAgKz0gc3k7IA== /* e_xy+e_y < 0 */
D8BD                             ;    }
D8BD                             ; }
D8BD                             ;Inputs: BC = X0,Y0
D8BD                             ;        DE = X1,Y1
D8BD                DRAWLINE:      
D8BD                             ;check that points are in range
D8BD   79                     LD   A,C   
D8BE   FE 40                  CP   40H   
D8C0   D0                     RET   NC   
D8C1   78                     LD   A,B   
D8C2   FE 80                  CP   80H   
D8C4   D0                     RET   NC   
D8C5   7B                     LD   A,E   
D8C6   FE 40                  CP   40H   
D8C8   D0                     RET   NC   
D8C9   7A                     LD   A,D   
D8CA   FE 80                  CP   80H   
D8CC   D0                     RET   NC   
D8CD                             ;sx = x0<x1 ? 1 : -1
D8CD   26 01                  LD   H,01H   
D8CF   78                     LD   A,B   
D8D0   BA                     CP   D   
D8D1   38 02                  JR   C,$ + 4   
D8D3   26 FF                  LD   H,0FFH   
D8D5   7C                     LD   A,H   
D8D6   32 02 0E               LD   (SX),A   
D8D9                             ;sy = y0<y1 ? 1 : -1
D8D9   26 01                  LD   H,01H   
D8DB   79                     LD   A,C   
D8DC   BB                     CP   E   
D8DD   38 02                  JR   C,$ + 4   
D8DF   26 FF                  LD   H,0FFH   
D8E1   7C                     LD   A,H   
D8E2   32 03 0E               LD   (SY),A   
D8E5   ED 53 00 0E            LD   (ENDPT),DE   
D8E9                             ;dx =  abs(x1-x0)
D8E9   C5                     PUSH   BC   
D8EA   6A                     LD   L,D   
D8EB   26 00                  LD   H,0   
D8ED   48                     LD   C,B   
D8EE   06 00                  LD   B,0   
D8F0   B7                     OR   A   
D8F1   ED 42                  SBC   HL,BC   
D8F3   CD 5E D9               CALL   ABSHL   
D8F6   22 04 0E               LD   (DX),HL   
D8F9   C1                     POP   BC   
D8FA                             ;dy = -abs(y1-y0)
D8FA   C5                     PUSH   BC   
D8FB   6B                     LD   L,E   
D8FC   26 00                  LD   H,0   
D8FE   06 00                  LD   B,0   
D900   B7                     OR   A   
D901   ED 42                  SBC   HL,BC   
D903   CD 5E D9               CALL   ABSHL   
D906   AF                     XOR   A   
D907   95                     SUB   L   
D908   6F                     LD   L,A   
D909   9F                     SBC   A,A   
D90A   94                     SUB   H   
D90B   67                     LD   H,A   
D90C   22 06 0E               LD   (DY),HL   
D90F   C1                     POP   BC   
D910                             ;err = dx+dy,
D910   ED 5B 04 0E            LD   DE,(DX)   
D914   19                     ADD   HL,DE   
D915   22 08 0E               LD   (ERR),HL   
D918                LINE_LOOP:      
D918                             ;setPixel(x0,y0)
D918   CD 3D DA               CALL   drawPixel   
D91B                             ;if (x0==x1 && y0==y1) break;
D91B   3A 01 0E               LD   A,(ENDPT + 1)   
D91E   B8                     CP   B   
D91F   20 05                  JR   NZ,$ + 7   
D921   3A 00 0E               LD   A,(ENDPT)   
D924   B9                     CP   C   
D925   C8                     RET   Z   
D926                             ;e2 = 2*err;
D926   2A 08 0E               LD   HL,(ERR)   
D929   29                     ADD   HL,HL   ;E2
D92A                             ;if (e2 >= dy)  err += dy; x0 += sx;
D92A   ED 5B 06 0E            LD   DE,(DY)   
D92E   B7                     OR   A   
D92F   ED 52                  SBC   HL,DE   
D931   19                     ADD   HL,DE   
D932   FA 43 D9               JP   M,LL2   
D935   E5                     PUSH   HL   
D936   2A 08 0E               LD   HL,(ERR)   
D939   19                     ADD   HL,DE   
D93A   22 08 0E               LD   (ERR),HL   
D93D   3A 02 0E               LD   A,(SX)   
D940   80                     ADD   A,B   
D941   47                     LD   B,A   
D942   E1                     POP   HL   
D943                LL2:         
D943                             ;if (e2 <= dx)  err += dx; y0 += sy;
D943   ED 5B 04 0E            LD   DE,(DX)   
D947   B7                     OR   A   
D948   ED 52                  SBC   HL,DE   
D94A   19                     ADD   HL,DE   
D94B   28 03                  JR   Z,LL3   
D94D   F2 18 D9               JP   P,LINE_LOOP   
D950                LL3:         
D950   2A 08 0E               LD   HL,(ERR)   
D953   19                     ADD   HL,DE   
D954   22 08 0E               LD   (ERR),HL   
D957   3A 03 0E               LD   A,(SY)   
D95A   81                     ADD   A,C   
D95B   4F                     LD   C,A   
D95C   18 BA                  JR   LINE_LOOP   
D95E                ABSHL:       
D95E   CB 7C                  BIT   7,H   
D960   C8                     RET   Z   
D961   AF                     XOR   A   
D962   95                     SUB   L   
D963   6F                     LD   L,A   
D964   9F                     SBC   A,A   
D965   94                     SUB   H   
D966   67                     LD   H,A   
D967   C9                     RET      
D968                             ;Draw a circle from a midpoint to a radius using Bresenham Line Algorithm
D968                             ; void plotCircle(int xm, int ym, int r)
D968                             ; {
D968                             ;    int x = -r, y = 0, err = 2-2*r, i = 0; /* II. Quadrant */
D968                             ;    printf("Midpoint = (%X,%X), Radius = %X\n", xm, ym, r);
D968                             ;    do {
D968                             ;       printf("(%X,%X) ", xm-x, ym+y); /*   I. Quadrant */
D968                             ;       printf("(%X,%X) ", xm-y, ym-x); /*  II. Quadrant */
D968                             ;       printf("(%X,%X) ", xm+x, ym-y); /* III. Quadrant */
D968                             ;       printf("(%X,%X) ", xm+y, ym+x); /*  IV. Quadrant */
D968                             ;       r = err;
D968                             ;       if (r <= y) err += ++y*2+1;           /* e_xy+e_y < 0 */
D968                             ;       if (r > x || err > y) err += ++x*2+1; /* e_xy+e_x > 0 or no 2nd y-step */
D968                             ;       printf("x = %d, r = %d, y = %d, err =%d\n", x, r, y, err);
D968                             ;    } while (x < 0);
D968                             ; }
D968                             ;Inputs BC = xm,ym (Midpoint)
D968                             ;       E = radius
D968                DRAWCIRCLE:      
D968                             ;   int x = -r, err = 2-2*r; /* II. Quadrant */
D968   AF                     XOR   A   
D969   93                     SUB   E   
D96A   32 02 0E               LD   (SX),A   ;x
D96D                             ;   y = 0
D96D   AF                     XOR   A   
D96E   32 03 0E               LD   (SY),A   ;y
D971                             ;   RAD = r
D971   16 00                  LD   D,00H   
D973   7B                     LD   A,E   
D974   ED 53 0A 0E            LD   (RAD),DE   ;r
D978                             ;   err = 2-2*r
D978   EB                     EX   DE,HL   
D979   29                     ADD   HL,HL   
D97A   EB                     EX   DE,HL   
D97B   21 02 00               LD   HL,0002H   
D97E   B7                     OR   A   
D97F   ED 52                  SBC   HL,DE   ;err
D981   22 08 0E               LD   (ERR),HL   
D984                CIRCLE_LOOP:      
D984                             ;       setPixel(xm-x, ym+y); /*   I. Quadrant */
D984   C5                     PUSH   BC   
D985   3A 02 0E               LD   A,(SX)   
D988   ED 44                  NEG      
D98A   80                     ADD   A,B   
D98B   47                     LD   B,A   
D98C   3A 03 0E               LD   A,(SY)   
D98F   81                     ADD   A,C   
D990   4F                     LD   C,A   
D991   CD 3D DA               CALL   drawPixel   
D994   C1                     POP   BC   
D995                             ;       setPixel(xm+x, ym-y); /* III. Quadrant */
D995   C5                     PUSH   BC   
D996   3A 02 0E               LD   A,(SX)   
D999   80                     ADD   A,B   
D99A   47                     LD   B,A   
D99B   3A 03 0E               LD   A,(SY)   
D99E   ED 44                  NEG      
D9A0   81                     ADD   A,C   
D9A1   4F                     LD   C,A   
D9A2   CD 3D DA               CALL   drawPixel   
D9A5   C1                     POP   BC   
D9A6                             ;       setPixel(xm-y, ym-x); /*  II. Quadrant */
D9A6   C5                     PUSH   BC   
D9A7   3A 03 0E               LD   A,(SY)   
D9AA   ED 44                  NEG      
D9AC   80                     ADD   A,B   
D9AD   47                     LD   B,A   
D9AE   3A 02 0E               LD   A,(SX)   
D9B1   ED 44                  NEG      
D9B3   81                     ADD   A,C   
D9B4   4F                     LD   C,A   
D9B5   CD 3D DA               CALL   drawPixel   
D9B8   C1                     POP   BC   
D9B9                             ;       setPixel(xm+y, ym+x); /*  IV. Quadrant */
D9B9   C5                     PUSH   BC   
D9BA   3A 03 0E               LD   A,(SY)   
D9BD   80                     ADD   A,B   
D9BE   47                     LD   B,A   
D9BF   3A 02 0E               LD   A,(SX)   
D9C2   81                     ADD   A,C   
D9C3   4F                     LD   C,A   
D9C4   CD 3D DA               CALL   drawPixel   
D9C7   C1                     POP   BC   
D9C8                             ;       r = err;
D9C8   2A 08 0E               LD   HL,(ERR)   
D9CB   22 0A 0E               LD   (RAD),HL   
D9CE                             ;       if (r <= y) err += ++y*2+1;           /* e_xy+e_y < 0 */
D9CE   3A 03 0E               LD   A,(SY)   
D9D1   5F                     LD   E,A   
D9D2   16 00                  LD   D,0   
D9D4   B7                     OR   A   
D9D5   ED 52                  SBC   HL,DE   
D9D7   19                     ADD   HL,DE   
D9D8   28 03                  JR   Z,$ + 5   
D9DA   F2 F0 D9               JP   P,DS1   
D9DD   3A 03 0E               LD   A,(SY)   
D9E0   3C                     INC   A   
D9E1   32 03 0E               LD   (SY),A   
D9E4   87                     ADD   A,A   
D9E5   3C                     INC   A   
D9E6   5F                     LD   E,A   
D9E7   16 00                  LD   D,0   
D9E9   2A 08 0E               LD   HL,(ERR)   
D9EC   19                     ADD   HL,DE   
D9ED   22 08 0E               LD   (ERR),HL   
D9F0                             ;       if (r > x || err > y) err += ++x*2+1; /* e_xy+e_x > 0 or no 2nd y-step */
D9F0                DS1:         
D9F0   2A 0A 0E               LD   HL,(RAD)   
D9F3   3A 02 0E               LD   A,(SX)   
D9F6   16 FF                  LD   D,0FFH   
D9F8   5F                     LD   E,A   
D9F9   B7                     OR   A   
D9FA   ED 52                  SBC   HL,DE   
D9FC   19                     ADD   HL,DE   
D9FD   28 03                  JR   Z,$ + 5   
D9FF   F2 14 DA               JP   P,DS2   
DA02   2A 08 0E               LD   HL,(ERR)   
DA05   3A 03 0E               LD   A,(SY)   
DA08   16 00                  LD   D,0   
DA0A   5F                     LD   E,A   
DA0B   B7                     OR   A   
DA0C   ED 52                  SBC   HL,DE   
DA0E   19                     ADD   HL,DE   
DA0F   28 16                  JR   Z,DS3   
DA11   FA 27 DA               JP   M,DS3   
DA14                DS2:         
DA14   3A 02 0E               LD   A,(SX)   
DA17   3C                     INC   A   
DA18   32 02 0E               LD   (SX),A   
DA1B   87                     ADD   A,A   
DA1C   3C                     INC   A   
DA1D   5F                     LD   E,A   
DA1E   16 FF                  LD   D,0FFH   
DA20   2A 08 0E               LD   HL,(ERR)   
DA23   19                     ADD   HL,DE   
DA24   22 08 0E               LD   (ERR),HL   
DA27                             ;   } while (x < 0);
DA27                DS3:         
DA27   3A 02 0E               LD   A,(SX)   
DA2A   B7                     OR   A   
DA2B   C2 84 D9               JP   NZ,CIRCLE_LOOP   
DA2E   C9                     RET      
DA2F                             ;Fill Circle
DA2F                             ;Fills a circle by increasing radius until Radius = Original Radius E
DA2F                             ;Inputs BC = xm,ym (Midpoint)
DA2F                             ;       E = radius
DA2F                FILLCIRCLE:      
DA2F   16 01                  LD   D,01H   ;Start radius
DA31                NEXT_CIRCLE:      
DA31   D5                     PUSH   DE   ;Save end Radius
DA32   5A                     LD   E,D   
DA33   CD 68 D9               CALL   drawCircle   
DA36   D1                     POP   DE   ;Restore Radius
DA37   7B                     LD   A,E   
DA38   14                     INC   D   
DA39   BA                     CP   D   
DA3A   30 F5                  JR   NC,NEXT_CIRCLE   
DA3C   C9                     RET      
DA3D                             ;Draw Pixel in position X Y
DA3D                             ;Input B = column/X (0-127), C = row/Y (0-63)
DA3D                             ;destroys HL
DA3D                DRAWPIXEL:      
DA3D   79                     LD   A,C   
DA3E   FE 40                  CP   40H   
DA40   D0                     RET   NC   
DA41   78                     LD   A,B   
DA42   FE 80                  CP   80H   
DA44   D0                     RET   NC   
DA45   D5                     PUSH   DE   
DA46   CD 71 DA               CALL   SET_GBUF   
DA49   7A                     LD   A,D   
DA4A   B6                     OR   (HL)   
DA4B   77                     LD   (HL),A   
DA4C   D1                     POP   DE   
DA4D   C9                     RET      
DA4E                             ;Clear Pixel in position X Y
DA4E                             ;Input B = column/X (0-127), C = row/Y (0-63)
DA4E                             ;destroys HL
DA4E                CLEARPIXEL:      
DA4E   79                     LD   A,C   
DA4F   FE 40                  CP   40H   
DA51   D0                     RET   NC   
DA52   78                     LD   A,B   
DA53   FE 80                  CP   80H   
DA55   D0                     RET   NC   
DA56   D5                     PUSH   DE   
DA57   CD 71 DA               CALL   SET_GBUF   
DA5A   7A                     LD   A,D   
DA5B   2F                     CPL      
DA5C   A6                     AND   (HL)   
DA5D   77                     LD   (HL),A   
DA5E   D1                     POP   DE   
DA5F   C9                     RET      
DA60                             ;Flip Pixel in position X Y
DA60                             ;Input B = column/X (0-127), C = row/Y (0-63)
DA60                             ;destroys HL
DA60                FLIPPIXEL:      
DA60   79                     LD   A,C   
DA61   FE 40                  CP   40H   
DA63   D0                     RET   NC   
DA64   78                     LD   A,B   
DA65   FE 80                  CP   80H   
DA67   D0                     RET   NC   
DA68   D5                     PUSH   DE   
DA69   CD 71 DA               CALL   SET_GBUF   
DA6C   7A                     LD   A,D   
DA6D   AE                     XOR   (HL)   
DA6E   77                     LD   (HL),A   
DA6F   D1                     POP   DE   
DA70   C9                     RET      
DA71                             ;Helper routine to set HL to the correct GBUF address given X and Y
DA71                             ;Input B = column/X (0-127), C = row/Y (0-63)
DA71                             ;Output HL = address of GBUF X,Y byte, D = Byte with Pixel Bit Set
DA71                             ;Destroys E
DA71                SET_GBUF:      
DA71   69                     LD   L,C   
DA72   26 00                  LD   H,00H   
DA74   29                     ADD   HL,HL   
DA75   29                     ADD   HL,HL   
DA76   29                     ADD   HL,HL   
DA77   29                     ADD   HL,HL   
DA78   ED 5B 13 0E            LD   DE,(VPORT)   
DA7C   1B                     DEC   DE   
DA7D   19                     ADD   HL,DE   
DA7E   78                     LD   A,B   
DA7F   16 08                  LD   D,08H   
DA81                BASE_COL:      
DA81   23                     INC   HL   
DA82   92                     SUB   D   
DA83   30 FC                  JR   NC,BASE_COL   
DA85   2F                     CPL      
DA86   16 01                  LD   D,01H   
DA88   B7                     OR   A   
DA89   C8                     RET   Z   
DA8A                SHIFT_BIT:      
DA8A   CB 22                  SLA   D   
DA8C   3D                     DEC   A   
DA8D   20 FB                  JR   NZ,SHIFT_BIT   
DA8F   C9                     RET      
DA90                             ;Main draw routine.  Moves GBUF to LCD and clears buffer
DA90                             ;Destroys all
DA90                PLOTTOLCD:      
DA90   2A 13 0E               LD   HL,(VPORT)   
DA93   0E 80                  LD   C,80H   
DA95                PLOT_ROW:      
DA95   79                     LD   A,C   
DA96   E6 9F                  AND   9FH   
DA98   D3 07                  OUT   (GLCD_INST),A   ;Vertical
DA9A   CD 02 DB               CALL   delayUS   
DA9D   3E 80                  LD   A,80H   
DA9F   CB 69                  BIT   5,C   
DAA1   28 02                  JR   Z,$ + 4   
DAA3   F6 08                  OR   08H   
DAA5   D3 07                  OUT   (GLCD_INST),A   ;Horizontal
DAA7   CD 02 DB               CALL   delayUS   
DAAA   06 10                  LD   B,10H   ;send eight double bytes (16 bytes)
DAAC                PLOT_COLUMN:      
DAAC   7E                     LD   A,(HL)   
DAAD   D3 87                  OUT   (GLCD_DATA),A   
DAAF   CD 02 DB               CALL   delayUS   
DAB2   3A 0C 0E               LD   A,(CLRBUF)   
DAB5   B7                     OR   A   
DAB6   28 02                  JR   Z,$ + 4   
DAB8   36 00                  LD   (HL),00H   ;Clear Buffer if CLRBUF is non zero
DABA   23                     INC   HL   
DABB   10 EF                  DJNZ   PLOT_COLUMN   
DABD   0C                     INC   C   
DABE   CB 71                  BIT   6,C   ;Is Row = 64?
DAC0   28 D3                  JR   Z,PLOT_ROW   
DAC2   C9                     RET      
DAC3                             ; Print ASCII text on a given row
DAC3                             ; Inputs: C = 0 to 3 Row Number
DAC3                             ;         .db "String" on next line, terminate with 0
DAC3                             ; EG:
DAC3                             ;   LD C,2
DAC3                             ;   CALL printString
DAC3                             ;   .db "This Text",0
DAC3                             ; 
DAC3                PRINTSTRING:      
DAC3   41                     LD   B,C   
DAC4   CD 7B D8               CALL   setTxtMode   
DAC7   21 93 DD               LD   HL,ROWS   
DACA   78                     LD   A,B   
DACB   85                     ADD   A,L   
DACC   30 01                  JR   NC,$ + 3   
DACE   24                     INC   H   
DACF   6F                     LD   L,A   
DAD0   7E                     LD   A,(HL)   
DAD1   D3 07                  OUT   (GLCD_INST),A   
DAD3   CD 02 DB               CALL   delayUS   
DAD6   E1                     POP   HL   
DAD7                DS_LOOP:      
DAD7   7E                     LD   A,(HL)   
DAD8   23                     INC   HL   
DAD9   B7                     OR   A   
DADA   28 07                  JR   Z,DS_EXIT   
DADC   D3 87                  OUT   (GLCD_DATA),A   
DADE   CD 02 DB               CALL   delayUS   
DAE1   18 F4                  JR   DS_LOOP   
DAE3                DS_EXIT:      
DAE3   E9                     JP   (HL)   
DAE4                             ;Print Characters at a position X,Y
DAE4                             ;Even though there are 16 columns, only every second column can be written
DAE4                             ;to and two characters are to be printed.  IE: if you want to print one
DAE4                             ;character in column 2, then you must set B=0 and print " x", putting
DAE4                             ;a space before the character.
DAE4                             ;Input B = column/X (0-7), C = row/Y (0-3)
DAE4                             ;      HL = Start address of text to display, terminate with 0
DAE4                PRINTCHARS:      
DAE4   CD 7B D8               CALL   setTxtMode   
DAE7   11 93 DD               LD   DE,ROWS   
DAEA   79                     LD   A,C   
DAEB   83                     ADD   A,E   
DAEC   30 01                  JR   NC,$ + 3   
DAEE   14                     INC   D   
DAEF   5F                     LD   E,A   
DAF0   1A                     LD   A,(DE)   
DAF1   80                     ADD   A,B   
DAF2   D3 07                  OUT   (GLCD_INST),A   
DAF4   CD 02 DB               CALL   delayUS   
DAF7                PC_LOOP:      
DAF7   7E                     LD   A,(HL)   
DAF8   23                     INC   HL   
DAF9   B7                     OR   A   
DAFA   C8                     RET   Z   
DAFB   D3 87                  OUT   (GLCD_DATA),A   
DAFD   CD 02 DB               CALL   delayUS   
DB00   18 F5                  JR   PC_LOOP   
DB02                             ; Delay for LCD write
DB02                DELAYUS:      
DB02   11 0A 00               LD   DE,V_DELAY_US   ;DELAY BETWEEN, was 0010H
DB05                DELAYMS:      
DB05   1B                     DEC   DE   ;EACH BYTE
DB06   7A                     LD   A,D   ;AS PER
DB07   B3                     OR   E   ;LCD MANUFACTER'S
DB08   20 FB                  JR   NZ,delayMS   ;INSTRUCTIONS
DB0A   C9                     RET      
DB0B                             ; Set Buffer Clearing after outputting to LCD
DB0B                             ; Input: A = 0 Buffer to be cleared, A <> 0 Buffer kept
DB0B                SETBUFCLEAR:      
DB0B   3E FF                  LD   A,0FFH   
DB0D   32 0C 0E               LD   (CLRBUF),A   
DB10   C3 1D D8               JP   clearGBUF   
DB13                SETBUFNOCLEAR:      
DB13   AF                     XOR   A   
DB14   32 0C 0E               LD   (CLRBUF),A   
DB17   C9                     RET      
DB18                             ;Initialise the GLCD Terminal
DB18                             ;Clears the GBUF, sets cursor to top left and displays cursor.
DB18                             ;This must be called prior to any Terminal routine.  This routine
DB18                             ;will as call INIT_LCD.
DB18                INITTERMINAL:      
DB18   CD 00 D8               CALL   initLCD   ;Clear LCD GBUF
DB1B   CD 6D D8               CALL   setGrMode   ;Graphics mode
DB1E   CD 13 DB               CALL   setBufNoClear   ;Retain screen
DB21   21 C0 13               LD   HL,TGBUF   ;Reset VPORT and BUFF_TOP to TGBUF
DB24   22 13 0E               LD   (VPORT),HL   ;to GBUF
DB27   22 15 0E               LD   (TBUF),HL   
DB2A   CD 1D D8               CALL   clearGBUF   
DB2D   AF                     XOR   A   ;Clear A
DB2E   32 10 0E               LD   (CURSOR_ON),A   ;Cursor ON
DB31   32 11 0E               LD   (INVERSE),A   ;Inverse OFF
DB34   32 18 0E               LD   (AUTO_LF),A   ;Auto LF ON
DB37   32 17 0E               LD   (ULINE),A   ;UnderLine OFF
DB3A   32 19 0E               LD   (PLOT_ALWAYS),A   ;Plot always ON
DB3D   01 00 00               LD   BC,0000H   
DB40   CD 0A DC               CALL   setCursor   ;Move cursor to top left
DB43   18 67                  JR   DRAW_CURSOR   ;Draw Cursor and exit
DB45                             ;Send or handle ASCII characters to the GLCD screen.  This routines displays
DB45                             ;ASCII characters to the GLCD screen and handles some special control characters
DB45                             ;It also handles scrolling history of 10 lines.  Characters are drawn at the
DB45                             ;current cursor position.  Cursor increments if character is drawn.
DB45                             ;       CR / 0DH = will move the cursor down and reset it column
DB45                             ;       LF / 0AH = is ignored
DB45                             ;       FF / 0CH = clears the terminal (restarts)
DB45                             ;       BS / 08H = will delete the character at the cursor and move cursor back one
DB45                             ;       HT / 09H = will TAB 4 spaces
DB45                             ;       UP / 05H = will scroll up one line if any
DB45                             ;       DN / 06H = will scroll down one line if any
DB45                             ;Input: C = ASCII character to send to the GLCD screen.
DB45                             ;       C = 0  cursor drawn only
DB45                SENDCHARTOLCD:      
DB45                             ;Check for special characters
DB45   79                     LD   A,C   
DB46   B7                     OR   A   ;Zero?
DB47   28 63                  JR   Z,DRAW_CURSOR   
DB49                DO_SCRL_UP:      
DB49   FE 05                  CP   UP   ;Up Arrow
DB4B   20 07                  JR   NZ,DO_SCRL_DN   
DB4D   AF                     XOR   A   
DB4E   CD 7B DC               CALL   MOVE_VPORT   
DB51   C3 90 DA               JP   plotToLCD   
DB54                DO_SCRL_DN:      
DB54   FE 06                  CP   DN   ;Down Arrow
DB56   20 04                  JR   NZ,DO_CR   
DB58   3E 01                  LD   A,1   
DB5A   18 F2                  JR   $-12   ;Move VPORT above
DB5C                DO_CR:       
DB5C                             ;Key is now a drawing character, reset VPORT first
DB5C   21 C0 13               LD   HL,TGBUF   
DB5F   22 13 0E               LD   (VPORT),HL   
DB62   FE 0A                  CP   LF   ;LF
DB64   C8                     RET   Z   
DB65   FE 0D                  CP   CR   ;CR
DB67   20 14                  JR   NZ,DO_FF   
DB69   3A 0E 0E               LD   A,(CURSOR_X)   ;Are we on the first column?
DB6C   B7                     OR   A   
DB6D   F5                     PUSH   AF   
DB6E   CC 58 DD               CALL   Z,drawCursor   
DB71   F1                     POP   AF   
DB72   C4 7A DD               CALL   NZ,drawBlank   ;Clear cursor
DB75   CD 28 DC               CALL   INC_ROW   
DB78   32 0F 0E               LD   (CURSOR_YS),A   ;Save start row
DB7B   18 2F                  JR   DRAW_CURSOR   
DB7D                DO_FF:       
DB7D   FE 0C                  CP   FF   ;Form Feed / Clear Screen
DB7F   28 97                  JR   Z,initTerminal   ;Reset All.
DB81                DO_BS:       
DB81   FE 08                  CP   BKSP   ;Backspace
DB83   20 0B                  JR   NZ,DO_TAB   
DB85   CD 7A DD               CALL   drawBlank   ;Clear cursor
DB88   CD 9B DC               CALL   DEC_CURSOR   
DB8B   CD 7A DD               CALL   drawBlank   
DB8E   18 1C                  JR   DRAW_CURSOR   
DB90                DO_TAB:      
DB90   FE 09                  CP   TAB   ;Horizontal Tab
DB92   20 11                  JR   NZ,DO_CHAR   
DB94   CD 7A DD               CALL   drawBlank   ;Clear cursor
DB97   CD 1B DC               CALL   INC_CURSOR   
DB9A   CD 1B DC               CALL   INC_CURSOR   
DB9D   CD 1B DC               CALL   INC_CURSOR   
DBA0   CD 1B DC               CALL   INC_CURSOR   
DBA3   18 07                  JR   DRAW_CURSOR   
DBA5                DO_CHAR:      
DBA5   57                     LD   D,A   ;get character
DBA6   CD EA DC               CALL   drawGraphic   
DBA9   CD 1B DC               CALL   INC_CURSOR   
DBAC                DRAW_CURSOR:      
DBAC   CD 58 DD               CALL   drawCursor   ;Attempt to Draw cursor
DBAF                JUST_PLOT:      
DBAF   3A 19 0E               LD   A,(PLOT_ALWAYS)   ;Only plot if set
DBB2   B7                     OR   A   
DBB3   C0                     RET   NZ   ;Exit if not set
DBB4   C3 90 DA               JP   plotToLCD   ;Plot screen and exit
DBB7                             ;Send a string of characters to the GLCD.  Prints a string pointed
DBB7                             ;by DE.  It stops printing and returns when either a CR is printed or
DBB7                             ;when the next byte is the same as what is in register C
DBB7                             ;Inputs: DE = address of string to print
DBB7                             ;        C = character to stop printing.
DBB7                             ;Destroy: All
DBB7                SENDSTRINGTOLCD:      
DBB7   41                     LD   B,C   ;Save cp in B
DBB8                NEXT_CHAR:      
DBB8   1A                     LD   A,(DE)   ;Get character
DBB9   13                     INC   DE   ;Move pointer
DBBA   B8                     CP   B   ;Same as B?
DBBB   28 F2                  JR   Z,JUST_PLOT   ;Yes exit and plot LCD screen
DBBD   FE 0D                  CP   CR   ;Is it a CR?
DBBF   20 0E                  JR   NZ,CHECK_FF   
DBC1   21 C0 13               LD   HL,TGBUF   
DBC4   22 13 0E               LD   (VPORT),HL   
DBC7   CD 28 DC               CALL   INC_ROW   
DBCA   32 0F 0E               LD   (CURSOR_YS),A   ;Save start row
DBCD   18 E0                  JR   JUST_PLOT   
DBCF                CHECK_FF:      
DBCF   FE 0C                  CP   FF   ;Is it a FF?
DBD1   28 AA                  JR   Z,DO_FF   ;Yes do a Form Feed and plot LCD screen and exit
DBD3   D9                     EXX      ;Save bulk registers
DBD4   57                     LD   D,A   ;Get Character
DBD5   CD EA DC               CALL   drawGraphic   ;Draw the character
DBD8   CD 1B DC               CALL   INC_CURSOR   ;Move cursor by one
DBDB   D9                     EXX      ;Restore bulk registers
DBDC   18 DA                  JR   NEXT_CHAR   ;Repeat for next character
DBDE   C9                     RET      
DBDF                             ;Display a register in ASCII on the GLCD
DBDF                             ;Input: C = value to convert and display
DBDF                SENDREGTOLCD:      
DBDF   79                     LD   A,C   
DBE0   CD E5 DB               CALL   DRAW_A   ;Do the conversion
DBE3   18 C7                  JR   DRAW_CURSOR   ;exit and plot LCD screen
DBE5                DRAW_A:      
DBE5   F5                     PUSH   AF   ;Save AF
DBE6   0F                     RRCA      ;move high
DBE7   0F                     RRCA      ;nibble to low nibble
DBE8   0F                     RRCA      
DBE9   0F                     RRCA      
DBEA   CD EE DB               CALL   NIBBLE_TO_LCD   ;Convert and display
DBED   F1                     POP   AF   ;Restore AF
DBEE                NIBBLE_TO_LCD:      
DBEE   E6 0F                  AND   0FH   ;mask out high nibble
DBF0   C6 90                  ADD   A,90H   ;convert to
DBF2   27                     DAA      ;ASCII
DBF3   CE 40                  ADC   A,40H   ;using this
DBF5   27                     DAA      ;amazing routine
DBF6   57                     LD   D,A   ;get character
DBF7   CD EA DC               CALL   drawGraphic   ;Draw the character
DBFA   CD 1B DC               CALL   INC_CURSOR   ;Move cursor by one
DBFD   C9                     RET      
DBFE                             ;Display the register HL in ASCII on the GLCD
DBFE                             ;Input: HL = value to convert and display
DBFE                SENDHLTOLCD:      
DBFE   E5                     PUSH   HL   ;Save HL
DBFF   7C                     LD   A,H   ;get H
DC00   CD E5 DB               CALL   DRAW_A   ;Do the conversion
DC03   E1                     POP   HL   
DC04   7D                     LD   A,L   ;get L
DC05   CD E5 DB               CALL   DRAW_A   ;Do the conversion
DC08   18 A2                  JR   DRAW_CURSOR   ;exit and plot LCD screen
DC0A                             ;Set the Graphic cursor position
DC0A                             ;Inputs: BC = X,Y where X = 0..127, Y = 0..63
DC0A                             ;Ignores update if one of the X,Y values are out of range
DC0A                             ;Destroys: A
DC0A                SETCURSOR:      
DC0A                             ;Check range. Exit if X,Y out of range
DC0A   79                     LD   A,C   
DC0B   FE 40                  CP   40H   
DC0D   D0                     RET   NC   
DC0E   78                     LD   A,B   
DC0F   FE 80                  CP   80H   
DC11   D0                     RET   NC   
DC12                             ;Set Cursor and initial start row
DC12   ED 43 0D 0E            LD   (CURSOR_XY),BC   ;Save cursor
DC16   79                     LD   A,C   
DC17   32 0F 0E               LD   (CURSOR_YS),A   ;And initial Y Start
DC1A   C9                     RET      
DC1B                             ;Increment the cursor by one font character
DC1B                             ;A Font Character is 6x6 Pixels.  Move column 6 across until it can't then reset
DC1B                             ;column back to 0 and move 6 down.
DC1B                             ;If can't go down any further then keep on last row but move column back to 0
DC1B                             ;Font Characters maximum 20 across and 10 down
DC1B                             ;Output: Carry Set = No screen overflow
DC1B                             ;Destroys: A
DC1B                INC_CURSOR:      
DC1B   3A 0E 0E               LD   A,(CURSOR_X)   ;Get X
DC1E   C6 06                  ADD   A,6   ;Add 6
DC20   FE 7E                  CP   126   ;Is it >= 126?
DC22   30 04                  JR   NC,INC_ROW   ;Yes, reset column and increment row
DC24   32 0E 0E               LD   (CURSOR_X),A   ;Save new column
DC27   C9                     RET      
DC28                INC_ROW:      
DC28   AF                     XOR   A   
DC29   32 0E 0E               LD   (CURSOR_X),A   ;reset column to 0
DC2C   3A 18 0E               LD   A,(AUTO_LF)   ;Check for AutoLF
DC2F   B7                     OR   A   
DC30   C0                     RET   NZ   ;Don't CR and exit
DC31   3A 0D 0E               LD   A,(CURSOR_Y)   ;get row
DC34   C6 06                  ADD   A,6   ;Add 6
DC36   FE 3C                  CP   60   ;Is it >= 60
DC38   38 07                  JR   C,SAVE_ROW   ;No, save new row
DC3A   F5                     PUSH   AF   
DC3B   CD 45 DC               CALL   SHIFT_BUFFER   ;Shift buffer up one row
DC3E   F1                     POP   AF   
DC3F   D6 06                  SUB   6   ;overflow, just leave the same
DC41                SAVE_ROW:      
DC41   32 0D 0E               LD   (CURSOR_Y),A   ;Save new row
DC44   C9                     RET      
DC45                             ;Shift the graphics buffer (GBUF) into the scroll buffer (SBUF) by
DC45                             ;one row (6 lines).  Move the top buffer address to the new top of
DC45                             ;the scroll buffer
DC45                SHIFT_BUFFER:      
DC45                             ;Check if anymore buffer left
DC45   2A 15 0E               LD   HL,(TBUF)   ;Get top buffer address
DC48   11 00 10               LD   DE,TGBUF-SBUF   ;Get scroll buffer address
DC4B   B7                     OR   A   ;Clear carry
DC4C   ED 52                  SBC   HL,DE   ;TBUF-SBUF
DC4E   28 09                  JR   Z,SKIP_TBUF   
DC50   19                     ADD   HL,DE   ;restore HL
DC51   11 60 00               LD   DE,16*6   ;Six pixel rows
DC54   ED 52                  SBC   HL,DE   ;Move TBUF down by 6 rows
DC56   22 15 0E               LD   (TBUF),HL   ;Save new TBUF
DC59                SKIP_TBUF:      
DC59   21 60 10               LD   HL,TGBUF-SBUF+(16*6)   ;Top of scroll buffer less one row
DC5C   11 00 10               LD   DE,TGBUF-SBUF   ;Top of scroll buffer
DC5F   01 20 07               LD   BC,16*6*19   ;19 rows
DC62   ED B0                  LDIR      
DC64   21 20 17               LD   HL,TGBUF+0360H   ;clear last row (9*16)
DC67   11 21 17               LD   DE,TGBUF+0361H   
DC6A   01 5F 00               LD   BC,5FH   
DC6D   AF                     XOR   A   
DC6E   77                     LD   (HL),A   
DC6F   ED B0                  LDIR      
DC71                             ;Move Y Start up one row
DC71   3A 0F 0E               LD   A,(CURSOR_YS)   ;Get Y Start row
DC74   D6 06                  SUB   6   
DC76   D8                     RET   C   ;Ignore if less than zero
DC77   32 0F 0E               LD   (CURSOR_YS),A   
DC7A   C9                     RET      
DC7B                             ;Move the VPORT vertically between TBUF and end of GBUB.  VPORT will be
DC7B                             ;shifted by a standard termial row of 6 lines.
DC7B                             ;input: A = 0 shift up else shift down
DC7B                MOVE_VPORT:      
DC7B   2A 13 0E               LD   HL,(VPORT)   ;get viewport
DC7E   EB                     EX   DE,HL   
DC7F   B7                     OR   A   ;check move
DC80   20 0E                  JR   NZ,MOVE_DOWN   ;shift down
DC82                MOVE_UP:      
DC82   2A 15 0E               LD   HL,(TBUF)   ;get top of buffer
DC85   ED 52                  SBC   HL,DE   ; 
DC87   C8                     RET   Z   ;if the same, then at top already
DC88   21 A0 FF               LD   HL,0-60H   ;one row up
DC8B                SAVE_VPORT:      
DC8B   19                     ADD   HL,DE   ;get new VPORT value
DC8C   22 13 0E               LD   (VPORT),HL   
DC8F   C9                     RET      
DC90                MOVE_DOWN:      
DC90   21 C0 13               LD   HL,TGBUF   ;get top of graphics buffer
DC93   ED 52                  SBC   HL,DE   ; 
DC95   C8                     RET   Z   ;if the same, then at top already
DC96   21 60 00               LD   HL,60H   ;one row down
DC99   18 F0                  JR   SAVE_VPORT   
DC9B                             ;Decrement the cursor by one font character up to the current row start
DC9B                             ;Used to help with Backspace character or left arrow?
DC9B                             ;Destroys: A
DC9B                DEC_CURSOR:      
DC9B   3A 0E 0E               LD   A,(CURSOR_X)   ;Get X
DC9E   D6 06                  SUB   6   ;subract 6
DCA0                SAVE_COL:      
DCA0   32 0E 0E               LD   (CURSOR_X),A   ;Save new column
DCA3                             ;if < 0 then just make 0 or 20 depending on Y Start
DCA3   D0                     RET   NC   
DCA4   C5                     PUSH   BC   
DCA5   3A 0F 0E               LD   A,(CURSOR_YS)   ;Get Y Start
DCA8   47                     LD   B,A   
DCA9   3A 0D 0E               LD   A,(CURSOR_Y)   ;Get Y
DCAC   90                     SUB   B   
DCAD   C1                     POP   BC   
DCAE   3E 00                  LD   A,0   ;reset to 0
DCB0   28 EE                  JR   Z,SAVE_COL   
DCB2   3E 78                  LD   A,6*20   ;last column
DCB4   32 0E 0E               LD   (CURSOR_X),A   ;Save new column
DCB7   3A 0D 0E               LD   A,(CURSOR_Y)   
DCBA   D6 06                  SUB   6   ;move row one line up
DCBC   32 0D 0E               LD   (CURSOR_Y),A   ;Save new row
DCBF   C9                     RET      
DCC0                             ;Get cursor position
DCC0                             ;Outputs: BC = X,Y where X = 0..127, Y = 0..63
DCC0                GETCURSOR:      
DCC0   ED 4B 0D 0E            LD   BC,(CURSOR_XY)   
DCC4   C9                     RET      
DCC5                             ;Display Cursor
DCC5                             ;Input: C = 0, Turn cursor on, C = non zero, Turn cursor off
DCC5                             ;Default is Cursor ON
DCC5                DISPLAYCURSOR:      
DCC5   79                     LD   A,C   
DCC6   32 10 0E               LD   (CURSOR_ON),A   
DCC9   B7                     OR   A   
DCCA   C2 7A DD               JP   NZ,drawBlank   
DCCD   C3 AC DB               JP   DRAW_CURSOR   
DCD0                             ;Inverse Graphic Drawing
DCD0                             ;Initial state is normal.  Calling this routine will TOGGLE the inverse drawing flag
DCD0                             ;Destroys: A
DCD0                INVGRAPHIC:      
DCD0   3A 11 0E               LD   A,(INVERSE)   
DCD3   2F                     CPL      ;flip bits
DCD4   32 11 0E               LD   (INVERSE),A   
DCD7   C9                     RET      
DCD8                             ;Display underline on character
DCD8                             ;Initial state is no underline.  Calling this routine will TOGGLE the underline flag
DCD8                             ;Destroys: A
DCD8                UNDERLINE:      
DCD8   3A 17 0E               LD   A,(ULINE)   
DCDB   2F                     CPL      ;flip bits
DCDC   32 17 0E               LD   (ULINE),A   
DCDF   C9                     RET      
DCE0                             ;Automatic Line Feed when cursor reaches the end of the row
DCE0                             ;Input: C = 0, Automatic Line Feed, C = non zero, No Automatic Line Feed
DCE0                             ;Default is AutoLF ON
DCE0                AUTOLF:      
DCE0   79                     LD   A,C   
DCE1   32 18 0E               LD   (AUTO_LF),A   
DCE4   C9                     RET      
DCE5                             ;When sendCharToLCD is called, determine if character should be sent to the GLCD
DCE5                             ;or not.  If not sent, then a call to plotToLCD will be made to update the GLCD
DCE5                             ;Input: C = 0, Plot Always, C = non zero, Do not plot
DCE5                             ;Default is Plot Always
DCE5                PLOTALWAYS:      
DCE5   79                     LD   A,C   
DCE6   32 19 0E               LD   (PLOT_ALWAYS),A   
DCE9   C9                     RET      
DCEA                             ;Draw Graphic at the current cursor.  Draw either an ASCII character or
DCEA                             ;a custom sprite/picture
DCEA                             ;Input: D = ASCII number or
DCEA                             ;    if D=0 Then
DCEA                             ;       HL = Address of graphic data
DCEA                             ;       B = width of graphic in pixels (1-128)
DCEA                             ;       C = height of graphic in pixels (1-64)
DCEA                             ;Destroys: All
DCEA                DRAWGRAPHIC:      
DCEA   7A                     LD   A,D   
DCEB   B7                     OR   A   ;is A=0
DCEC   28 10                  JR   Z,PLOT_GRAPHIC   ;yes, use data pointing to HL
DCEE                             ;Use internal font table and index it to value in A
DCEE   3D                     DEC   A   ;fix for A = 0..255
DCEF   26 00                  LD   H,0   
DCF1   6F                     LD   L,A   
DCF2   29                     ADD   HL,HL   ;Multipy A by 2
DCF3   54                     LD   D,H   
DCF4   5D                     LD   E,L   ;Save in DE
DCF5   29                     ADD   HL,HL   ;Multipy A by 4
DCF6   19                     ADD   HL,DE   ;Multiply by 6
DCF7   11 9B DD               LD   DE,FONT_DATA   ;Font Table
DCFA   19                     ADD   HL,DE   ;Add index (A*8) to HL
DCFB   01 06 06               LD   BC,0606H   ;Six pixels across, Six pixels down
DCFE                PLOT_GRAPHIC:      
DCFE   50                     LD   D,B   ;D=Column pixel count
DCFF   7A                     LD   A,D   
DD00   32 12 0E               LD   (PIXEL_X),A   ;Save original pixel length
DD03   59                     LD   E,C   ;E=Row pixel count
DD04   ED 4B 0D 0E            LD   BC,(CURSOR_XY)   ;Get graphics cursor position
DD08                PLOT_BYTE:      
DD08   7A                     LD   A,D   ;Get column bit count
DD09   D6 08                  SUB   8   
DD0B   57                     LD   D,A   
DD0C   D5                     PUSH   DE   
DD0D   F5                     PUSH   AF   
DD0E                             ;underline check
DD0E   7B                     LD   A,E   
DD0F   FE 01                  CP   1   ;are we on the last row?
DD11   20 0A                  JR   NZ,GET_ROW_DATA   ;no, just continue
DD13   3A 17 0E               LD   A,(ULINE)   ;check underline flag
DD16   B7                     OR   A   ;is it set?
DD17   28 04                  JR   Z,GET_ROW_DATA   ;no, just continue
DD19   1E FF                  LD   E,0FFH   ;yes, set to all ones
DD1B   18 01                  JR   $+3   
DD1D                GET_ROW_DATA:      
DD1D   5E                     LD   E,(HL)   ;get pixel data
DD1E   F1                     POP   AF   
DD1F   30 0A                  JR   NC,INV_BIT   
DD21   C6 08                  ADD   A,8   ;Restore column bit count
DD23   57                     LD   D,A   
DD24   7A                     LD   A,D   
DD25                             ;D = Rotate adjust count
DD25   CB 0B                  RRC   E   ;rotate it to get first bit in bit 7
DD27   15                     DEC   D   
DD28   20 FB                  JR   NZ,$-3   
DD2A   57                     LD   D,A   ;reset D to actual bit count
DD2B                INV_BIT:      
DD2B   3A 11 0E               LD   A,(INVERSE)   ;check inverse flag
DD2E   AB                     XOR   E   ;flip bits
DD2F   5F                     LD   E,A   ;save new data
DD30                PLOT_BIT:      
DD30   CB 03                  RLC   E   
DD32   E5                     PUSH   HL   
DD33   30 05                  JR   NC,REMOVE_PIXEL   
DD35   CD 3D DA               CALL   drawPixel   
DD38   18 03                  JR   $+5   
DD3A                REMOVE_PIXEL:      
DD3A   CD 4E DA               CALL   clearPixel   
DD3D   E1                     POP   HL   
DD3E   04                     INC   B   ;move X to the right by one
DD3F   15                     DEC   D   
DD40   20 EE                  JR   NZ,PLOT_BIT   
DD42                             ;All bits are plotted check if D <= 0
DD42   23                     INC   HL   ;move to next pixel byte
DD43   D1                     POP   DE   ;restore Column/Row bit count
DD44   7A                     LD   A,D   
DD45   B7                     OR   A   ;check for zero or lessor
DD46   28 03                  JR   Z,$+5   
DD48   F2 08 DD               JP   P,PLOT_BYTE   ;its greater or zero, do next byte
DD4B                             ;Move down a row and set column to the start
DD4B   1D                     DEC   E   ;move column pixel count down by one
DD4C   C8                     RET   Z   ;if its zero no more to do, just exit
DD4D   0C                     INC   C   ;move down a row
DD4E   3A 0E 0E               LD   A,(CURSOR_X)   
DD51   47                     LD   B,A   ;reset column
DD52   3A 12 0E               LD   A,(PIXEL_X)   
DD55   57                     LD   D,A   ;reset pixel length per row
DD56   18 B0                  JR   PLOT_BYTE   
DD58                             ;Draw a cursor at the current cursor position.  This will XOR the bits underneith
DD58                             ;the cursor position.  The cursor is a 6x6 pixel square.
DD58                DRAWCURSOR:      
DD58   3A 10 0E               LD   A,(CURSOR_ON)   
DD5B   B7                     OR   A   
DD5C   C0                     RET   NZ   ;exit if cursor off
DD5D   11 06 06               LD   DE,0606H   ;Six pixels across, Six pixels down
DD60   ED 4B 0D 0E            LD   BC,(CURSOR_XY)   ;Get graphics cursor position
DD64                FLIP_BIT:      
DD64   3A 11 0E               LD   A,(INVERSE)   ;check inverse flag
DD67   B7                     OR   A   
DD68   CC 60 DA               CALL   Z,flipPixel   ;Flip the bit at the cursor position if not inverse
DD6B   04                     INC   B   ;move X to the right by one
DD6C   15                     DEC   D   
DD6D   20 F5                  JR   NZ,FLIP_BIT   
DD6F   1D                     DEC   E   ;move column pixel count down by one
DD70   C8                     RET   Z   ;if its zero no more to do, just exit
DD71   0C                     INC   C   ;move down a row
DD72   16 06                  LD   D,6   ;reset pixel length per row
DD74   3A 0E 0E               LD   A,(CURSOR_X)   ;restore original column
DD77   47                     LD   B,A   ;reset column
DD78   18 EA                  JR   FLIP_BIT   
DD7A                             ;Draw a blank at the current cursor position.  This is for DELETE character
DD7A                DRAWBLANK:      
DD7A   11 06 06               LD   DE,0606H   ;Six pixels across, Six pixels down
DD7D   ED 4B 0D 0E            LD   BC,(CURSOR_XY)   ;Get graphics cursor position
DD81                FLIP_BIT1:      
DD81   CD 4E DA               CALL   clearPixel   ;clear the bit at the cursor position
DD84   04                     INC   B   ;move X to the right by one
DD85   15                     DEC   D   
DD86   20 F9                  JR   NZ,FLIP_BIT1   
DD88   1D                     DEC   E   ;move column pixel count down by one
DD89   C8                     RET   Z   ;if its zero no more to do, just exit
DD8A   0C                     INC   C   ;move down a row
DD8B   16 06                  LD   D,6   ;reset pixel length per row
DD8D   3A 0E 0E               LD   A,(CURSOR_X)   ;restore original column
DD90   47                     LD   B,A   ;reset column
DD91   18 EE                  JR   FLIP_BIT1   
DD93                             ; Contstants
DD93   80 90 88 98  ROWS:     DB   80H,90H,88H,98H   ;Text Row start position
DD97                INIT_BASIC:      
DD97   30                     DB   30H   ;8 Bit interface, basic instruction
DD98   0C                     DB   0CH   ;display on, cursor & blink off
DD99   06                     DB   06H   ;cursor move to right ,no shift
DD9A   01                     DB   01H   ;clear RAM
DD9B                             ;General Graphic Data
DD9B                             ;Byte n = Pixel data where set bits represent pixels.  Read from LSB
DD9B                             ; 256 Character Font
DD9B                FONT_DATA:      
DD9B                             ;001
DD9B   1E                     DB   00011110b   ;  ####
DD9C   21                     DB   00100001b   ; #    #
DD9D   21                     DB   00100001b   ; #    #
DD9E   21                     DB   00100001b   ; #    #
DD9F   21                     DB   00100001b   ; #    #
DDA0   1E                     DB   00011110b   ;  ####
DDA1                             ;002
DDA1   1E                     DB   00011110b   ;  ####
DDA2   3F                     DB   00111111b   ; ######
DDA3   3F                     DB   00111111b   ; ######
DDA4   3F                     DB   00111111b   ; ######
DDA5   3F                     DB   00111111b   ; ######
DDA6   1E                     DB   00011110b   ;  ####
DDA7                             ;003 Up Arrow
DDA7   0C                     DB   00001100b   ;   ##
DDA8   1E                     DB   00011110b   ;  ####
DDA9   3F                     DB   00111111b   ; ######
DDAA   0C                     DB   00001100b   ;   ##
DDAB   0C                     DB   00001100b   ;   ##
DDAC   0C                     DB   00001100b   ;   ##
DDAD                             ;004 Down Arrow
DDAD   0C                     DB   00001100b   ;   ##
DDAE   0C                     DB   00001100b   ;   ##
DDAF   0C                     DB   00001100b   ;   ##
DDB0   3F                     DB   00111111b   ; ######
DDB1   1E                     DB   00011110b   ;  ####
DDB2   0C                     DB   00001100b   ;   ##
DDB3                             ;005 Left Arrow
DDB3   08                     DB   00001000b   ;   #
DDB4   18                     DB   00011000b   ;  ##
DDB5   3F                     DB   00111111b   ; ######
DDB6   3F                     DB   00111111b   ; ######
DDB7   18                     DB   00011000b   ;  ##
DDB8   08                     DB   00001000b   ;   #
DDB9                             ;006 Right Arrow
DDB9   04                     DB   00000100b   ;    #
DDBA   06                     DB   00000110b   ;    ##
DDBB   3F                     DB   00111111b   ; ######
DDBC   3F                     DB   00111111b   ; ######
DDBD   06                     DB   00000110b   ;    ##
DDBE   04                     DB   00000100b   ;    #
DDBF                             ;007 Up Hat
DDBF   0C                     DB   00001100b   ;   ##
DDC0   1E                     DB   00011110b   ;  ####
DDC1   3F                     DB   00111111b   ; ######
DDC2   00                     DB   00000000b   ; 
DDC3   00                     DB   00000000b   ; 
DDC4   00                     DB   00000000b   ; 
DDC5                             ;008 Down Hat
DDC5   00                     DB   00000000b   ; 
DDC6   00                     DB   00000000b   ; 
DDC7   00                     DB   00000000b   ; 
DDC8   3F                     DB   00111111b   ; ######
DDC9   1E                     DB   00011110b   ;  ####
DDCA   0C                     DB   00001100b   ;   ##
DDCB                             ;009 Left Hat
DDCB   08                     DB   00001000b   ;   #
DDCC   18                     DB   00011000b   ;  ##
DDCD   38                     DB   00111000b   ; ###
DDCE   38                     DB   00111000b   ; ###
DDCF   18                     DB   00011000b   ;  ##
DDD0   08                     DB   00001000b   ;   #
DDD1                             ;010 Right Hat
DDD1   04                     DB   00000100b   ;    #
DDD2   06                     DB   00000110b   ;    ##
DDD3   07                     DB   00000111b   ;    ###
DDD4   07                     DB   00000111b   ;    ###
DDD5   06                     DB   00000110b   ;    ##
DDD6   04                     DB   00000100b   ;    #
DDD7                             ;011 Note 1
DDD7   04                     DB   00000100b   ;    #
DDD8   04                     DB   00000100b   ;    #
DDD9   04                     DB   00000100b   ;    #
DDDA   1C                     DB   00011100b   ;  ###
DDDB   3C                     DB   00111100b   ; ####
DDDC   18                     DB   00011000b   ;  ##
DDDD                             ;012 Note 2
DDDD   04                     DB   00000100b   ;    #
DDDE   06                     DB   00000110b   ;    ##
DDDF   05                     DB   00000101b   ;    # #
DDE0   1C                     DB   00011100b   ;  ###
DDE1   3C                     DB   00111100b   ; ####
DDE2   18                     DB   00011000b   ;  ##
DDE3                             ;013 Rocket
DDE3   0C                     DB   00001100b   ;   ##
DDE4   0C                     DB   00001100b   ;   ##
DDE5   0C                     DB   00001100b   ;   ##
DDE6   0C                     DB   00001100b   ;   ##
DDE7   1E                     DB   00011110b   ;  ####
DDE8   33                     DB   00110011b   ; ##  ##
DDE9                             ;014 Bomb
DDE9   1E                     DB   00011110b   ;  ####
DDEA   0C                     DB   00001100b   ;   ##
DDEB   1E                     DB   00011110b   ;  ####
DDEC   1E                     DB   00011110b   ;  ####
DDED   1E                     DB   00011110b   ;  ####
DDEE   0C                     DB   00001100b   ;   ##
DDEF                             ;015 Explosion
DDEF   0C                     DB   00001100b   ;   ##
DDF0   3F                     DB   00111111b   ; ######
DDF1   06                     DB   00000110b   ;    ##
DDF2   0C                     DB   00001100b   ;   ##
DDF3   18                     DB   00011000b   ;  ##
DDF4   0C                     DB   00001100b   ;   ##
DDF5                             ;016
DDF5   36                     DB   00110110b   ; ## ##
DDF6   24                     DB   00100100b   ; #  #
DDF7   00                     DB   00000000b   ; 
DDF8   00                     DB   00000000b   ; 
DDF9   00                     DB   00000000b   ; 
DDFA   00                     DB   00000000b   ; 
DDFB                             ;017
DDFB   36                     DB   00110110b   ; ## ##
DDFC   12                     DB   00010010b   ;  #  #
DDFD   00                     DB   00000000b   ; 
DDFE   00                     DB   00000000b   ; 
DDFF   00                     DB   00000000b   ; 
DE00   00                     DB   00000000b   ; 
DE01                             ;018
DE01   0E                     DB   00001110b   ;   ###
DE02   12                     DB   00010010b   ;  #  #
DE03   38                     DB   00111000b   ; ###
DE04   12                     DB   00010010b   ;  #  #
DE05   3E                     DB   00111110b   ; #####
DE06   00                     DB   00000000b   ; 
DE07                             ;019
DE07   1C                     DB   00011100b   ;  ###
DE08   22                     DB   00100010b   ; #   #
DE09   2A                     DB   00101010b   ; # # #
DE0A   22                     DB   00100010b   ; #   #
DE0B   1C                     DB   00011100b   ;  ###
DE0C   00                     DB   00000000b   ; 
DE0D                             ;020
DE0D   3E                     DB   00111110b   ; #####
DE0E   34                     DB   00110100b   ; ## #
DE0F   34                     DB   00110100b   ; ## #
DE10   14                     DB   00010100b   ;  # #
DE11   14                     DB   00010100b   ;  # #
DE12   00                     DB   00000000b   ; 
DE13                             ;021
DE13   1C                     DB   00011100b   ;  ###
DE14   18                     DB   00011000b   ;  ##
DE15   24                     DB   00100100b   ; #  #
DE16   18                     DB   00011000b   ;  ##
DE17   38                     DB   00111000b   ; ###
DE18   00                     DB   00000000b   ; 
DE19                             ;022
DE19   0C                     DB   00001100b   ;   ##
DE1A   0C                     DB   00001100b   ;   ##
DE1B   02                     DB   00000010b   ;     #
DE1C   00                     DB   00000000b   ; 
DE1D   00                     DB   00000000b   ; 
DE1E   00                     DB   00000000b   ; 
DE1F                             ;023
DE1F   14                     DB   00010100b   ;  # #
DE20   00                     DB   00000000b   ; 
DE21   08                     DB   00001000b   ;   #
DE22   22                     DB   00100010b   ; #   #
DE23   1C                     DB   00011100b   ;  ###
DE24   00                     DB   00000000b   ; 
DE25                             ;024
DE25   14                     DB   00010100b   ;  # #
DE26   00                     DB   00000000b   ; 
DE27   00                     DB   00000000b   ; 
DE28   1C                     DB   00011100b   ;  ###
DE29   22                     DB   00100010b   ; #   #
DE2A   00                     DB   00000000b   ; 
DE2B                             ;025
DE2B   08                     DB   00001000b   ;   #
DE2C   00                     DB   00000000b   ; 
DE2D   18                     DB   00011000b   ;  ##
DE2E   22                     DB   00100010b   ; #   #
DE2F   1C                     DB   00011100b   ;  ###
DE30   00                     DB   00000000b   ; 
DE31                             ;026
DE31   08                     DB   00001000b   ;   #
DE32   00                     DB   00000000b   ; 
DE33   08                     DB   00001000b   ;   #
DE34   08                     DB   00001000b   ;   #
DE35   08                     DB   00001000b   ;   #
DE36   00                     DB   00000000b   ; 
DE37                             ;027
DE37   00                     DB   00000000b   ; 
DE38   00                     DB   00000000b   ; 
DE39   3E                     DB   00111110b   ; #####
DE3A   06                     DB   00000110b   ;    ##
DE3B   06                     DB   00000110b   ;    ##
DE3C   00                     DB   00000000b   ; 
DE3D                             ;028
DE3D   1C                     DB   00011100b   ;  ###
DE3E   1C                     DB   00011100b   ;  ###
DE3F   3E                     DB   00111110b   ; #####
DE40   08                     DB   00001000b   ;   #
DE41   1C                     DB   00011100b   ;  ###
DE42   00                     DB   00000000b   ; 
DE43                             ;029
DE43   08                     DB   00001000b   ;   #
DE44   1C                     DB   00011100b   ;  ###
DE45   3E                     DB   00111110b   ; #####
DE46   1C                     DB   00011100b   ;  ###
DE47   08                     DB   00001000b   ;   #
DE48   00                     DB   00000000b   ; 
DE49                             ;030
DE49   14                     DB   00010100b   ;  # #
DE4A   3E                     DB   00111110b   ; #####
DE4B   3E                     DB   00111110b   ; #####
DE4C   1C                     DB   00011100b   ;  ###
DE4D   08                     DB   00001000b   ;   #
DE4E   00                     DB   00000000b   ; 
DE4F                             ;031
DE4F   08                     DB   00001000b   ;   #
DE50   1C                     DB   00011100b   ;  ###
DE51   3E                     DB   00111110b   ; #####
DE52   08                     DB   00001000b   ;   #
DE53   1C                     DB   00011100b   ;  ###
DE54   00                     DB   00000000b   ; 
DE55                             ;032 Space
DE55   00                     DB   00000000b   ; 
DE56   00                     DB   00000000b   ; 
DE57   00                     DB   00000000b   ; 
DE58   00                     DB   00000000b   ; 
DE59   00                     DB   00000000b   ; 
DE5A   00                     DB   00000000b   ; 
DE5B                             ;033 !
DE5B   08                     DB   00001000b   ;   #
DE5C   08                     DB   00001000b   ;   #
DE5D   08                     DB   00001000b   ;   #
DE5E   00                     DB   00000000b   ; 
DE5F   08                     DB   00001000b   ;   #
DE60   00                     DB   00000000b   ; 
DE61                             ;034 "
DE61   14                     DB   00010100b   ;  # #
DE62   14                     DB   00010100b   ;  # #
DE63   00                     DB   00000000b   ; 
DE64   00                     DB   00000000b   ; 
DE65   00                     DB   00000000b   ; 
DE66   00                     DB   00000000b   ; 
DE67                             ;035 #
DE67   14                     DB   00010100b   ;  # #
DE68   3E                     DB   00111110b   ; #####
DE69   14                     DB   00010100b   ;  # #
DE6A   3E                     DB   00111110b   ; #####
DE6B   14                     DB   00010100b   ;  # #
DE6C   00                     DB   00000000b   ; 
DE6D                             ;036 $
DE6D   1E                     DB   00011110b   ;  ####
DE6E   28                     DB   00101000b   ; # #
DE6F   1C                     DB   00011100b   ;  ###
DE70   0A                     DB   00001010b   ;   # #
DE71   3C                     DB   00111100b   ; ####
DE72   00                     DB   00000000b   ; 
DE73                             ;037 %
DE73   32                     DB   00110010b   ; ##  #
DE74   34                     DB   00110100b   ; ## #
DE75   08                     DB   00001000b   ;   #
DE76   16                     DB   00010110b   ;  # ##
DE77   26                     DB   00100110b   ; #  ##
DE78   00                     DB   00000000b   ; 
DE79                             ;038 &
DE79   18                     DB   00011000b   ;  ##
DE7A   24                     DB   00100100b   ; #  #
DE7B   1A                     DB   00011010b   ;  ## #
DE7C   24                     DB   00100100b   ; #  #
DE7D   1A                     DB   00011010b   ;  ## #
DE7E   00                     DB   00000000b   ; 
DE7F                             ;039 '
DE7F   04                     DB   00000100b   ;    #
DE80   08                     DB   00001000b   ;   #
DE81   00                     DB   00000000b   ; 
DE82   00                     DB   00000000b   ; 
DE83   00                     DB   00000000b   ; 
DE84   00                     DB   00000000b   ; 
DE85                             ;040 (
DE85   04                     DB   00000100b   ;    #
DE86   08                     DB   00001000b   ;   #
DE87   08                     DB   00001000b   ;   #
DE88   08                     DB   00001000b   ;   #
DE89   04                     DB   00000100b   ;    #
DE8A   00                     DB   00000000b   ; 
DE8B                             ;041 )
DE8B   10                     DB   00010000b   ;  #
DE8C   08                     DB   00001000b   ;   #
DE8D   08                     DB   00001000b   ;   #
DE8E   08                     DB   00001000b   ;   #
DE8F   10                     DB   00010000b   ;  #
DE90   00                     DB   00000000b   ; 
DE91                             ;042 *
DE91   2A                     DB   00101010b   ; # # #
DE92   1C                     DB   00011100b   ;  ###
DE93   3E                     DB   00111110b   ; #####
DE94   1C                     DB   00011100b   ;  ###
DE95   2A                     DB   00101010b   ; # # #
DE96   00                     DB   00000000b   ; 
DE97                             ;043 +
DE97   00                     DB   00000000b   ; 
DE98   08                     DB   00001000b   ;   #
DE99   1C                     DB   00011100b   ;  ###
DE9A   08                     DB   00001000b   ;   #
DE9B   00                     DB   00000000b   ; 
DE9C   00                     DB   00000000b   ; 
DE9D                             ;044 ,
DE9D   00                     DB   00000000b   ; 
DE9E   00                     DB   00000000b   ; 
DE9F   00                     DB   00000000b   ; 
DEA0   08                     DB   00001000b   ;   #
DEA1   10                     DB   00010000b   ;  #
DEA2   00                     DB   00000000b   ; 
DEA3                             ;045 -
DEA3   00                     DB   00000000b   ; 
DEA4   00                     DB   00000000b   ; 
DEA5   1C                     DB   00011100b   ;  ###
DEA6   00                     DB   00000000b   ; 
DEA7   00                     DB   00000000b   ; 
DEA8   00                     DB   00000000b   ; 
DEA9                             ;046 .
DEA9   00                     DB   00000000b   ; 
DEAA   00                     DB   00000000b   ; 
DEAB   00                     DB   00000000b   ; 
DEAC   00                     DB   00000000b   ; 
DEAD   10                     DB   00010000b   ;  #
DEAE   00                     DB   00000000b   ; 
DEAF                             ;047 /
DEAF   02                     DB   00000010b   ;     #
DEB0   04                     DB   00000100b   ;    #
DEB1   08                     DB   00001000b   ;   #
DEB2   10                     DB   00010000b   ;  #
DEB3   20                     DB   00100000b   ; #
DEB4   00                     DB   00000000b   ; 
DEB5                             ;048 0
DEB5   1C                     DB   00011100b   ;  ###
DEB6   14                     DB   00010100b   ;  # #
DEB7   14                     DB   00010100b   ;  # #
DEB8   14                     DB   00010100b   ;  # #
DEB9   1C                     DB   00011100b   ;  ###
DEBA   00                     DB   00000000b   ; 
DEBB                             ;049 1
DEBB   08                     DB   00001000b   ;   #
DEBC   18                     DB   00011000b   ;  ##
DEBD   08                     DB   00001000b   ;   #
DEBE   08                     DB   00001000b   ;   #
DEBF   1C                     DB   00011100b   ;  ###
DEC0   00                     DB   00000000b   ; 
DEC1                             ;050 2
DEC1   1C                     DB   00011100b   ;  ###
DEC2   04                     DB   00000100b   ;    #
DEC3   1C                     DB   00011100b   ;  ###
DEC4   10                     DB   00010000b   ;  #
DEC5   1C                     DB   00011100b   ;  ###
DEC6   00                     DB   00000000b   ; 
DEC7                             ;051 3
DEC7   1C                     DB   00011100b   ;  ###
DEC8   04                     DB   00000100b   ;    #
DEC9   0C                     DB   00001100b   ;   ##
DECA   04                     DB   00000100b   ;    #
DECB   1C                     DB   00011100b   ;  ###
DECC   00                     DB   00000000b   ; 
DECD                             ;052 4
DECD   10                     DB   00010000b   ;  #
DECE   10                     DB   00010000b   ;  #
DECF   14                     DB   00010100b   ;  # #
DED0   1C                     DB   00011100b   ;  ###
DED1   04                     DB   00000100b   ;    #
DED2   00                     DB   00000000b   ; 
DED3                             ;053 5
DED3   1C                     DB   00011100b   ;  ###
DED4   10                     DB   00010000b   ;  #
DED5   1C                     DB   00011100b   ;  ###
DED6   04                     DB   00000100b   ;    #
DED7   1C                     DB   00011100b   ;  ###
DED8   00                     DB   00000000b   ; 
DED9                             ;054 6
DED9   18                     DB   00011000b   ;  ##
DEDA   10                     DB   00010000b   ;  #
DEDB   1C                     DB   00011100b   ;  ###
DEDC   14                     DB   00010100b   ;  # #
DEDD   1C                     DB   00011100b   ;  ###
DEDE   00                     DB   00000000b   ; 
DEDF                             ;055 7
DEDF   1C                     DB   00011100b   ;  ###
DEE0   04                     DB   00000100b   ;    #
DEE1   08                     DB   00001000b   ;   #
DEE2   10                     DB   00010000b   ;  #
DEE3   10                     DB   00010000b   ;  #
DEE4   00                     DB   00000000b   ; 
DEE5                             ;056 8
DEE5   1C                     DB   00011100b   ;  ###
DEE6   14                     DB   00010100b   ;  # #
DEE7   1C                     DB   00011100b   ;  ###
DEE8   14                     DB   00010100b   ;  # #
DEE9   1C                     DB   00011100b   ;  ###
DEEA   00                     DB   00000000b   ; 
DEEB                             ;057 9
DEEB   1C                     DB   00011100b   ;  ###
DEEC   14                     DB   00010100b   ;  # #
DEED   1C                     DB   00011100b   ;  ###
DEEE   04                     DB   00000100b   ;    #
DEEF   1C                     DB   00011100b   ;  ###
DEF0   00                     DB   00000000b   ; 
DEF1                             ;058 :
DEF1   00                     DB   00000000b   ; 
DEF2   08                     DB   00001000b   ;   #
DEF3   00                     DB   00000000b   ; 
DEF4   08                     DB   00001000b   ;   #
DEF5   00                     DB   00000000b   ; 
DEF6   00                     DB   00000000b   ; 
DEF7                             ;059 ;
DEF7   00                     DB   00000000b   ; 
DEF8   08                     DB   00001000b   ;   #
DEF9   00                     DB   00000000b   ; 
DEFA   08                     DB   00001000b   ;   #
DEFB   10                     DB   00010000b   ;  #
DEFC   00                     DB   00000000b   ; 
DEFD                             ;060 <
DEFD   04                     DB   00000100b   ;    #
DEFE   08                     DB   00001000b   ;   #
DEFF   10                     DB   00010000b   ;  #
DF00   08                     DB   00001000b   ;   #
DF01   04                     DB   00000100b   ;    #
DF02   00                     DB   00000000b   ; 
DF03                             ;061 =
DF03   00                     DB   00000000b   ; 
DF04   1C                     DB   00011100b   ;  ###
DF05   00                     DB   00000000b   ; 
DF06   1C                     DB   00011100b   ;  ###
DF07   00                     DB   00000000b   ; 
DF08   00                     DB   00000000b   ; 
DF09                             ;062 >
DF09   10                     DB   00010000b   ;  #
DF0A   08                     DB   00001000b   ;   #
DF0B   04                     DB   00000100b   ;    #
DF0C   08                     DB   00001000b   ;   #
DF0D   10                     DB   00010000b   ;  #
DF0E   00                     DB   00000000b   ; 
DF0F                             ;063 ?
DF0F   1C                     DB   00011100b   ;  ###
DF10   22                     DB   00100010b   ; #   #
DF11   0C                     DB   00001100b   ;   ##
DF12   00                     DB   00000000b   ; 
DF13   08                     DB   00001000b   ;   #
DF14   00                     DB   00000000b   ; 
DF15                             ;064 @
DF15   1C                     DB   00011100b   ;  ###
DF16   22                     DB   00100010b   ; #   #
DF17   26                     DB   00100110b   ; #  ##
DF18   2A                     DB   00101010b   ; # # #
DF19   0C                     DB   00001100b   ;   ##
DF1A   00                     DB   00000000b   ; 
DF1B                             ;065 A
DF1B   1C                     DB   00011100b   ;  ###
DF1C   22                     DB   00100010b   ; #   #
DF1D   22                     DB   00100010b   ; #   #
DF1E   3E                     DB   00111110b   ; #####
DF1F   22                     DB   00100010b   ; #   #
DF20   00                     DB   00000000b   ; 
DF21                             ;066 B
DF21   3C                     DB   00111100b   ; ####
DF22   22                     DB   00100010b   ; #   #
DF23   3C                     DB   00111100b   ; ####
DF24   22                     DB   00100010b   ; #   #
DF25   3C                     DB   00111100b   ; ####
DF26   00                     DB   00000000b   ; 
DF27                             ;067 C
DF27   1C                     DB   00011100b   ;  ###
DF28   22                     DB   00100010b   ; #   #
DF29   20                     DB   00100000b   ; #
DF2A   22                     DB   00100010b   ; #   #
DF2B   1C                     DB   00011100b   ;  ###
DF2C   00                     DB   00000000b   ; 
DF2D                             ;068 D
DF2D   3C                     DB   00111100b   ; ####
DF2E   22                     DB   00100010b   ; #   #
DF2F   22                     DB   00100010b   ; #   #
DF30   22                     DB   00100010b   ; #   #
DF31   3C                     DB   00111100b   ; ####
DF32   00                     DB   00000000b   ; 
DF33                             ;069 E
DF33   3E                     DB   00111110b   ; #####
DF34   20                     DB   00100000b   ; #
DF35   3C                     DB   00111100b   ; ####
DF36   20                     DB   00100000b   ; #
DF37   3E                     DB   00111110b   ; #####
DF38   00                     DB   00000000b   ; 
DF39                             ;070 F
DF39   3E                     DB   00111110b   ; #####
DF3A   20                     DB   00100000b   ; #
DF3B   3C                     DB   00111100b   ; ####
DF3C   20                     DB   00100000b   ; #
DF3D   20                     DB   00100000b   ; #
DF3E   00                     DB   00000000b   ; 
DF3F                             ;071 G
DF3F   1C                     DB   00011100b   ;  ###
DF40   20                     DB   00100000b   ; #
DF41   26                     DB   00100110b   ; #  ##
DF42   22                     DB   00100010b   ; #   #
DF43   1C                     DB   00011100b   ;  ###
DF44   00                     DB   00000000b   ; 
DF45                             ;072 H
DF45   22                     DB   00100010b   ; #   #
DF46   22                     DB   00100010b   ; #   #
DF47   3E                     DB   00111110b   ; #####
DF48   22                     DB   00100010b   ; #   #
DF49   22                     DB   00100010b   ; #   #
DF4A   00                     DB   00000000b   ; 
DF4B                             ;073 I
DF4B   1C                     DB   00011100b   ;  ###
DF4C   08                     DB   00001000b   ;   #
DF4D   08                     DB   00001000b   ;   #
DF4E   08                     DB   00001000b   ;   #
DF4F   1C                     DB   00011100b   ;  ###
DF50   00                     DB   00000000b   ; 
DF51                             ;074 J
DF51   0C                     DB   00001100b   ;   ##
DF52   04                     DB   00000100b   ;    #
DF53   04                     DB   00000100b   ;    #
DF54   14                     DB   00010100b   ;  # #
DF55   1C                     DB   00011100b   ;  ###
DF56   00                     DB   00000000b   ; 
DF57                             ;075 K
DF57   24                     DB   00100100b   ; #  #
DF58   28                     DB   00101000b   ; # #
DF59   30                     DB   00110000b   ; ##
DF5A   28                     DB   00101000b   ; # #
DF5B   24                     DB   00100100b   ; #  #
DF5C   00                     DB   00000000b   ; 
DF5D                             ;076 L
DF5D   20                     DB   00100000b   ; #
DF5E   20                     DB   00100000b   ; #
DF5F   20                     DB   00100000b   ; #
DF60   20                     DB   00100000b   ; #
DF61   3C                     DB   00111100b   ; ####
DF62   00                     DB   00000000b   ; 
DF63                             ;077 M
DF63   22                     DB   00100010b   ; #   #
DF64   36                     DB   00110110b   ; ## ##
DF65   2A                     DB   00101010b   ; # # #
DF66   22                     DB   00100010b   ; #   #
DF67   22                     DB   00100010b   ; #   #
DF68   00                     DB   00000000b   ; 
DF69                             ;078 N
DF69   22                     DB   00100010b   ; #   #
DF6A   32                     DB   00110010b   ; ##  #
DF6B   2A                     DB   00101010b   ; # # #
DF6C   26                     DB   00100110b   ; #  ##
DF6D   22                     DB   00100010b   ; #   #
DF6E   00                     DB   00000000b   ; 
DF6F                             ;079 O
DF6F   1C                     DB   00011100b   ;  ###
DF70   26                     DB   00100110b   ; #  ##
DF71   22                     DB   00100010b   ; #   #
DF72   22                     DB   00100010b   ; #   #
DF73   1C                     DB   00011100b   ;  ###
DF74   00                     DB   00000000b   ; 
DF75                             ;080 P
DF75   38                     DB   00111000b   ; ###
DF76   24                     DB   00100100b   ; #  #
DF77   38                     DB   00111000b   ; ###
DF78   20                     DB   00100000b   ; #
DF79   20                     DB   00100000b   ; #
DF7A   00                     DB   00000000b   ; 
DF7B                             ;081 Q
DF7B   1C                     DB   00011100b   ;  ###
DF7C   22                     DB   00100010b   ; #   #
DF7D   22                     DB   00100010b   ; #   #
DF7E   26                     DB   00100110b   ; #  ##
DF7F   1E                     DB   00011110b   ;  ####
DF80   00                     DB   00000000b   ; 
DF81                             ;082 R
DF81   38                     DB   00111000b   ; ###
DF82   24                     DB   00100100b   ; #  #
DF83   38                     DB   00111000b   ; ###
DF84   28                     DB   00101000b   ; # #
DF85   24                     DB   00100100b   ; #  #
DF86   00                     DB   00000000b   ; 
DF87                             ;083 S
DF87   1E                     DB   00011110b   ;  ####
DF88   20                     DB   00100000b   ; #
DF89   1C                     DB   00011100b   ;  ###
DF8A   02                     DB   00000010b   ;     #
DF8B   3C                     DB   00111100b   ; ####
DF8C   00                     DB   00000000b   ; 
DF8D                             ;084 T
DF8D   3E                     DB   00111110b   ; #####
DF8E   08                     DB   00001000b   ;   #
DF8F   08                     DB   00001000b   ;   #
DF90   08                     DB   00001000b   ;   #
DF91   08                     DB   00001000b   ;   #
DF92   00                     DB   00000000b   ; 
DF93                             ;085 U
DF93   22                     DB   00100010b   ; #   #
DF94   22                     DB   00100010b   ; #   #
DF95   22                     DB   00100010b   ; #   #
DF96   22                     DB   00100010b   ; #   #
DF97   1C                     DB   00011100b   ;  ###
DF98   00                     DB   00000000b   ; 
DF99                             ;086 V
DF99   22                     DB   00100010b   ; #   #
DF9A   22                     DB   00100010b   ; #   #
DF9B   14                     DB   00010100b   ;  # #
DF9C   14                     DB   00010100b   ;  # #
DF9D   08                     DB   00001000b   ;   #
DF9E   00                     DB   00000000b   ; 
DF9F                             ;087 W
DF9F   22                     DB   00100010b   ; #   #
DFA0   22                     DB   00100010b   ; #   #
DFA1   2A                     DB   00101010b   ; # # #
DFA2   2A                     DB   00101010b   ; # # #
DFA3   14                     DB   00010100b   ;  # #
DFA4   00                     DB   00000000b   ; 
DFA5                             ;088 X
DFA5   22                     DB   00100010b   ; #   #
DFA6   14                     DB   00010100b   ;  # #
DFA7   08                     DB   00001000b   ;   #
DFA8   14                     DB   00010100b   ;  # #
DFA9   22                     DB   00100010b   ; #   #
DFAA   00                     DB   00000000b   ; 
DFAB                             ;089 Y
DFAB   22                     DB   00100010b   ; #   #
DFAC   14                     DB   00010100b   ;  # #
DFAD   08                     DB   00001000b   ;   #
DFAE   08                     DB   00001000b   ;   #
DFAF   08                     DB   00001000b   ;   #
DFB0   00                     DB   00000000b   ; 
DFB1                             ;090 Z
DFB1   3E                     DB   00111110b   ; #####
DFB2   04                     DB   00000100b   ;    #
DFB3   08                     DB   00001000b   ;   #
DFB4   10                     DB   00010000b   ;  #
DFB5   3E                     DB   00111110b   ; #####
DFB6   00                     DB   00000000b   ; 
DFB7                             ;091 [
DFB7   0C                     DB   00001100b   ;   ##
DFB8   08                     DB   00001000b   ;   #
DFB9   08                     DB   00001000b   ;   #
DFBA   08                     DB   00001000b   ;   #
DFBB   0C                     DB   00001100b   ;   ##
DFBC   00                     DB   00000000b   ; 
DFBD                             ;092 \
DFBD   20                     DB   00100000b   ; #
DFBE   10                     DB   00010000b   ;  #
DFBF   08                     DB   00001000b   ;   #
DFC0   04                     DB   00000100b   ;    #
DFC1   02                     DB   00000010b   ;     #
DFC2   00                     DB   00000000b   ; 
DFC3                             ;093 ]
DFC3   18                     DB   00011000b   ;  ##
DFC4   08                     DB   00001000b   ;   #
DFC5   08                     DB   00001000b   ;   #
DFC6   08                     DB   00001000b   ;   #
DFC7   18                     DB   00011000b   ;  ##
DFC8   00                     DB   00000000b   ; 
DFC9                             ;094 ^
DFC9   08                     DB   00001000b   ;   #
DFCA   14                     DB   00010100b   ;  # #
DFCB   00                     DB   00000000b   ; 
DFCC   00                     DB   00000000b   ; 
DFCD   00                     DB   00000000b   ; 
DFCE   00                     DB   00000000b   ; 
DFCF                             ;095 _
DFCF   00                     DB   00000000b   ; 
DFD0   00                     DB   00000000b   ; 
DFD1   00                     DB   00000000b   ; 
DFD2   00                     DB   00000000b   ; 
DFD3   3E                     DB   00111110b   ; #####
DFD4   00                     DB   00000000b   ; 
DFD5                             ;096 `
DFD5   08                     DB   00001000b   ;   #
DFD6   04                     DB   00000100b   ;    #
DFD7   00                     DB   00000000b   ; 
DFD8   00                     DB   00000000b   ; 
DFD9   00                     DB   00000000b   ; 
DFDA   00                     DB   00000000b   ; 
DFDB                             ;097 a
DFDB   00                     DB   00000000b   ; 
DFDC   1C                     DB   00011100b   ;  ###
DFDD   22                     DB   00100010b   ; #   #
DFDE   26                     DB   00100110b   ; #  ##
DFDF   1A                     DB   00011010b   ;  ## #
DFE0   00                     DB   00000000b   ; 
DFE1                             ;098 b
DFE1   20                     DB   00100000b   ; #
DFE2   3C                     DB   00111100b   ; ####
DFE3   22                     DB   00100010b   ; #   #
DFE4   22                     DB   00100010b   ; #   #
DFE5   3C                     DB   00111100b   ; ####
DFE6   00                     DB   00000000b   ; 
DFE7                             ;099 c
DFE7   00                     DB   00000000b   ; 
DFE8   1C                     DB   00011100b   ;  ###
DFE9   20                     DB   00100000b   ; #
DFEA   20                     DB   00100000b   ; #
DFEB   1C                     DB   00011100b   ;  ###
DFEC   00                     DB   00000000b   ; 
DFED                             ;100 d
DFED   02                     DB   00000010b   ;     #
DFEE   1E                     DB   00011110b   ;  ####
DFEF   22                     DB   00100010b   ; #   #
DFF0   22                     DB   00100010b   ; #   #
DFF1   1E                     DB   00011110b   ;  ####
DFF2   00                     DB   00000000b   ; 
DFF3                             ;101 e
DFF3   1C                     DB   00011100b   ;  ###
DFF4   22                     DB   00100010b   ; #   #
DFF5   3C                     DB   00111100b   ; ####
DFF6   20                     DB   00100000b   ; #
DFF7   1E                     DB   00011110b   ;  ####
DFF8   00                     DB   00000000b   ; 
DFF9                             ;102 f
DFF9   0E                     DB   00001110b   ;   ###
DFFA   10                     DB   00010000b   ;  #
DFFB   3C                     DB   00111100b   ; ####
DFFC   10                     DB   00010000b   ;  #
DFFD   10                     DB   00010000b   ;  #
DFFE   00                     DB   00000000b   ; 
DFFF                             ;103 g
DFFF   1E                     DB   00011110b   ;  ####
E000   22                     DB   00100010b   ; #   #
E001   1E                     DB   00011110b   ;  ####
E002   02                     DB   00000010b   ;     #
E003   3C                     DB   00111100b   ; ####
E004   00                     DB   00000000b   ; 
E005                             ;104 h
E005   20                     DB   00100000b   ; #
E006   20                     DB   00100000b   ; #
E007   3C                     DB   00111100b   ; ####
E008   22                     DB   00100010b   ; #   #
E009   22                     DB   00100010b   ; #   #
E00A   00                     DB   00000000b   ; 
E00B                             ;105 i
E00B   08                     DB   00001000b   ;   #
E00C   00                     DB   00000000b   ; 
E00D   08                     DB   00001000b   ;   #
E00E   08                     DB   00001000b   ;   #
E00F   08                     DB   00001000b   ;   #
E010   00                     DB   00000000b   ; 
E011                             ;106 j
E011   04                     DB   00000100b   ;    #
E012   00                     DB   00000000b   ; 
E013   04                     DB   00000100b   ;    #
E014   04                     DB   00000100b   ;    #
E015   18                     DB   00011000b   ;  ##
E016   00                     DB   00000000b   ; 
E017                             ;107 k
E017   20                     DB   00100000b   ; #
E018   24                     DB   00100100b   ; #  #
E019   28                     DB   00101000b   ; # #
E01A   34                     DB   00110100b   ; ## #
E01B   22                     DB   00100010b   ; #   #
E01C   00                     DB   00000000b   ; 
E01D                             ;108 l
E01D   08                     DB   00001000b   ;   #
E01E   08                     DB   00001000b   ;   #
E01F   08                     DB   00001000b   ;   #
E020   08                     DB   00001000b   ;   #
E021   0C                     DB   00001100b   ;   ##
E022   00                     DB   00000000b   ; 
E023                             ;109 m
E023   00                     DB   00000000b   ; 
E024   14                     DB   00010100b   ;  # #
E025   2A                     DB   00101010b   ; # # #
E026   2A                     DB   00101010b   ; # # #
E027   2A                     DB   00101010b   ; # # #
E028   00                     DB   00000000b   ; 
E029                             ;110 n
E029   00                     DB   00000000b   ; 
E02A   1C                     DB   00011100b   ;  ###
E02B   22                     DB   00100010b   ; #   #
E02C   22                     DB   00100010b   ; #   #
E02D   22                     DB   00100010b   ; #   #
E02E   00                     DB   00000000b   ; 
E02F                             ;111 o
E02F   00                     DB   00000000b   ; 
E030   1C                     DB   00011100b   ;  ###
E031   22                     DB   00100010b   ; #   #
E032   22                     DB   00100010b   ; #   #
E033   1C                     DB   00011100b   ;  ###
E034   00                     DB   00000000b   ; 
E035                             ;112 p
E035   1C                     DB   00011100b   ;  ###
E036   22                     DB   00100010b   ; #   #
E037   22                     DB   00100010b   ; #   #
E038   3C                     DB   00111100b   ; ####
E039   20                     DB   00100000b   ; #
E03A   00                     DB   00000000b   ; 
E03B                             ;113 q
E03B   1C                     DB   00011100b   ;  ###
E03C   22                     DB   00100010b   ; #   #
E03D   22                     DB   00100010b   ; #   #
E03E   1E                     DB   00011110b   ;  ####
E03F   02                     DB   00000010b   ;     #
E040   00                     DB   00000000b   ; 
E041                             ;114 r
E041   00                     DB   00000000b   ; 
E042   2C                     DB   00101100b   ; # ##
E043   30                     DB   00110000b   ; ##
E044   20                     DB   00100000b   ; #
E045   20                     DB   00100000b   ; #
E046   00                     DB   00000000b   ; 
E047                             ;115 s
E047   1C                     DB   00011100b   ;  ###
E048   20                     DB   00100000b   ; #
E049   1C                     DB   00011100b   ;  ###
E04A   02                     DB   00000010b   ;     #
E04B   3C                     DB   00111100b   ; ####
E04C   00                     DB   00000000b   ; 
E04D                             ;116 t
E04D   08                     DB   00001000b   ;   #
E04E   1C                     DB   00011100b   ;  ###
E04F   08                     DB   00001000b   ;   #
E050   08                     DB   00001000b   ;   #
E051   04                     DB   00000100b   ;    #
E052   00                     DB   00000000b   ; 
E053                             ;117 u
E053   00                     DB   00000000b   ; 
E054   22                     DB   00100010b   ; #   #
E055   22                     DB   00100010b   ; #   #
E056   22                     DB   00100010b   ; #   #
E057   1C                     DB   00011100b   ;  ###
E058   00                     DB   00000000b   ; 
E059                             ;118 v
E059   00                     DB   00000000b   ; 
E05A   22                     DB   00100010b   ; #   #
E05B   22                     DB   00100010b   ; #   #
E05C   14                     DB   00010100b   ;  # #
E05D   08                     DB   00001000b   ;   #
E05E   00                     DB   00000000b   ; 
E05F                             ;119 w
E05F   00                     DB   00000000b   ; 
E060   22                     DB   00100010b   ; #   #
E061   22                     DB   00100010b   ; #   #
E062   2A                     DB   00101010b   ; # # #
E063   36                     DB   00110110b   ; ## ##
E064   00                     DB   00000000b   ; 
E065                             ;120 x
E065   00                     DB   00000000b   ; 
E066   22                     DB   00100010b   ; #   #
E067   1C                     DB   00011100b   ;  ###
E068   1C                     DB   00011100b   ;  ###
E069   22                     DB   00100010b   ; #   #
E06A   00                     DB   00000000b   ; 
E06B                             ;121 y
E06B   22                     DB   00100010b   ; #   #
E06C   22                     DB   00100010b   ; #   #
E06D   1E                     DB   00011110b   ;  ####
E06E   02                     DB   00000010b   ;     #
E06F   3C                     DB   00111100b   ; ####
E070   00                     DB   00000000b   ; 
E071                             ;122 z
E071   00                     DB   00000000b   ; 
E072   3C                     DB   00111100b   ; ####
E073   08                     DB   00001000b   ;   #
E074   10                     DB   00010000b   ;  #
E075   3C                     DB   00111100b   ; ####
E076   00                     DB   00000000b   ; 
E077                             ;123 {
E077   0C                     DB   00001100b   ;   ##
E078   08                     DB   00001000b   ;   #
E079   10                     DB   00010000b   ;  #
E07A   08                     DB   00001000b   ;   #
E07B   0C                     DB   00001100b   ;   ##
E07C   00                     DB   00000000b   ; 
E07D                             ;124 |
E07D   08                     DB   00001000b   ;   #
E07E   08                     DB   00001000b   ;   #
E07F   08                     DB   00001000b   ;   #
E080   08                     DB   00001000b   ;   #
E081   08                     DB   00001000b   ;   #
E082   00                     DB   00000000b   ; 
E083                             ;125 }
E083   18                     DB   00011000b   ;  ##
E084   08                     DB   00001000b   ;   #
E085   04                     DB   00000100b   ;    #
E086   08                     DB   00001000b   ;   #
E087   18                     DB   00011000b   ;  ##
E088   00                     DB   00000000b   ; 
E089                             ;126 ~
E089   14                     DB   00010100b   ;  # #
E08A   28                     DB   00101000b   ; # #
E08B   00                     DB   00000000b   ; 
E08C   00                     DB   00000000b   ; 
E08D   00                     DB   00000000b   ; 
E08E   00                     DB   00000000b   ; 
E08F                             ;127
E08F   2A                     DB   00101010b   ; # # #
E090   15                     DB   00010101b   ;  # # #
E091   2A                     DB   00101010b   ; # # #
E092   15                     DB   00010101b   ;  # # #
E093   2A                     DB   00101010b   ; # # #
E094   15                     DB   00010101b   ;  # # #
E095                             ;128
E095   00                     DB   00000000b   ; 
E096   00                     DB   00000000b   ; 
E097   00                     DB   00000000b   ; 
E098   00                     DB   00000000b   ; 
E099   00                     DB   00000000b   ; 
E09A   00                     DB   00000000b   ; 
E09B                             ;129
E09B   38                     DB   00111000b   ; ###
E09C   38                     DB   00111000b   ; ###
E09D   38                     DB   00111000b   ; ###
E09E   00                     DB   00000000b   ; 
E09F   00                     DB   00000000b   ; 
E0A0   00                     DB   00000000b   ; 
E0A1                             ;130
E0A1   07                     DB   00000111b   ;    ###
E0A2   07                     DB   00000111b   ;    ###
E0A3   07                     DB   00000111b   ;    ###
E0A4   00                     DB   00000000b   ; 
E0A5   00                     DB   00000000b   ; 
E0A6   00                     DB   00000000b   ; 
E0A7                             ;131
E0A7   3F                     DB   00111111b   ; ######
E0A8   3F                     DB   00111111b   ; ######
E0A9   3F                     DB   00111111b   ; ######
E0AA   00                     DB   00000000b   ; 
E0AB   00                     DB   00000000b   ; 
E0AC   00                     DB   00000000b   ; 
E0AD                             ;132
E0AD   00                     DB   00000000b   ; 
E0AE   00                     DB   00000000b   ; 
E0AF   00                     DB   00000000b   ; 
E0B0   38                     DB   00111000b   ; ###
E0B1   38                     DB   00111000b   ; ###
E0B2   38                     DB   00111000b   ; ###
E0B3                             ;133
E0B3   38                     DB   00111000b   ; ###
E0B4   38                     DB   00111000b   ; ###
E0B5   38                     DB   00111000b   ; ###
E0B6   38                     DB   00111000b   ; ###
E0B7   38                     DB   00111000b   ; ###
E0B8   38                     DB   00111000b   ; ###
E0B9                             ;134
E0B9   07                     DB   00000111b   ;    ###
E0BA   07                     DB   00000111b   ;    ###
E0BB   07                     DB   00000111b   ;    ###
E0BC   38                     DB   00111000b   ; ###
E0BD   38                     DB   00111000b   ; ###
E0BE   38                     DB   00111000b   ; ###
E0BF                             ;135
E0BF   3F                     DB   00111111b   ; ######
E0C0   3F                     DB   00111111b   ; ######
E0C1   3F                     DB   00111111b   ; ######
E0C2   38                     DB   00111000b   ; ###
E0C3   38                     DB   00111000b   ; ###
E0C4   38                     DB   00111000b   ; ###
E0C5                             ;136
E0C5   00                     DB   00000000b   ; 
E0C6   00                     DB   00000000b   ; 
E0C7   00                     DB   00000000b   ; 
E0C8   07                     DB   00000111b   ;    ###
E0C9   07                     DB   00000111b   ;    ###
E0CA   07                     DB   00000111b   ;    ###
E0CB                             ;137
E0CB   38                     DB   00111000b   ; ###
E0CC   38                     DB   00111000b   ; ###
E0CD   38                     DB   00111000b   ; ###
E0CE   07                     DB   00000111b   ;    ###
E0CF   07                     DB   00000111b   ;    ###
E0D0   07                     DB   00000111b   ;    ###
E0D1                             ;138
E0D1   07                     DB   00000111b   ;    ###
E0D2   07                     DB   00000111b   ;    ###
E0D3   07                     DB   00000111b   ;    ###
E0D4   07                     DB   00000111b   ;    ###
E0D5   07                     DB   00000111b   ;    ###
E0D6   07                     DB   00000111b   ;    ###
E0D7                             ;139
E0D7   3F                     DB   00111111b   ; ######
E0D8   3F                     DB   00111111b   ; ######
E0D9   3F                     DB   00111111b   ; ######
E0DA   07                     DB   00000111b   ;    ###
E0DB   07                     DB   00000111b   ;    ###
E0DC   07                     DB   00000111b   ;    ###
E0DD                             ;140
E0DD   00                     DB   00000000b   ; 
E0DE   00                     DB   00000000b   ; 
E0DF   00                     DB   00000000b   ; 
E0E0   3F                     DB   00111111b   ; ######
E0E1   3F                     DB   00111111b   ; ######
E0E2   3F                     DB   00111111b   ; ######
E0E3                             ;141
E0E3   38                     DB   00111000b   ; ###
E0E4   38                     DB   00111000b   ; ###
E0E5   38                     DB   00111000b   ; ###
E0E6   3F                     DB   00111111b   ; ######
E0E7   3F                     DB   00111111b   ; ######
E0E8   3F                     DB   00111111b   ; ######
E0E9                             ;142
E0E9   07                     DB   00000111b   ;    ###
E0EA   07                     DB   00000111b   ;    ###
E0EB   07                     DB   00000111b   ;    ###
E0EC   3F                     DB   00111111b   ; ######
E0ED   3F                     DB   00111111b   ; ######
E0EE   3F                     DB   00111111b   ; ######
E0EF                             ;143
E0EF   3F                     DB   00111111b   ; ######
E0F0   3F                     DB   00111111b   ; ######
E0F1   3F                     DB   00111111b   ; ######
E0F2   3F                     DB   00111111b   ; ######
E0F3   3F                     DB   00111111b   ; ######
E0F4   3F                     DB   00111111b   ; ######
E0F5                             ;144
E0F5   00                     DB   00000000b   ; 
E0F6   00                     DB   00000000b   ; 
E0F7   0C                     DB   00001100b   ;   ##
E0F8   0C                     DB   00001100b   ;   ##
E0F9   00                     DB   00000000b   ; 
E0FA   00                     DB   00000000b   ; 
E0FB                             ;145
E0FB   0C                     DB   00001100b   ;   ##
E0FC   0C                     DB   00001100b   ;   ##
E0FD   0C                     DB   00001100b   ;   ##
E0FE   0C                     DB   00001100b   ;   ##
E0FF   00                     DB   00000000b   ; 
E100   00                     DB   00000000b   ; 
E101                             ;146
E101   00                     DB   00000000b   ; 
E102   00                     DB   00000000b   ; 
E103   0F                     DB   00001111b   ;   ####
E104   0F                     DB   00001111b   ;   ####
E105   00                     DB   00000000b   ; 
E106   00                     DB   00000000b   ; 
E107                             ;147
E107   0C                     DB   00001100b   ;   ##
E108   0C                     DB   00001100b   ;   ##
E109   0F                     DB   00001111b   ;   ####
E10A   07                     DB   00000111b   ;    ###
E10B   00                     DB   00000000b   ; 
E10C   00                     DB   00000000b   ; 
E10D                             ;148
E10D   00                     DB   00000000b   ; 
E10E   00                     DB   00000000b   ; 
E10F   0C                     DB   00001100b   ;   ##
E110   0C                     DB   00001100b   ;   ##
E111   0C                     DB   00001100b   ;   ##
E112   0C                     DB   00001100b   ;   ##
E113                             ;149
E113   0C                     DB   00001100b   ;   ##
E114   0C                     DB   00001100b   ;   ##
E115   0C                     DB   00001100b   ;   ##
E116   0C                     DB   00001100b   ;   ##
E117   0C                     DB   00001100b   ;   ##
E118   0C                     DB   00001100b   ;   ##
E119                             ;150
E119   00                     DB   00000000b   ; 
E11A   00                     DB   00000000b   ; 
E11B   07                     DB   00000111b   ;    ###
E11C   0F                     DB   00001111b   ;   ####
E11D   0C                     DB   00001100b   ;   ##
E11E   0C                     DB   00001100b   ;   ##
E11F                             ;151
E11F   0C                     DB   00001100b   ;   ##
E120   0C                     DB   00001100b   ;   ##
E121   0F                     DB   00001111b   ;   ####
E122   0F                     DB   00001111b   ;   ####
E123   0C                     DB   00001100b   ;   ##
E124   0C                     DB   00001100b   ;   ##
E125                             ;152
E125   00                     DB   00000000b   ; 
E126   00                     DB   00000000b   ; 
E127   3C                     DB   00111100b   ; ####
E128   3C                     DB   00111100b   ; ####
E129   00                     DB   00000000b   ; 
E12A   00                     DB   00000000b   ; 
E12B                             ;153
E12B   0C                     DB   00001100b   ;   ##
E12C   0C                     DB   00001100b   ;   ##
E12D   3C                     DB   00111100b   ; ####
E12E   38                     DB   00111000b   ; ###
E12F   00                     DB   00000000b   ; 
E130   00                     DB   00000000b   ; 
E131                             ;154
E131   00                     DB   00000000b   ; 
E132   00                     DB   00000000b   ; 
E133   3F                     DB   00111111b   ; ######
E134   3F                     DB   00111111b   ; ######
E135   00                     DB   00000000b   ; 
E136   00                     DB   00000000b   ; 
E137                             ;155
E137   0C                     DB   00001100b   ;   ##
E138   0C                     DB   00001100b   ;   ##
E139   3F                     DB   00111111b   ; ######
E13A   3F                     DB   00111111b   ; ######
E13B   00                     DB   00000000b   ; 
E13C   00                     DB   00000000b   ; 
E13D                             ;156
E13D   00                     DB   00000000b   ; 
E13E   00                     DB   00000000b   ; 
E13F   38                     DB   00111000b   ; ###
E140   3C                     DB   00111100b   ; ####
E141   0C                     DB   00001100b   ;   ##
E142   0C                     DB   00001100b   ;   ##
E143                             ;157
E143   0C                     DB   00001100b   ;   ##
E144   0C                     DB   00001100b   ;   ##
E145   3C                     DB   00111100b   ; ####
E146   3C                     DB   00111100b   ; ####
E147   0C                     DB   00001100b   ;   ##
E148   0C                     DB   00001100b   ;   ##
E149                             ;158
E149   00                     DB   00000000b   ; 
E14A   00                     DB   00000000b   ; 
E14B   3F                     DB   00111111b   ; ######
E14C   3F                     DB   00111111b   ; ######
E14D   0C                     DB   00001100b   ;   ##
E14E   0C                     DB   00001100b   ;   ##
E14F                             ;159
E14F   0C                     DB   00001100b   ;   ##
E150   0C                     DB   00001100b   ;   ##
E151   3F                     DB   00111111b   ; ######
E152   3F                     DB   00111111b   ; ######
E153   0C                     DB   00001100b   ;   ##
E154   0C                     DB   00001100b   ;   ##
E155                             ;160
E155   00                     DB   00000000b   ; 
E156   12                     DB   00010010b   ;  #  #
E157   00                     DB   00000000b   ; 
E158   00                     DB   00000000b   ; 
E159   12                     DB   00010010b   ;  #  #
E15A   00                     DB   00000000b   ; 
E15B                             ;161
E15B   12                     DB   00010010b   ;  #  #
E15C   12                     DB   00010010b   ;  #  #
E15D   12                     DB   00010010b   ;  #  #
E15E   12                     DB   00010010b   ;  #  #
E15F   00                     DB   00000000b   ; 
E160   00                     DB   00000000b   ; 
E161                             ;162
E161   00                     DB   00000000b   ; 
E162   0F                     DB   00001111b   ;   ####
E163   00                     DB   00000000b   ; 
E164   00                     DB   00000000b   ; 
E165   0F                     DB   00001111b   ;   ####
E166   00                     DB   00000000b   ; 
E167                             ;163
E167   12                     DB   00010010b   ;  #  #
E168   13                     DB   00010011b   ;  #  ##
E169   10                     DB   00010000b   ;  #
E16A   10                     DB   00010000b   ;  #
E16B   0F                     DB   00001111b   ;   ####
E16C   00                     DB   00000000b   ; 
E16D                             ;164
E16D   00                     DB   00000000b   ; 
E16E   00                     DB   00000000b   ; 
E16F   12                     DB   00010010b   ;  #  #
E170   12                     DB   00010010b   ;  #  #
E171   12                     DB   00010010b   ;  #  #
E172   12                     DB   00010010b   ;  #  #
E173                             ;165
E173   12                     DB   00010010b   ;  #  #
E174   12                     DB   00010010b   ;  #  #
E175   12                     DB   00010010b   ;  #  #
E176   12                     DB   00010010b   ;  #  #
E177   12                     DB   00010010b   ;  #  #
E178   12                     DB   00010010b   ;  #  #
E179                             ;166
E179   00                     DB   00000000b   ; 
E17A   0F                     DB   00001111b   ;   ####
E17B   10                     DB   00010000b   ;  #
E17C   10                     DB   00010000b   ;  #
E17D   13                     DB   00010011b   ;  #  ##
E17E   12                     DB   00010010b   ;  #  #
E17F                             ;167
E17F   12                     DB   00010010b   ;  #  #
E180   13                     DB   00010011b   ;  #  ##
E181   10                     DB   00010000b   ;  #
E182   10                     DB   00010000b   ;  #
E183   13                     DB   00010011b   ;  #  ##
E184   12                     DB   00010010b   ;  #  #
E185                             ;168
E185   00                     DB   00000000b   ; 
E186   3C                     DB   00111100b   ; ####
E187   00                     DB   00000000b   ; 
E188   00                     DB   00000000b   ; 
E189   3C                     DB   00111100b   ; ####
E18A   00                     DB   00000000b   ; 
E18B                             ;169
E18B   12                     DB   00010010b   ;  #  #
E18C   32                     DB   00110010b   ; ##  #
E18D   02                     DB   00000010b   ;     #
E18E   02                     DB   00000010b   ;     #
E18F   3C                     DB   00111100b   ; ####
E190   00                     DB   00000000b   ; 
E191                             ;170
E191   00                     DB   00000000b   ; 
E192   3F                     DB   00111111b   ; ######
E193   00                     DB   00000000b   ; 
E194   00                     DB   00000000b   ; 
E195   3F                     DB   00111111b   ; ######
E196   00                     DB   00000000b   ; 
E197                             ;171
E197   12                     DB   00010010b   ;  #  #
E198   33                     DB   00110011b   ; ##  ##
E199   00                     DB   00000000b   ; 
E19A   00                     DB   00000000b   ; 
E19B   3F                     DB   00111111b   ; ######
E19C   00                     DB   00000000b   ; 
E19D                             ;172
E19D   00                     DB   00000000b   ; 
E19E   3C                     DB   00111100b   ; ####
E19F   02                     DB   00000010b   ;     #
E1A0   02                     DB   00000010b   ;     #
E1A1   32                     DB   00110010b   ; ##  #
E1A2   12                     DB   00010010b   ;  #  #
E1A3                             ;173
E1A3   12                     DB   00010010b   ;  #  #
E1A4   32                     DB   00110010b   ; ##  #
E1A5   02                     DB   00000010b   ;     #
E1A6   02                     DB   00000010b   ;     #
E1A7   32                     DB   00110010b   ; ##  #
E1A8   12                     DB   00010010b   ;  #  #
E1A9                             ;174
E1A9   00                     DB   00000000b   ; 
E1AA   3F                     DB   00111111b   ; ######
E1AB   00                     DB   00000000b   ; 
E1AC   00                     DB   00000000b   ; 
E1AD   33                     DB   00110011b   ; ##  ##
E1AE   12                     DB   00010010b   ;  #  #
E1AF                             ;175
E1AF   12                     DB   00010010b   ;  #  #
E1B0   33                     DB   00110011b   ; ##  ##
E1B1   00                     DB   00000000b   ; 
E1B2   00                     DB   00000000b   ; 
E1B3   33                     DB   00110011b   ; ##  ##
E1B4   12                     DB   00010010b   ;  #  #
E1B5                             ;176
E1B5   0C                     DB   00001100b   ;   ##
E1B6   18                     DB   00011000b   ;  ##
E1B7   30                     DB   00110000b   ; ##
E1B8   20                     DB   00100000b   ; #
E1B9   00                     DB   00000000b   ; 
E1BA   00                     DB   00000000b   ; 
E1BB                             ;177
E1BB   0C                     DB   00001100b   ;   ##
E1BC   06                     DB   00000110b   ;    ##
E1BD   03                     DB   00000011b   ;     ##
E1BE   01                     DB   00000001b   ;      #
E1BF   00                     DB   00000000b   ; 
E1C0   00                     DB   00000000b   ; 
E1C1                             ;178
E1C1   00                     DB   00000000b   ; 
E1C2   00                     DB   00000000b   ; 
E1C3   01                     DB   00000001b   ;      #
E1C4   03                     DB   00000011b   ;     ##
E1C5   06                     DB   00000110b   ;    ##
E1C6   0C                     DB   00001100b   ;   ##
E1C7                             ;179
E1C7   00                     DB   00000000b   ; 
E1C8   00                     DB   00000000b   ; 
E1C9   20                     DB   00100000b   ; #
E1CA   30                     DB   00110000b   ; ##
E1CB   18                     DB   00011000b   ;  ##
E1CC   0C                     DB   00001100b   ;   ##
E1CD                             ;180
E1CD   0C                     DB   00001100b   ;   ##
E1CE   1E                     DB   00011110b   ;  ####
E1CF   33                     DB   00110011b   ; ##  ##
E1D0   21                     DB   00100001b   ; #    #
E1D1   00                     DB   00000000b   ; 
E1D2   00                     DB   00000000b   ; 
E1D3                             ;181
E1D3   0C                     DB   00001100b   ;   ##
E1D4   06                     DB   00000110b   ;    ##
E1D5   03                     DB   00000011b   ;     ##
E1D6   03                     DB   00000011b   ;     ##
E1D7   06                     DB   00000110b   ;    ##
E1D8   0C                     DB   00001100b   ;   ##
E1D9                             ;182
E1D9   00                     DB   00000000b   ; 
E1DA   00                     DB   00000000b   ; 
E1DB   21                     DB   00100001b   ; #    #
E1DC   33                     DB   00110011b   ; ##  ##
E1DD   1E                     DB   00011110b   ;  ####
E1DE   0C                     DB   00001100b   ;   ##
E1DF                             ;183
E1DF   0C                     DB   00001100b   ;   ##
E1E0   18                     DB   00011000b   ;  ##
E1E1   30                     DB   00110000b   ; ##
E1E2   30                     DB   00110000b   ; ##
E1E3   18                     DB   00011000b   ;  ##
E1E4   0C                     DB   00001100b   ;   ##
E1E5                             ;184
E1E5   0C                     DB   00001100b   ;   ##
E1E6   18                     DB   00011000b   ;  ##
E1E7   31                     DB   00110001b   ; ##   #
E1E8   23                     DB   00100011b   ; #   ##
E1E9   06                     DB   00000110b   ;    ##
E1EA   0C                     DB   00001100b   ;   ##
E1EB                             ;185
E1EB   0C                     DB   00001100b   ;   ##
E1EC   06                     DB   00000110b   ;    ##
E1ED   23                     DB   00100011b   ; #   ##
E1EE   31                     DB   00110001b   ; ##   #
E1EF   18                     DB   00011000b   ;  ##
E1F0   0C                     DB   00001100b   ;   ##
E1F1                             ;186
E1F1   0C                     DB   00001100b   ;   ##
E1F2   1E                     DB   00011110b   ;  ####
E1F3   33                     DB   00110011b   ; ##  ##
E1F4   33                     DB   00110011b   ; ##  ##
E1F5   1E                     DB   00011110b   ;  ####
E1F6   0C                     DB   00001100b   ;   ##
E1F7                             ;187
E1F7   33                     DB   00110011b   ; ##  ##
E1F8   33                     DB   00110011b   ; ##  ##
E1F9   0C                     DB   00001100b   ;   ##
E1FA   0C                     DB   00001100b   ;   ##
E1FB   33                     DB   00110011b   ; ##  ##
E1FC   33                     DB   00110011b   ; ##  ##
E1FD                             ;188
E1FD   03                     DB   00000011b   ;     ##
E1FE   03                     DB   00000011b   ;     ##
E1FF   0C                     DB   00001100b   ;   ##
E200   0C                     DB   00001100b   ;   ##
E201   30                     DB   00110000b   ; ##
E202   30                     DB   00110000b   ; ##
E203                             ;189
E203   30                     DB   00110000b   ; ##
E204   30                     DB   00110000b   ; ##
E205   0C                     DB   00001100b   ;   ##
E206   0C                     DB   00001100b   ;   ##
E207   03                     DB   00000011b   ;     ##
E208   03                     DB   00000011b   ;     ##
E209                             ;190
E209   2A                     DB   00101010b   ; # # #
E20A   14                     DB   00010100b   ;  # #
E20B   2A                     DB   00101010b   ; # # #
E20C   14                     DB   00010100b   ;  # #
E20D   2A                     DB   00101010b   ; # # #
E20E   00                     DB   00000000b   ; 
E20F                             ;191
E20F   14                     DB   00010100b   ;  # #
E210   2A                     DB   00101010b   ; # # #
E211   14                     DB   00010100b   ;  # #
E212   2A                     DB   00101010b   ; # # #
E213   14                     DB   00010100b   ;  # #
E214   00                     DB   00000000b   ; 
E215                             ;192
E215   00                     DB   00000000b   ; 
E216   1A                     DB   00011010b   ;  ## #
E217   24                     DB   00100100b   ; #  #
E218   24                     DB   00100100b   ; #  #
E219   1A                     DB   00011010b   ;  ## #
E21A   00                     DB   00000000b   ; 
E21B                             ;193
E21B   18                     DB   00011000b   ;  ##
E21C   24                     DB   00100100b   ; #  #
E21D   2C                     DB   00101100b   ; # ##
E21E   22                     DB   00100010b   ; #   #
E21F   2C                     DB   00101100b   ; # ##
E220   00                     DB   00000000b   ; 
E221                             ;194
E221   00                     DB   00000000b   ; 
E222   22                     DB   00100010b   ; #   #
E223   1C                     DB   00011100b   ;  ###
E224   22                     DB   00100010b   ; #   #
E225   1C                     DB   00011100b   ;  ###
E226   00                     DB   00000000b   ; 
E227                             ;195
E227   1C                     DB   00011100b   ;  ###
E228   30                     DB   00110000b   ; ##
E229   1C                     DB   00011100b   ;  ###
E22A   22                     DB   00100010b   ; #   #
E22B   1C                     DB   00011100b   ;  ###
E22C   00                     DB   00000000b   ; 
E22D                             ;196
E22D   0E                     DB   00001110b   ;   ###
E22E   30                     DB   00110000b   ; ##
E22F   3C                     DB   00111100b   ; ####
E230   30                     DB   00110000b   ; ##
E231   0E                     DB   00001110b   ;   ###
E232   00                     DB   00000000b   ; 
E233                             ;197
E233   1C                     DB   00011100b   ;  ###
E234   22                     DB   00100010b   ; #   #
E235   3E                     DB   00111110b   ; #####
E236   22                     DB   00100010b   ; #   #
E237   1C                     DB   00011100b   ;  ###
E238   00                     DB   00000000b   ; 
E239                             ;198
E239   20                     DB   00100000b   ; #
E23A   10                     DB   00010000b   ;  #
E23B   08                     DB   00001000b   ;   #
E23C   14                     DB   00010100b   ;  # #
E23D   22                     DB   00100010b   ; #   #
E23E   00                     DB   00000000b   ; 
E23F                             ;199
E23F   24                     DB   00100100b   ; #  #
E240   24                     DB   00100100b   ; #  #
E241   38                     DB   00111000b   ; ###
E242   20                     DB   00100000b   ; #
E243   20                     DB   00100000b   ; #
E244   00                     DB   00000000b   ; 
E245                             ;200
E245   00                     DB   00000000b   ; 
E246   3E                     DB   00111110b   ; #####
E247   14                     DB   00010100b   ;  # #
E248   14                     DB   00010100b   ;  # #
E249   24                     DB   00100100b   ; #  #
E24A   00                     DB   00000000b   ; 
E24B                             ;201
E24B   00                     DB   00000000b   ; 
E24C   1E                     DB   00011110b   ;  ####
E24D   34                     DB   00110100b   ; ## #
E24E   34                     DB   00110100b   ; ## #
E24F   18                     DB   00011000b   ;  ##
E250   00                     DB   00000000b   ; 
E251                             ;202
E251   06                     DB   00000110b   ;    ##
E252   1C                     DB   00011100b   ;  ###
E253   36                     DB   00110110b   ; ## ##
E254   1C                     DB   00011100b   ;  ###
E255   30                     DB   00110000b   ; ##
E256   00                     DB   00000000b   ; 
E257                             ;203
E257   06                     DB   00000110b   ;    ##
E258   04                     DB   00000100b   ;    #
E259   36                     DB   00110110b   ; ## ##
E25A   1C                     DB   00011100b   ;  ###
E25B   30                     DB   00110000b   ; ##
E25C   00                     DB   00000000b   ; 
E25D                             ;204
E25D   32                     DB   00110010b   ; ##  #
E25E   1C                     DB   00011100b   ;  ###
E25F   0C                     DB   00001100b   ;   ##
E260   16                     DB   00010110b   ;  # ##
E261   22                     DB   00100010b   ; #   #
E262   00                     DB   00000000b   ; 
E263                             ;205
E263   00                     DB   00000000b   ; 
E264   14                     DB   00010100b   ;  # #
E265   22                     DB   00100010b   ; #   #
E266   2A                     DB   00101010b   ; # # #
E267   1C                     DB   00011100b   ;  ###
E268   00                     DB   00000000b   ; 
E269                             ;206
E269   3E                     DB   00111110b   ; #####
E26A   12                     DB   00010010b   ;  #  #
E26B   08                     DB   00001000b   ;   #
E26C   12                     DB   00010010b   ;  #  #
E26D   3E                     DB   00111110b   ; #####
E26E   00                     DB   00000000b   ; 
E26F                             ;207
E26F   1C                     DB   00011100b   ;  ###
E270   22                     DB   00100010b   ; #   #
E271   22                     DB   00100010b   ; #   #
E272   14                     DB   00010100b   ;  # #
E273   36                     DB   00110110b   ; ## ##
E274   00                     DB   00000000b   ; 
E275                             ;208
E275   1C                     DB   00011100b   ;  ###
E276   1C                     DB   00011100b   ;  ###
E277   0A                     DB   00001010b   ;   # #
E278   1C                     DB   00011100b   ;  ###
E279   28                     DB   00101000b   ; # #
E27A   08                     DB   00001000b   ;   #
E27B                             ;209
E27B   1C                     DB   00011100b   ;  ###
E27C   1C                     DB   00011100b   ;  ###
E27D   28                     DB   00101000b   ; # #
E27E   1C                     DB   00011100b   ;  ###
E27F   0A                     DB   00001010b   ;   # #
E280   08                     DB   00001000b   ;   #
E281                             ;210
E281   1C                     DB   00011100b   ;  ###
E282   1C                     DB   00011100b   ;  ###
E283   2A                     DB   00101010b   ; # # #
E284   1C                     DB   00011100b   ;  ###
E285   08                     DB   00001000b   ;   #
E286   08                     DB   00001000b   ;   #
E287                             ;211
E287   1C                     DB   00011100b   ;  ###
E288   1C                     DB   00011100b   ;  ###
E289   08                     DB   00001000b   ;   #
E28A   1C                     DB   00011100b   ;  ###
E28B   2A                     DB   00101010b   ; # # #
E28C   08                     DB   00001000b   ;   #
E28D                             ;212
E28D   14                     DB   00010100b   ;  # #
E28E   00                     DB   00000000b   ; 
E28F   14                     DB   00010100b   ;  # #
E290   14                     DB   00010100b   ;  # #
E291   1C                     DB   00011100b   ;  ###
E292   00                     DB   00000000b   ; 
E293                             ;213
E293   14                     DB   00010100b   ;  # #
E294   00                     DB   00000000b   ; 
E295   1C                     DB   00011100b   ;  ###
E296   14                     DB   00010100b   ;  # #
E297   1C                     DB   00011100b   ;  ###
E298   00                     DB   00000000b   ; 
E299                             ;214
E299   14                     DB   00010100b   ;  # #
E29A   00                     DB   00000000b   ; 
E29B   1C                     DB   00011100b   ;  ###
E29C   14                     DB   00010100b   ;  # #
E29D   1E                     DB   00011110b   ;  ####
E29E   00                     DB   00000000b   ; 
E29F                             ;215
E29F   14                     DB   00010100b   ;  # #
E2A0   00                     DB   00000000b   ; 
E2A1   1C                     DB   00011100b   ;  ###
E2A2   14                     DB   00010100b   ;  # #
E2A3   14                     DB   00010100b   ;  # #
E2A4   00                     DB   00000000b   ; 
E2A5                             ;216
E2A5   28                     DB   00101000b   ; # #
E2A6   2C                     DB   00101100b   ; # ##
E2A7   3E                     DB   00111110b   ; #####
E2A8   0C                     DB   00001100b   ;   ##
E2A9   08                     DB   00001000b   ;   #
E2AA   00                     DB   00000000b   ; 
E2AB                             ;217
E2AB   0A                     DB   00001010b   ;   # #
E2AC   1A                     DB   00011010b   ;  ## #
E2AD   3E                     DB   00111110b   ; #####
E2AE   18                     DB   00011000b   ;  ##
E2AF   08                     DB   00001000b   ;   #
E2B0   00                     DB   00000000b   ; 
E2B1                             ;218
E2B1   08                     DB   00001000b   ;   #
E2B2   1C                     DB   00011100b   ;  ###
E2B3   08                     DB   00001000b   ;   #
E2B4   00                     DB   00000000b   ; 
E2B5   1C                     DB   00011100b   ;  ###
E2B6   00                     DB   00000000b   ; 
E2B7                             ;219
E2B7   08                     DB   00001000b   ;   #
E2B8   00                     DB   00000000b   ; 
E2B9   3E                     DB   00111110b   ; #####
E2BA   00                     DB   00000000b   ; 
E2BB   08                     DB   00001000b   ;   #
E2BC   00                     DB   00000000b   ; 
E2BD                             ;220
E2BD   04                     DB   00000100b   ;    #
E2BE   08                     DB   00001000b   ;   #
E2BF   10                     DB   00010000b   ;  #
E2C0   08                     DB   00001000b   ;   #
E2C1   1C                     DB   00011100b   ;  ###
E2C2   00                     DB   00000000b   ; 
E2C3                             ;221
E2C3   10                     DB   00010000b   ;  #
E2C4   08                     DB   00001000b   ;   #
E2C5   04                     DB   00000100b   ;    #
E2C6   08                     DB   00001000b   ;   #
E2C7   1C                     DB   00011100b   ;  ###
E2C8   00                     DB   00000000b   ; 
E2C9                             ;222
E2C9   1C                     DB   00011100b   ;  ###
E2CA   00                     DB   00000000b   ; 
E2CB   1C                     DB   00011100b   ;  ###
E2CC   00                     DB   00000000b   ; 
E2CD   1C                     DB   00011100b   ;  ###
E2CE   00                     DB   00000000b   ; 
E2CF                             ;223
E2CF   06                     DB   00000110b   ;    ##
E2D0   04                     DB   00000100b   ;    #
E2D1   34                     DB   00110100b   ; ## #
E2D2   14                     DB   00010100b   ;  # #
E2D3   08                     DB   00001000b   ;   #
E2D4   00                     DB   00000000b   ; 
E2D5                             ;224
E2D5   1E                     DB   00011110b   ;  ####
E2D6   0E                     DB   00001110b   ;   ###
E2D7   0E                     DB   00001110b   ;   ###
E2D8   12                     DB   00010010b   ;  #  #
E2D9   20                     DB   00100000b   ; #
E2DA   00                     DB   00000000b   ; 
E2DB                             ;225
E2DB   20                     DB   00100000b   ; #
E2DC   12                     DB   00010010b   ;  #  #
E2DD   0E                     DB   00001110b   ;   ###
E2DE   0E                     DB   00001110b   ;   ###
E2DF   1E                     DB   00011110b   ;  ####
E2E0   00                     DB   00000000b   ; 
E2E1                             ;226
E2E1   02                     DB   00000010b   ;      #
E2E2   24                     DB   00100100b   ;  #  #
E2E3   38                     DB   00111000b   ;  ###
E2E4   38                     DB   00111000b   ;  ###
E2E5   3C                     DB   00111100b   ;  ####
E2E6   00                     DB   00000000b   ; 
E2E7                             ;227
E2E7   3C                     DB   00111100b   ; ####
E2E8   38                     DB   00111000b   ; ###
E2E9   38                     DB   00111000b   ; ###
E2EA   24                     DB   00100100b   ; #  #
E2EB   02                     DB   00000010b   ;     #
E2EC   00                     DB   00000000b   ; 
E2ED                             ;228
E2ED   3E                     DB   00111110b   ; #####
E2EE   22                     DB   00100010b   ; #   #
E2EF   22                     DB   00100010b   ; #   #
E2F0   22                     DB   00100010b   ; #   #
E2F1   3E                     DB   00111110b   ; #####
E2F2   00                     DB   00000000b   ; 
E2F3                             ;229
E2F3   3E                     DB   00111110b   ; #####
E2F4   26                     DB   00100110b   ; #  ##
E2F5   2A                     DB   00101010b   ; # # #
E2F6   32                     DB   00110010b   ; ##  #
E2F7   3E                     DB   00111110b   ; #####
E2F8   00                     DB   00000000b   ; 
E2F9                             ;230
E2F9   08                     DB   00001000b   ;   #
E2FA   12                     DB   00010010b   ;  #  #
E2FB   24                     DB   00100100b   ; #  #
E2FC   12                     DB   00010010b   ;  #  #
E2FD   08                     DB   00001000b   ;   #
E2FE   00                     DB   00000000b   ; 
E2FF                             ;231
E2FF   08                     DB   00001000b   ;   #
E300   24                     DB   00100100b   ; #  #
E301   12                     DB   00010010b   ;  #  #
E302   24                     DB   00100100b   ; #  #
E303   08                     DB   00001000b   ;   #
E304   00                     DB   00000000b   ; 
E305                             ;232 TEC-1G
E305   1D                     DB   00011101b   ;  ### #
E306   08                     DB   00001000b   ;   #
E307   09                     DB   00001001b   ;   #  #
E308   08                     DB   00001000b   ;   #
E309   09                     DB   00001001b   ;   #  #
E30A   00                     DB   00000000b   ; 
E30B                             ;233 TEC-1G
E30B   37                     DB   00110111b   ; ## ###
E30C   04                     DB   00000100b   ;    #
E30D   34                     DB   00110100b   ; ## #
E30E   04                     DB   00000100b   ;    #
E30F   37                     DB   00110111b   ; ## ###
E310   00                     DB   00000000b   ; 
E311                             ;234 TEC-1G
E311   00                     DB   00000000b   ; 
E312   01                     DB   00000001b   ;      #
E313   1C                     DB   00011100b   ;  ###
E314   00                     DB   00000000b   ; 
E315   00                     DB   00000000b   ; 
E316   00                     DB   00000000b   ; 
E317                             ;235 TEC-1G
E317   2E                     DB   00101110b   ; # ###
E318   28                     DB   00101000b   ; # #
E319   2A                     DB   00101010b   ; # # #
E31A   2A                     DB   00101010b   ; # # #
E31B   2E                     DB   00101110b   ; # ###
E31C   00                     DB   00000000b   ; 
E31D                             ;236 Z80
E31D   1D                     DB   00011101b   ;  ### #
E31E   05                     DB   00000101b   ;    # #
E31F   09                     DB   00001001b   ;   #  #
E320   11                     DB   00010001b   ;  #   #
E321   1D                     DB   00011101b   ;  ### #
E322   00                     DB   00000000b   ; 
E323                             ;237 Z80
E323   37                     DB   00110111b   ; ## ###
E324   15                     DB   00010101b   ;  # # #
E325   35                     DB   00110101b   ; ## # #
E326   15                     DB   00010101b   ;  # # #
E327   37                     DB   00110111b   ; ## ###
E328   00                     DB   00000000b   ; 
E329                             ;238 CPU
E329   1D                     DB   00011101b   ;  ### #
E32A   11                     DB   00010001b   ;  #   #
E32B   11                     DB   00010001b   ;  #   #
E32C   11                     DB   00010001b   ;  #   #
E32D   1D                     DB   00011101b   ;  ### #
E32E   00                     DB   00000000b   ; 
E32F                             ;239 CPU
E32F   35                     DB   00110101b   ; ## # #
E330   15                     DB   00010101b   ;  # # #
E331   35                     DB   00110101b   ; ## # #
E332   05                     DB   00000101b   ;    # #
E333   07                     DB   00000111b   ;    ###
E334   00                     DB   00000000b   ; 
E335                             ;240
E335   00                     DB   00000000b   ; 
E336   00                     DB   00000000b   ; 
E337   00                     DB   00000000b   ; 
E338   00                     DB   00000000b   ; 
E339   00                     DB   00000000b   ; 
E33A   00                     DB   00000000b   ; 
E33B                             ;241
E33B   00                     DB   00000000b   ; 
E33C   00                     DB   00000000b   ; 
E33D   00                     DB   00000000b   ; 
E33E   00                     DB   00000000b   ; 
E33F   00                     DB   00000000b   ; 
E340   00                     DB   00000000b   ; 
E341                             ;242
E341   00                     DB   00000000b   ; 
E342   00                     DB   00000000b   ; 
E343   00                     DB   00000000b   ; 
E344   00                     DB   00000000b   ; 
E345   00                     DB   00000000b   ; 
E346   00                     DB   00000000b   ; 
E347                             ;243
E347   00                     DB   00000000b   ; 
E348   00                     DB   00000000b   ; 
E349   00                     DB   00000000b   ; 
E34A   00                     DB   00000000b   ; 
E34B   00                     DB   00000000b   ; 
E34C   00                     DB   00000000b   ; 
E34D                             ;244
E34D   00                     DB   00000000b   ; 
E34E   00                     DB   00000000b   ; 
E34F   00                     DB   00000000b   ; 
E350   00                     DB   00000000b   ; 
E351   00                     DB   00000000b   ; 
E352   00                     DB   00000000b   ; 
E353                             ;245
E353   00                     DB   00000000b   ; 
E354   00                     DB   00000000b   ; 
E355   00                     DB   00000000b   ; 
E356   00                     DB   00000000b   ; 
E357   00                     DB   00000000b   ; 
E358   00                     DB   00000000b   ; 
E359                             ;246
E359   00                     DB   00000000b   ; 
E35A   00                     DB   00000000b   ; 
E35B   00                     DB   00000000b   ; 
E35C   00                     DB   00000000b   ; 
E35D   00                     DB   00000000b   ; 
E35E   00                     DB   00000000b   ; 
E35F                             ;247
E35F   00                     DB   00000000b   ; 
E360   00                     DB   00000000b   ; 
E361   00                     DB   00000000b   ; 
E362   00                     DB   00000000b   ; 
E363   00                     DB   00000000b   ; 
E364   00                     DB   00000000b   ; 
E365                             ;248
E365   00                     DB   00000000b   ; 
E366   00                     DB   00000000b   ; 
E367   00                     DB   00000000b   ; 
E368   00                     DB   00000000b   ; 
E369   00                     DB   00000000b   ; 
E36A   00                     DB   00000000b   ; 
E36B                             ;249
E36B   00                     DB   00000000b   ; 
E36C   00                     DB   00000000b   ; 
E36D   00                     DB   00000000b   ; 
E36E   00                     DB   00000000b   ; 
E36F   00                     DB   00000000b   ; 
E370   00                     DB   00000000b   ; 
E371                             ;250
E371   00                     DB   00000000b   ; 
E372   00                     DB   00000000b   ; 
E373   00                     DB   00000000b   ; 
E374   00                     DB   00000000b   ; 
E375   00                     DB   00000000b   ; 
E376   00                     DB   00000000b   ; 
E377                             ;251
E377   00                     DB   00000000b   ; 
E378   00                     DB   00000000b   ; 
E379   00                     DB   00000000b   ; 
E37A   00                     DB   00000000b   ; 
E37B   00                     DB   00000000b   ; 
E37C   00                     DB   00000000b   ; 
E37D                             ;252
E37D   00                     DB   00000000b   ; 
E37E   00                     DB   00000000b   ; 
E37F   00                     DB   00000000b   ; 
E380   00                     DB   00000000b   ; 
E381   00                     DB   00000000b   ; 
E382   00                     DB   00000000b   ; 
E383                             ;253
E383   00                     DB   00000000b   ; 
E384   00                     DB   00000000b   ; 
E385   00                     DB   00000000b   ; 
E386   00                     DB   00000000b   ; 
E387   00                     DB   00000000b   ; 
E388   00                     DB   00000000b   ; 
E389                             ;254
E389   00                     DB   00000000b   ; 
E38A   00                     DB   00000000b   ; 
E38B   00                     DB   00000000b   ; 
E38C   00                     DB   00000000b   ; 
E38D   00                     DB   00000000b   ; 
E38E   00                     DB   00000000b   ; 
E38F                             ;255
E38F   00                     DB   00000000b   ; 
E390   00                     DB   00000000b   ; 
E391   00                     DB   00000000b   ; 
E392   00                     DB   00000000b   ; 
E393   00                     DB   00000000b   ; 
E394   00                     DB   00000000b   ; 
E395                             ;256
E395   00                     DB   00000000b   ; 
E396   00                     DB   00000000b   ; 
E397   00                     DB   00000000b   ; 
E398   00                     DB   00000000b   ; 
E399   00                     DB   00000000b   ; 
E39A   01                     DB   00000001b   ;      #
E39B                             ; TEC Welcome Banner (Credit to James Elphick)
E39B                GLCD_BANNER:      
E39B   FF FF FF FF FF FF FF FF FF FF FF FF FF FF FF FC DB   0FFh,0FFh,0FFh,0FFh,0FFh,0FFh,0FFh,0FFh,0FFh,0FFh,0FFh,0FFh,0FFh,0FFh,0FFh,0FCh   
E3AB   84 00 08 00 10 00 01 08 00 10 00 01 00 00 00 04 DB   084h,00h,08h,00h,010h,00h,01h,08h,00h,010h,00h,01h,00h,00h,00h,04h   
E3BB   84 00 08 00 10 00 01 08 00 10 00 01 00 00 00 04 DB   084h,00h,08h,00h,010h,00h,01h,08h,00h,010h,00h,01h,00h,00h,00h,04h   
E3CB   84 00 08 00 10 00 01 08 00 10 00 01 00 00 00 04 DB   084h,00h,08h,00h,010h,00h,01h,08h,00h,010h,00h,01h,00h,00h,00h,04h   
E3DB   84 00 08 00 10 00 01 08 00 10 00 01 00 00 00 04 DB   084h,00h,08h,00h,010h,00h,01h,08h,00h,010h,00h,01h,00h,00h,00h,04h   
E3EB   87 E1 08 7E 10 FC 21 08 43 F0 FC 3F 0F FF FF 84 DB   087h,0E1h,08h,07Eh,010h,0FCh,021h,08h,043h,0F0h,0FCh,03Fh,0Fh,0FFh,0FFh,084h   
E3FB   84 01 08 40 10 80 20 08 40 00 84 00 08 00 00 84 DB   084h,01h,08h,040h,010h,080h,020h,08h,040h,00h,084h,00h,08h,00h,00h,084h   
E40B   84 01 08 40 10 80 20 08 40 00 84 00 08 00 00 84 DB   084h,01h,08h,040h,010h,080h,020h,08h,040h,00h,084h,00h,08h,00h,00h,084h   
E41B   84 01 08 40 10 80 20 08 40 00 84 00 08 00 00 84 DB   084h,01h,08h,040h,010h,080h,020h,08h,040h,00h,084h,00h,08h,00h,00h,084h   
E42B   84 01 08 40 10 80 20 08 40 00 84 00 08 00 00 84 DB   084h,01h,08h,040h,010h,080h,020h,08h,040h,00h,084h,00h,08h,00h,00h,084h   
E43B   84 3F 08 43 F0 87 FF F8 7F FF 87 E1 F8 7F F0 84 DB   084h,03Fh,08h,043h,0F0h,087h,0FFh,0F8h,07Fh,0FFh,087h,0E1h,0F8h,07Fh,0F0h,084h   
E44B   80 20 00 42 00 80 00 00 40 00 00 20 00 40 00 84 DB   080h,020h,00h,042h,00h,080h,00h,00h,040h,00h,00h,020h,00h,040h,00h,084h   
E45B   80 20 00 42 00 80 00 00 40 00 00 20 00 40 00 84 DB   080h,020h,00h,042h,00h,080h,00h,00h,040h,00h,00h,020h,00h,040h,00h,084h   
E46B   80 20 00 42 00 80 00 00 40 00 00 20 00 40 00 84 DB   080h,020h,00h,042h,00h,080h,00h,00h,040h,00h,00h,020h,00h,040h,00h,084h   
E47B   80 20 00 42 00 80 00 00 40 00 00 20 00 40 00 84 DB   080h,020h,00h,042h,00h,080h,00h,00h,040h,00h,00h,020h,00h,040h,00h,084h   
E48B   FF E1 FF FF FF FF FF FF FF FF FF FF FF FE 1F 84 DB   0FFh,0E1h,0FFh,0FFh,0FFh,0FFh,0FFh,0FFh,0FFh,0FFh,0FFh,0FFh,0FFh,0FEh,01Fh,084h   
E49B   80 20 08 00 00 00 00 00 00 00 00 00 00 00 10 04 DB   080h,020h,08h,00h,00h,00h,00h,00h,00h,00h,00h,00h,00h,00h,010h,04h   
E4AB   80 20 08 00 00 00 00 00 00 00 00 00 00 00 10 04 DB   080h,020h,08h,00h,00h,00h,00h,00h,00h,00h,00h,00h,00h,00h,010h,04h   
E4BB   80 20 08 00 00 00 00 00 00 00 00 00 00 00 10 04 DB   080h,020h,08h,00h,00h,00h,00h,00h,00h,00h,00h,00h,00h,00h,010h,04h   
E4CB   80 20 08 1F FE 7F F0 7F C0 0F C1 FF 00 00 10 04 DB   080h,020h,08h,01Fh,0FEh,07Fh,0F0h,07Fh,0C0h,0Fh,0C1h,0FFh,00h,00h,010h,04h   
E4DB   84 3F 08 1F FE 7F F0 FF E0 0F C3 FF 80 7E 10 84 DB   084h,03Fh,08h,01Fh,0FEh,07Fh,0F0h,0FFh,0E0h,0Fh,0C3h,0FFh,080h,07Eh,010h,084h   
E4EB   84 00 08 1F FE 7F F1 FF E0 0F C7 FF 80 40 10 84 DB   084h,00h,08h,01Fh,0FEh,07Fh,0F1h,0FFh,0E0h,0Fh,0C7h,0FFh,080h,040h,010h,084h   
E4FB   84 00 08 01 E0 00 01 F1 C0 03 C7 C7 00 40 10 84 DB   084h,00h,08h,01h,0E0h,00h,01h,0F1h,0C0h,03h,0C7h,0C7h,00h,040h,010h,084h   
E50B   84 00 08 01 E0 00 03 E0 00 03 CF 80 00 40 10 84 DB   084h,00h,08h,01h,0E0h,00h,03h,0E0h,00h,03h,0CFh,080h,00h,040h,010h,084h   
E51B   84 00 08 01 E0 00 03 C0 00 03 CF 00 00 40 10 84 DB   084h,00h,08h,01h,0E0h,00h,03h,0C0h,00h,03h,0CFh,00h,00h,040h,010h,084h   
E52B   87 FF F8 01 E0 7F F3 C0 00 03 CF 00 00 43 F0 FC DB   087h,0FFh,0F8h,01h,0E0h,07Fh,0F3h,0C0h,00h,03h,0CFh,00h,00h,043h,0F0h,0FCh   
E53B   80 20 08 01 E0 7F F3 C0 07 E3 CF 03 80 40 10 04 DB   080h,020h,08h,01h,0E0h,07Fh,0F3h,0C0h,07h,0E3h,0CFh,03h,080h,040h,010h,04h   
E54B   80 20 08 01 E0 7F F3 C0 07 E3 CF 03 C0 40 10 04 DB   080h,020h,08h,01h,0E0h,07Fh,0F3h,0C0h,07h,0E3h,0CFh,03h,0C0h,040h,010h,04h   
E55B   80 20 08 01 E0 00 03 C0 07 E3 CF 03 C0 40 10 04 DB   080h,020h,08h,01h,0E0h,00h,03h,0C0h,07h,0E3h,0CFh,03h,0C0h,040h,010h,04h   
E56B   80 20 08 01 E0 00 03 E0 00 03 CF 83 C0 40 10 04 DB   080h,020h,08h,01h,0E0h,00h,03h,0E0h,00h,03h,0CFh,083h,0C0h,040h,010h,04h   
E57B   FC 21 08 01 E0 00 01 F1 C0 03 C7 C7 C0 7E 1F 84 DB   0FCh,021h,08h,01h,0E0h,00h,01h,0F1h,0C0h,03h,0C7h,0C7h,0C0h,07Eh,01Fh,084h   
E58B   84 01 08 01 E0 7F F1 FF E0 03 C7 FF 80 42 00 84 DB   084h,01h,08h,01h,0E0h,07Fh,0F1h,0FFh,0E0h,03h,0C7h,0FFh,080h,042h,00h,084h   
E59B   84 01 08 01 E0 7F F0 FF E0 03 C3 FF 80 42 00 84 DB   084h,01h,08h,01h,0E0h,07Fh,0F0h,0FFh,0E0h,03h,0C3h,0FFh,080h,042h,00h,084h   
E5AB   84 01 08 01 E0 7F F0 7F C0 03 C1 FF 00 42 00 84 DB   084h,01h,08h,01h,0E0h,07Fh,0F0h,07Fh,0C0h,03h,0C1h,0FFh,00h,042h,00h,084h   
E5BB   84 01 08 00 00 00 00 00 00 00 00 00 00 42 00 84 DB   084h,01h,08h,00h,00h,00h,00h,00h,00h,00h,00h,00h,00h,042h,00h,084h   
E5CB   84 3F 08 00 00 00 00 00 00 00 00 00 00 43 F0 84 DB   084h,03Fh,08h,00h,00h,00h,00h,00h,00h,00h,00h,00h,00h,043h,0F0h,084h   
E5DB   80 20 08 00 00 00 00 00 00 00 00 00 00 42 00 84 DB   080h,020h,08h,00h,00h,00h,00h,00h,00h,00h,00h,00h,00h,042h,00h,084h   
E5EB   80 20 08 03 86 5C 77 71 DC E7 57 77 00 42 00 84 DB   080h,020h,08h,03h,086h,05Ch,077h,071h,0DCh,0E7h,057h,077h,00h,042h,00h,084h   
E5FB   80 20 08 02 85 48 15 51 15 55 52 45 00 42 00 84 DB   080h,020h,08h,02h,085h,048h,015h,051h,015h,055h,052h,045h,00h,042h,00h,084h   
E60B   80 20 08 03 B7 48 27 51 15 57 52 74 00 42 00 84 DB   080h,020h,08h,03h,0B7h,048h,027h,051h,015h,057h,052h,074h,00h,042h,00h,084h   
E61B   FC 21 F8 02 85 48 45 51 15 14 52 44 00 42 1F 84 DB   0FCh,021h,0F8h,02h,085h,048h,045h,051h,015h,014h,052h,044h,00h,042h,01Fh,084h   
E62B   80 20 00 03 86 48 77 71 DD 14 72 74 00 40 10 04 DB   080h,020h,00h,03h,086h,048h,077h,071h,0DDh,014h,072h,074h,00h,040h,010h,04h   
E63B   80 20 00 00 00 00 00 00 00 00 00 00 00 40 10 04 DB   080h,020h,00h,00h,00h,00h,00h,00h,00h,00h,00h,00h,00h,040h,010h,04h   
E64B   80 20 00 00 00 00 00 00 00 00 00 00 00 40 10 04 DB   080h,020h,00h,00h,00h,00h,00h,00h,00h,00h,00h,00h,00h,040h,010h,04h   
E65B   80 20 00 00 00 00 00 00 00 00 00 00 00 40 10 04 DB   080h,020h,00h,00h,00h,00h,00h,00h,00h,00h,00h,00h,00h,040h,010h,04h   
E66B   87 FF FF FF FF FF FF FF FF FF FF FF FF FF F0 84 DB   087h,0FFh,0FFh,0FFh,0FFh,0FFh,0FFh,0FFh,0FFh,0FFh,0FFh,0FFh,0FFh,0FFh,0F0h,084h   
E67B   80 20 00 40 10 80 00 08 02 10 80 00 08 00 00 84 DB   080h,020h,00h,040h,010h,080h,00h,08h,02h,010h,080h,00h,08h,00h,00h,084h   
E68B   80 20 00 40 10 80 00 08 02 10 80 00 08 00 00 84 DB   080h,020h,00h,040h,010h,080h,00h,08h,02h,010h,080h,00h,08h,00h,00h,084h   
E69B   80 20 00 40 10 80 00 08 02 10 80 00 08 00 00 84 DB   080h,020h,00h,040h,010h,080h,00h,08h,02h,010h,080h,00h,08h,00h,00h,084h   
E6AB   80 20 00 40 10 80 00 08 02 10 80 00 08 00 00 84 DB   080h,020h,00h,040h,010h,080h,00h,08h,02h,010h,080h,00h,08h,00h,00h,084h   
E6BB   84 21 F8 43 F0 87 FF F8 42 1F 87 FF 08 7F FF 84 DB   084h,021h,0F8h,043h,0F0h,087h,0FFh,0F8h,042h,01Fh,087h,0FFh,08h,07Fh,0FFh,084h   
E6CB   84 21 08 42 00 84 00 00 42 00 84 01 00 40 10 04 DB   084h,021h,08h,042h,00h,084h,00h,00h,042h,00h,084h,01h,00h,040h,010h,04h   
E6DB   84 21 08 42 00 84 00 00 42 00 84 01 00 40 10 04 DB   084h,021h,08h,042h,00h,084h,00h,00h,042h,00h,084h,01h,00h,040h,010h,04h   
E6EB   84 21 08 42 00 84 00 00 42 00 84 01 00 40 10 04 DB   084h,021h,08h,042h,00h,084h,00h,00h,042h,00h,084h,01h,00h,040h,010h,04h   
E6FB   84 21 08 42 00 84 00 00 42 00 84 01 00 40 10 04 DB   084h,021h,08h,042h,00h,084h,00h,00h,042h,00h,084h,01h,00h,040h,010h,04h   
E70B   84 21 08 43 FF 84 3F FF C3 F0 84 21 FF C2 10 FC DB   084h,021h,08h,043h,0FFh,084h,03Fh,0FFh,0C3h,0F0h,084h,021h,0FFh,0C2h,010h,0FCh   
E71B   84 00 08 00 00 04 00 00 40 00 04 20 00 02 00 04 DB   084h,00h,08h,00h,00h,04h,00h,00h,040h,00h,04h,020h,00h,02h,00h,04h   
E72B   84 00 08 00 00 04 00 00 40 00 04 20 00 02 00 04 DB   084h,00h,08h,00h,00h,04h,00h,00h,040h,00h,04h,020h,00h,02h,00h,04h   
E73B   84 00 08 00 00 04 00 00 40 00 04 20 00 02 00 04 DB   084h,00h,08h,00h,00h,04h,00h,00h,040h,00h,04h,020h,00h,02h,00h,04h   
E74B   84 00 08 00 00 04 00 00 40 00 04 20 00 02 00 04 DB   084h,00h,08h,00h,00h,04h,00h,00h,040h,00h,04h,020h,00h,02h,00h,04h   
E75B   FF FF FF FF FF FF FF FF FF FF FF FF FF FF FF FC DB   0FFh,0FFh,0FFh,0FFh,0FFh,0FFh,0FFh,0FFh,0FFh,0FFh,0FFh,0FFh,0FFh,0FFh,0FFh,0FCh   
E76B   00 00 00 00 00 00 00 00 00 00 00 00 00 00 00 00 DB   00h,00h,00h,00h,00h,00h,00h,00h,00h,00h,00h,00h,00h,00h,00h,00h   
E77B   00 00 00 00 00 00 00 00 00 00 00 00 00 00 00 00 DB   00h,00h,00h,00h,00h,00h,00h,00h,00h,00h,00h,00h,00h,00h,00h,00h   
E78B   00 00 00 00 00 00 00 00 00 00 00 00 00 00 00 00 DB   00h,00h,00h,00h,00h,00h,00h,00h,00h,00h,00h,00h,00h,00h,00h,00h   
E79B                             ; RAM Locations
E79B                             ;--------------
E79B                GBUF:     EQU   0A00H   ;Graphics Buffer 16 * 64 = 1024 byte
E79B                ENDPT:    EQU   0E00H   ;End Point for Line
E79B                SX:       EQU   0E02H   ;Sign of X
E79B                SY:       EQU   0E03H   ;Sign of Y
E79B                DX:       EQU   0E04H   ;Change of X
E79B                DY:       EQU   0E06H   ;Change of Y
E79B                ERR:      EQU   0E08H   ;Error Rate
E79B                RAD:      EQU   0E0AH   ;Radius
E79B                CLRBUF:   EQU   0E0CH   ;Clear Buffer Flag on LCD Displaying
E79B                CURSOR_XY:   EQU   0E0DH   ;Cursor Address X,Y
E79B                CURSOR_Y:   EQU   CURSOR_XY   ;Cursor Y
E79B                CURSOR_X:   EQU   CURSOR_XY+1   ;Cursor X
E79B                CURSOR_YS:   EQU   0E0FH   ;Start Y row for new line
E79B                CURSOR_ON:   EQU   0E10H   ;Cursor on/off flag
E79B                INVERSE:   EQU   0E11H   ;Inverse Flag
E79B                PIXEL_X:   EQU   0E12H   ;Pixel X length
E79B                VPORT:    EQU   0E13H   ;View port start address
E79B                TBUF:     EQU   0E15H   ;Top of Buffer pointer
E79B                ULINE:    EQU   0E17H   ;Underline flag
E79B                AUTO_LF:   EQU   0E18H   ;Auto line feed flag
E79B                PLOT_ALWAYS:   EQU   0E19H   ;Plot always flag
E79B                SBUF:     EQU   16 * 60   ;Scroll Buffer size  16 * 60 = 960 byte (10 lines)
E79B                TGBUF:    EQU   1000H + SBUF   ;Terminal GBUF
E79B                             ; jims disassembler source code
E79B                             ; -----------------------------
E79B                             ; 
E79B                             ; note: this file was updated so i can place it in any memory location.
E79B                             ; for full annotation please look at the pdf "disassembler_listing.pdf"
E79B                             ; 
E79B                             ; edits by craig hart: removed junk code
E79B                             ; fixed two remaining fixed memory references; code can now run anywhere in address apce
E79B                             ; update to add in (xx),a and out (xx),a brackets
E79B                             ; update to add "," in call/jp/jr <flag> opcodes
E79B                             ; optimze by removing code such as jp => jp => dest.
E79B                             ; 
E79B                             ; edit by brian chiha: formatted code
E79B                             ; remove extra space from call/jp/jr <flag> opcodes
E79B                             ; fixed missing opcode LD SP,IX and LD SP,IY
E79B                             ; note: LD (XY+d),n isn't working yet....
E79B                             ; 
E79B                             ; local variables
E79B                DISRAM:   EQU   0900H   
E79B                DISLINE1:   EQU   DISRAM   ;DIS STRING START
E79B                DISLINE2:   EQU   DISRAM + 19   ;DIS SECOND LINE
E79B                DISPTR:   EQU   DISRAM + 38   ;DIS STRING END
E79B                DISFLAG:   EQU   DISRAM + 40   ;DIS FLAG FOR HL,IX,IY
E79B                DISFROM:   EQU   DISRAM + 41   ;DIS START ADDRESS
E79B                             ; 
E79B                DISSTART:      
E79B   21 00 09               LD   hl,disline1   
E79E   AF                     XOR   a   
E79F   32 28 09               LD   (disflag),a   
E7A2   22 26 09               LD   (disptr),hl   
E7A5   2A 29 09               LD   hl,(disfrom)   
E7A8   E5                     PUSH   hl   
E7A9   CD 31 E9               CALL   l0x318a   ; write address to disline1
E7AC   06 22                  LD   b,22H   
E7AE   CD 60 E9               CALL   l0x31b9   ;fill rest with spaces
E7B1                             ; 
E7B1   21 00 09               LD   hl,disline1   ; patch to fix absoute memory addressing
E7B4   01 05 00               LD   bc,5   
E7B7   09                     ADD   hl,bc   
E7B8                             ; 
E7B8   22 26 09               LD   (disptr),hl   
E7BB   E1                     POP   hl   
E7BC   7E                     LD   a,(hl)   
E7BD   E5                     PUSH   hl   
E7BE   16 01                  LD   d,01H   
E7C0   CD DA EC               CALL   l0x351d   
E7C3   E1                     POP   hl   
E7C4   30 08                  JR   nc,l0x302e   
E7C6   CD D6 E7               CALL   l0x3031   
E7C9   4E                     LD   c,(hl)   
E7CA   7E                     LD   a,(hl)   
E7CB   D4 B8 EB               CALL   nc,l0x340e   
E7CE                L0X302E:      ; why jp to this code; just do it here?
E7CE   2A 29 09               LD   hl,(disfrom)   
E7D1   23                     INC   hl   
E7D2   22 29 09               LD   (disfrom),hl   
E7D5   C9                     RET      
E7D6                L0X3031:      
E7D6   FE 40                  CP   40H   
E7D8   38 18                  JR   c,l0x304d   
E7DA   FE C0                  CP   0c0H   
E7DC   38 16                  JR   c,l0x304f   
E7DE   FE CB                  CP   0cbH   
E7E0   CA 85 E9               JP   z,l0x31de   
E7E3   0E 00                  LD   c,00H   
E7E5   FE DD                  CP   0ddH   
E7E7   28 05                  JR   z,l0x3049   
E7E9   FE FD                  CP   0fdH   
E7EB   20 05                  JR   nz,l0x304d   
E7ED   0C                     INC   c   
E7EE                L0X3049:      
E7EE   0C                     INC   c   
E7EF   C3 7C E8               JP   l0x30d7   
E7F2                L0X304D:      
E7F2   B7                     OR   a   
E7F3   C9                     RET      
E7F4                L0X304F:      
E7F4   F5                     PUSH   af   
E7F5   CD FA E7               CALL   l0x3055   
E7F8   18 05                  JR   l0x305a   
E7FA                L0X3055:      
E7FA   06 01                  LD   b,01H   
E7FC   C3 A6 E9               JP   l0x31ff   
E7FF                L0X305A:      
E7FF   F1                     POP   af   
E800                L0X305B:      
E800   FE 80                  CP   80H   
E802   30 14                  JR   nc,l0x3073   
E804   F5                     PUSH   af   
E805   CD AC E9               CALL   l0x3205   
E808   F1                     POP   af   
E809   CD 53 E9               CALL   l0x31ac   
E80C   F5                     PUSH   af   
E80D   CD AB E8               CALL   l0x3106   
E810   CD 0B E9               CALL   l0x3164   
E813   F1                     POP   af   
E814   4F                     LD   c,a   
E815   C3 AC E8               JP   l0x3107   
E818                L0X3073:      
E818   E6 3F                  AND   3fH   
E81A   CD 53 E9               CALL   l0x31ac   
E81D   F5                     PUSH   af   
E81E   3E 86                  LD   a,86H   
E820   81                     ADD   a,c   
E821   81                     ADD   a,c   
E822   81                     ADD   a,c   
E823   CD F8 E8               CALL   l0x3153   
E826   CD 2B E8               CALL   l0x3086   
E829   18 0C                  JR   l0x3092   
E82B                L0X3086:      
E82B   CD 22 E9               CALL   l0x317b   
E82E   C0                     RET   nz   
E82F   0E 07                  LD   c,07H   
E831   CD B0 E8               CALL   l0x310b   
E834   C3 0B E9               JP   l0x3164   
E837                L0X3092:      
E837   F1                     POP   af   
E838   4F                     LD   c,a   
E839   18 70                  JR   l0x3106   
E83B                L0X3096:      
E83B   FE 40                  CP   40H   
E83D   30 16                  JR   nc,l0x30b0   
E83F   CD 53 E9               CALL   l0x31ac   
E842   F5                     PUSH   af   
E843   79                     LD   a,c   
E844   FE 07                  CP   07H   
E846   20 01                  JR   nz,l0x30a4   
E848   0D                     DEC   c   
E849                L0X30A4:      
E849   3E 9E                  LD   a,9EH   
E84B   81                     ADD   a,c   
E84C   81                     ADD   a,c   
E84D   81                     ADD   a,c   
E84E   CD F8 E8               CALL   l0x3153   
E851   F1                     POP   af   
E852   4F                     LD   c,a   
E853   18 56                  JR   l0x3106   
E855                L0X30B0:      
E855   D6 40                  SUB   40H   
E857   F5                     PUSH   af   
E858   06 B3                  LD   b,0B3H   
E85A   FE 40                  CP   40H   
E85C   38 08                  JR   c,l0x30c1   
E85E   06 B6                  LD   b,0B6H   
E860   FE 80                  CP   80H   
E862   38 02                  JR   c,l0x30c1   
E864   06 B9                  LD   b,0B9H   
E866                L0X30C1:      
E866   78                     LD   a,b   
E867   CD F8 E8               CALL   l0x3153   
E86A   F1                     POP   af   
E86B   E6 3F                  AND   3FH   
E86D   CD 53 E9               CALL   l0x31ac   
E870   F5                     PUSH   af   
E871   79                     LD   a,c   
E872   CD 41 E9               CALL   l0x319a   
E875   CD 0B E9               CALL   l0x3164   
E878   F1                     POP   af   
E879   4F                     LD   c,a   
E87A   18 2F                  JR   l0x3106   
E87C                L0X30D7:      
E87C   2A 29 09               LD   hl,(disfrom)   
E87F   23                     INC   hl   
E880   7E                     LD   a,(hl)   
E881   FE CB                  CP   0CBH   
E883   28 0A                  JR   z,l0x30ea   
E885   FE BF                  CP   0BFH   
E887   2B                     DEC   hl   
E888   D0                     RET   nc   
E889   FE 40                  CP   40H   
E88B   30 05                  JR   nc,l0x30ed   
E88D   A7                     AND   a   
E88E   C9                     RET      
E88F                L0X30EA:      
E88F   CB F9                  SET   7,c   
E891   23                     INC   hl   
E892                L0X30ED:      
E892   23                     INC   hl   
E893   7E                     LD   a,(hl)   
E894   F5                     PUSH   af   
E895   06 04                  LD   b,04H   
E897   79                     LD   a,c   
E898   32 28 09               LD   (disflag),a   
E89B   CB 79                  BIT   7,c   
E89D   20 01                  JR   nz,l0x30fb   
E89F   05                     DEC   b   
E8A0                L0X30FB:      
E8A0   CD A6 E9               CALL   l0x31ff   
E8A3   F1                     POP   af   
E8A4   CB 79                  BIT   7,c   
E8A6   20 93                  JR   nz,l0x3096   
E8A8   C3 00 E8               JP   l0x305b   
E8AB                L0X3106:      
E8AB   79                     LD   a,c   
E8AC                L0X3107:      
E8AC   FE 06                  CP   06H   
E8AE   28 07                  JR   z,l0x3112   
E8B0                L0X310B:      
E8B0   3E 01                  LD   a,01H   
E8B2                L0X310D:      
E8B2   21 3C EF               LD   hl,tableREG   
E8B5   18 33                  JR   l0x3145   
E8B7                L0X3112:      
E8B7   3A 28 09               LD   a,(disflag)   
E8BA   B7                     OR   a   
E8BB   20 06                  JR   nz,l0x311e   
E8BD   0E 08                  LD   c,08H   
E8BF   3E 04                  LD   a,04H   
E8C1   18 EF                  JR   l0x310d   
E8C3                L0X311E:      
E8C3   F5                     PUSH   af   
E8C4   1F                     RRA      
E8C5   0E 0C                  LD   c,0CH   
E8C7   38 02                  JR   c,l0x3126   
E8C9   0E 13                  LD   c,13H   
E8CB                L0X3126:      
E8CB   3E 07                  LD   a,07H   
E8CD   CD B2 E8               CALL   l0x310d   
E8D0   F1                     POP   af   
E8D1   17                     RLA      
E8D2   ED 5B 29 09            LD   de,(disfrom)   
E8D6   30 01                  JR   nc,l0x3134   
E8D8   1B                     DEC   de   
E8D9                L0X3134:      
E8D9   3A 26 09               LD   a,(disptr)   
E8DC   D6 03                  SUB   03H   
E8DE   32 26 09               LD   (disptr),a   
E8E1   1A                     LD   a,(de)   
E8E2   CD 38 E9               CALL   l0x3191   
E8E5   23                     INC   hl   
E8E6   22 26 09               LD   (disptr),hl   
E8E9   C9                     RET      
E8EA                L0X3145:      
E8EA   ED 5B 26 09            LD   de,(disptr)   
E8EE   09                     ADD   hl,bc   
E8EF   4F                     LD   c,a   
E8F0   ED B0                  LDIR      
E8F2   ED 53 26 09            LD   (disptr),de   
E8F6   37                     SCF      
E8F7   C9                     RET      
E8F8                L0X3153:      
E8F8   21 D9 ED               LD   hl,tableOPS   ; patch to fix absolute memory addressing
E8FB   D6 82                  SUB   82H   
E8FD   5F                     LD   e,a   
E8FE   16 00                  LD   d,0   
E900   19                     ADD   hl,de   
E901   EB                     EX   de,hl   
E902   18 0C                  JR   l0x3169   
E904                L0X315D:      
E904   21 13 09               LD   hl,disline2   
E907   22 26 09               LD   (disptr),hl   
E90A   C9                     RET      
E90B                L0X3164:      
E90B   01 06 00               LD   bc,0006H   
E90E   18 A0                  JR   l0x310b   
E910                L0X3169:      
E910   2A 26 09               LD   hl,(disptr)   
E913   1A                     LD   a,(de)   
E914   77                     LD   (hl),a   
E915   CB BE                  RES   7,(hl)   
E917   23                     INC   hl   
E918   22 26 09               LD   (disptr),hl   
E91B   13                     INC   de   
E91C   B7                     OR   a   
E91D   FA 5E E9               JP   m,l0x31b7   
E920   18 EE                  JR   l0x3169   
E922                L0X317B:      
E922   79                     LD   a,c   
E923   FE 04                  CP   04H   
E925   38 02                  JR   c,l0x3182   
E927   B7                     OR   a   
E928   C9                     RET      
E929                L0X3182:      
E929   FE 02                  CP   02H   
E92B   20 02                  JR   nz,l0x3188   
E92D   3D                     DEC   a   
E92E   C9                     RET      
E92F                L0X3188:      
E92F   AF                     XOR   a   
E930   C9                     RET      
E931                L0X318A:      
E931   E5                     PUSH   hl   
E932   7C                     LD   a,h   
E933   CD 38 E9               CALL   l0x3191   
E936   E1                     POP   hl   
E937   7D                     LD   a,l   
E938                L0X3191:      
E938   F5                     PUSH   af   
E939   1F                     RRA      
E93A   1F                     RRA      
E93B   1F                     RRA      
E93C   1F                     RRA      
E93D   CD 41 E9               CALL   l0x319a   
E940   F1                     POP   af   
E941                L0X319A:      
E941   E6 0F                  AND   0FH   
E943   C6 90                  ADD   a,90H   
E945   27                     DAA      
E946   CE 40                  ADC   a,40H   
E948   27                     DAA      
E949   2A 26 09               LD   hl,(disptr)   
E94C   77                     LD   (hl),a   
E94D   23                     INC   hl   
E94E   22 26 09               LD   (disptr),hl   
E951   37                     SCF      
E952   C9                     RET      
E953                L0X31AC:      
E953   F5                     PUSH   af   
E954   E6 38                  AND   38H   
E956   1F                     RRA      
E957   1F                     RRA      
E958   1F                     RRA      
E959   4F                     LD   c,a   
E95A   F1                     POP   af   
E95B   E6 07                  AND   07H   
E95D   C9                     RET      
E95E                L0X31B7:      
E95E   06 01                  LD   b,01H   
E960                L0X31B9:      
E960   3E 20                  LD   a,20H   
E962   2A 26 09               LD   hl,(disptr)   
E965                L0X31BE:      
E965   77                     LD   (hl),a   
E966   23                     INC   hl   
E967   10 FC                  DJNZ   l0x31be   
E969   22 26 09               LD   (disptr),hl   
E96C   C9                     RET      
E96D                L0X31C6:      
E96D   ED 5B 29 09            LD   de,(disfrom)   
E971                L0X31CA:      
E971   C5                     PUSH   bc   
E972   1A                     LD   a,(de)   
E973   F5                     PUSH   af   
E974   CD 38 E9               CALL   l0x3191   
E977   CD 5E E9               CALL   l0x31b7   
E97A   F1                     POP   af   
E97B   13                     INC   de   
E97C   C1                     POP   bc   
E97D   10 F2                  DJNZ   l0x31ca   
E97F   1B                     DEC   de   
E980   ED 53 29 09            LD   (disfrom),de   
E984   C9                     RET      
E985                L0X31DE:      
E985   06 02                  LD   b,02H   
E987   CD 6D E9               CALL   l0x31c6   
E98A   CD 04 E9               CALL   l0x315d   
E98D   C3 3B E8               JP   l0x3096   
E990                L0X31E9:      
E990   E6 CF                  AND   0CFH   
E992   FE 01                  CP   01H   
E994   20 47                  JR   nz,l0x3236   
E996   CD A4 E9               CALL   l0x31fd   
E999   CD AC E9               CALL   l0x3205   
E99C   CD B1 E9               CALL   l0x320a   
E99F   CD 0B E9               CALL   l0x3164   
E9A2   18 24                  JR   l0x3221   
E9A4                L0X31FD:      
E9A4   06 03                  LD   b,03H   
E9A6                L0X31FF:      
E9A6   CD 6D E9               CALL   l0x31c6   
E9A9   C3 04 E9               JP   l0x315d   
E9AC                L0X3205:      
E9AC   3E 83                  LD   a,83H   
E9AE   C3 F8 E8               JP   l0x3153   
E9B1                L0X320A:      
E9B1   79                     LD   a,c   
E9B2                L0X320B:      
E9B2   F5                     PUSH   af   
E9B3   E6 30                  AND   30H   
E9B5   CD 5F ED               CALL   l0x35a6   
E9B8   C6 1A                  ADD   a,1AH   
E9BA   06 00                  LD   b,00H   
E9BC   4F                     LD   c,a   
E9BD   3E 02                  LD   a,02H   
E9BF   21 3C EF               LD   hl,tableREG   
E9C2   CD EA E8               CALL   l0x3145   
E9C5   F1                     POP   af   
E9C6   4F                     LD   c,a   
E9C7   C9                     RET      
E9C8                L0X3221:      
E9C8   2A 29 09               LD   hl,(disfrom)   
E9CB   7E                     LD   a,(hl)   
E9CC   E5                     PUSH   hl   
E9CD   CD 38 E9               CALL   l0x3191   
E9D0   E1                     POP   hl   
E9D1   2B                     DEC   hl   
E9D2   7E                     LD   a,(hl)   
E9D3   E5                     PUSH   hl   
E9D4   CD 38 E9               CALL   l0x3191   
E9D7   E1                     POP   hl   
E9D8   23                     INC   hl   
E9D9   22 29 09               LD   (disfrom),hl   
E9DC   C9                     RET      
E9DD                L0X3236:      
E9DD   E6 C7                  AND   0C7H   
E9DF   FE 06                  CP   06H   
E9E1   20 18                  JR   nz,l0x3254   
E9E3   06 02                  LD   b,02H   
E9E5   CD 65 EA               CALL   l0x32be   
E9E8   79                     LD   a,c   
E9E9   CD 53 E9               CALL   l0x31ac   
E9EC   06 00                  LD   b,00H   
E9EE   CD A0 ED               CALL   l0x35e7   
E9F1   CD 0B E9               CALL   l0x3164   
E9F4                L0X324D:      
E9F4   2A 29 09               LD   hl,(disfrom)   
E9F7   7E                     LD   a,(hl)   
E9F8   C3 38 E9               JP   l0x3191   
E9FB                L0X3254:      
E9FB   79                     LD   a,c   
E9FC   F5                     PUSH   af   
E9FD   E6 EF                  AND   0EFH   
E9FF   FE 0A                  CP   0AH   
EA01   20 1F                  JR   nz,l0x327b   
EA03   06 01                  LD   b,01H   
EA05   CD 65 EA               CALL   l0x32be   
EA08   79                     LD   a,c   
EA09   01 07 00               LD   bc,0007H   
EA0C   CD B0 E8               CALL   l0x310b   
EA0F   CD 0B E9               CALL   l0x3164   
EA12                L0X326B:      
EA12   01 08 00               LD   bc,0008H   
EA15   CD B0 E8               CALL   l0x310b   
EA18   F1                     POP   af   
EA19   CD B2 E9               CALL   l0x320b   
EA1C   01 0B 00               LD   bc,000BH   
EA1F   C3 B0 E8               JP   l0x310b   
EA22                L0X327B:      
EA22   FE 02                  CP   02H   
EA24   20 11                  JR   nz,l0x3290   
EA26   06 01                  LD   b,01H   
EA28   CD 65 EA               CALL   l0x32be   
EA2B   CD BC ED               CALL   l0x3603   
EA2E                L0X3287:      
EA2E   CD 0B E9               CALL   l0x3164   
EA31   01 07 00               LD   bc,0007H   
EA34   C3 B0 E8               JP   l0x310b   
EA37                L0X3290:      
EA37   FE 22                  CP   22H   
EA39   20 30                  JR   nz,l0x32c4   
EA3B   06 03                  LD   b,03H   
EA3D   CD 65 EA               CALL   l0x32be   
EA40   CD 56 EA               CALL   l0x32af   
EA43   CD 0B E9               CALL   l0x3164   
EA46   F1                     POP   af   
EA47                L0X32A0:      
EA47   CB 67                  BIT   4,a   
EA49   20 03                  JR   nz,l0x32a7   
EA4B                L0X32A4:      
EA4B   C3 86 ED               JP   l0x35cd   
EA4E                L0X32A7:      
EA4E   3E 01                  LD   a,01H   
EA50   01 07 00               LD   bc,0007H   
EA53   C3 B2 E8               JP   l0x310d   
EA56                L0X32AF:      
EA56   01 08 00               LD   bc,0008H   
EA59   CD B0 E8               CALL   l0x310b   
EA5C   CD C8 E9               CALL   l0x3221   
EA5F   01 0B 00               LD   bc,000BH   
EA62   C3 B0 E8               JP   l0x310b   
EA65                L0X32BE:      
EA65   CD A6 E9               CALL   l0x31ff   
EA68   C3 AC E9               JP   l0x3205   
EA6B                L0X32C4:      
EA6B   FE 2A                  CP   2AH   
EA6D   20 0E                  JR   nz,l0x32d6   
EA6F   06 03                  LD   b,03H   
EA71   CD 65 EA               CALL   l0x32be   
EA74   F1                     POP   af   
EA75   CD 47 EA               CALL   l0x32a0   
EA78   CD 0B E9               CALL   l0x3164   
EA7B   18 D9                  JR   l0x32af   
EA7D                L0X32D6:      
EA7D   E6 CF                  AND   0CFH   
EA7F   FE 03                  CP   03H   
EA81   20 0F                  JR   nz,l0x32eb   
EA83   CD 8A EA               CALL   l0x32e3   
EA86   F1                     POP   af   
EA87   C3 B2 E9               JP   l0x320b   
EA8A                L0X32E3:      
EA8A   CD FA E7               CALL   l0x3055   
EA8D   3E BC                  LD   a,0BCH   
EA8F                L0X32E8:      
EA8F   C3 F8 E8               JP   l0x3153   
EA92                L0X32EB:      
EA92   FE 0B                  CP   0BH   
EA94   20 0C                  JR   nz,l0x32fb   
EA96   CD 9D EA               CALL   l0x32f6   
EA99   F1                     POP   af   
EA9A   C3 B2 E9               JP   l0x320b   
EA9D                L0X32F6:      
EA9D   3E BF                  LD   a,0BFH   
EA9F   C3 CE EC               JP   l0x3511   
EAA2                L0X32FB:      
EAA2   E6 C7                  AND   0C7H   
EAA4   FE 04                  CP   04H   
EAA6   20 0A                  JR   nz,l0x330b   
EAA8   CD 8A EA               CALL   l0x32e3   
EAAB   F1                     POP   af   
EAAC                L0X3305:      
EAAC   CD 53 E9               CALL   l0x31ac   
EAAF   C3 AB E8               JP   l0x3106   
EAB2                L0X330B:      
EAB2   FE 05                  CP   05H   
EAB4   20 06                  JR   nz,l0x3315   
EAB6   CD 9D EA               CALL   l0x32f6   
EAB9   F1                     POP   af   
EABA   18 F0                  JR   l0x3305   
EABC                L0X3315:      
EABC   79                     LD   a,c   
EABD   E6 CF                  AND   0CFH   
EABF   FE 09                  CP   09H   
EAC1   20 0F                  JR   nz,l0x332b   
EAC3   3E 86                  LD   a,86H   
EAC5   CD CE EC               CALL   l0x3511   
EAC8   CD 4B EA               CALL   l0x32a4   
EACB   CD 0B E9               CALL   l0x3164   
EACE   F1                     POP   af   
EACF   C3 B2 E9               JP   l0x320b   
EAD2                L0X332B:      
EAD2   F1                     POP   af   
EAD3   FE 10                  CP   10H   
EAD5   20 0F                  JR   nz,l0x334b   
EAD7   3E D9                  LD   a,0D9H   
EAD9                L0X3332:      
EAD9   F5                     PUSH   af   
EADA   06 02                  LD   b,02H   
EADC   CD A6 E9               CALL   l0x31ff   
EADF   F1                     POP   af   
EAE0   CD F8 E8               CALL   l0x3153   
EAE3   C3 AC ED               JP   l0x35f3   
EAE6                L0X334B:      
EAE6   FE 18                  CP   18H   
EAE8   20 04                  JR   nz,l0x3353   
EAEA   3E D5                  LD   a,0D5H   
EAEC   18 EB                  JR   l0x3332   
EAEE                L0X3353:      
EAEE   79                     LD   a,c   
EAEF   E6 C7                  AND   0C7H   
EAF1   B7                     OR   a   
EAF2   20 31                  JR   nz,l0x3377   
EAF4   79                     LD   a,c   
EAF5   F5                     PUSH   af   
EAF6   06 02                  LD   b,02H   
EAF8   CD A6 E9               CALL   l0x31ff   
EAFB   3E D5                  LD   a,0D5H   
EAFD   CD F8 E8               CALL   l0x3153   
EB00   F1                     POP   af   
EB01   CD 1A EB               CALL   l0x336c   
EB04   CD 0A EB               CALL   fixcomma   
EB07   C3 AC ED               JP   l0x35f3   
EB0A                             ; 
EB0A                FIXCOMMA:      ; comma fix for jp/jr <flag>, xxx
EB0A   E5                     PUSH   hl   
EB0B   F5                     PUSH   af   
EB0C   2A 26 09               LD   hl,(disptr)   
EB0F   2B                     DEC   hl   
EB10   3E 2C                  LD   a,2CH   ; ","
EB12   77                     LD   (hl),a   
EB13                             ; inc hl
EB13                             ; ld a, 20H       ; " "
EB13                             ; ld (hl), a
EB13   23                     INC   hl   
EB14   22 26 09               LD   (disptr),hl   
EB17   F1                     POP   af   
EB18   E1                     POP   hl   
EB19   C9                     RET      
EB1A                             ; 
EB1A                L0X336C:      
EB1A   E6 18                  AND   18H   
EB1C                L0X336E:      
EB1C   1F                     RRA      
EB1D   1F                     RRA      
EB1E   1F                     RRA      
EB1F   87                     ADD   a,a   
EB20   C6 DD                  ADD   a,0DDH   
EB22   C3 F8 E8               JP   l0x3153   
EB25                L0X3377:      
EB25   79                     LD   a,c   
EB26   FE C3                  CP   0C3H   
EB28   28 0E                  JR   z,l0x3391   
EB2A   FE CD                  CP   0CDH   
EB2C   28 06                  JR   z,l0x338d   
EB2E   18 1E                  JR   l0x33a7   
EB30                L0X3389:      
EB30   E6 38                  AND   38H   
EB32   18 E8                  JR   l0x336e   
EB34                L0X338D:      
EB34   3E C8                  LD   a,0C8H   
EB36   18 02                  JR   l0x3393   
EB38                L0X3391:      
EB38   3E CC                  LD   a,0CCH   
EB3A                L0X3393:      
EB3A   06 03                  LD   b,03H   
EB3C   F5                     PUSH   af   
EB3D   CD A6 E9               CALL   l0x31ff   
EB40   F1                     POP   af   
EB41   FE A6                  CP   0A6H   
EB43   20 03                  JR   nz,l0x33a1   
EB45   C3 F8 E8               JP   l0x3153   
EB48                L0X33A1:      
EB48   CD 8F EA               CALL   l0x32e8   
EB4B   C3 C8 E9               JP   l0x3221   
EB4E                L0X33A7:      
EB4E   E6 C7                  AND   0C7H   
EB50   FE C0                  CP   0C0H   
EB52   20 18                  JR   nz,l0x33c5   
EB54   3E C5                  LD   a,0C5H   
EB56   06 01                  LD   b,01H   
EB58   CD 5F EB               CALL   l0x33b8   
EB5B   2B                     DEC   hl   
EB5C   36 20                  LD   (hl),20H   
EB5E   C9                     RET      
EB5F                L0X33B8:      
EB5F   C5                     PUSH   bc   
EB60   F5                     PUSH   af   
EB61   CD A6 E9               CALL   l0x31ff   
EB64   F1                     POP   af   
EB65   CD 8F EA               CALL   l0x32e8   
EB68   C1                     POP   bc   
EB69   79                     LD   a,c   
EB6A   18 C4                  JR   l0x3389   
EB6C                L0X33C5:      
EB6C   79                     LD   a,c   
EB6D   E6 C7                  AND   0C7H   
EB6F   FE C4                  CP   0C4H   
EB71   20 0D                  JR   nz,l0x33d6   
EB73   3E C8                  LD   a,0C8H   
EB75                L0X33CE:      
EB75   06 03                  LD   b,03H   
EB77   CD 5F EB               CALL   l0x33b8   
EB7A   CD 0A EB               CALL   fixcomma   
EB7D   C3 C8 E9               JP   l0x3221   
EB80                L0X33D6:      
EB80   FE C2                  CP   0C2H   
EB82   20 04                  JR   nz,l0x33de   
EB84   3E CC                  LD   a,0CCH   
EB86   18 ED                  JR   l0x33ce   
EB88                L0X33DE:      
EB88   79                     LD   a,c   
EB89   E6 CF                  AND   0CfH   
EB8B   FE C1                  CP   0C1H   
EB8D   20 04                  JR   nz,l0x33e9   
EB8F   3E CE                  LD   a,0CEH   
EB91   18 05                  JR   l0x33ee   
EB93                L0X33E9:      
EB93   FE C5                  CP   0C5H   
EB95   C0                     RET   nz   
EB96   3E D1                  LD   a,0D1H   
EB98                L0X33EE:      
EB98   C5                     PUSH   bc   
EB99   F5                     PUSH   af   
EB9A   CD FA E7               CALL   l0x3055   
EB9D   F1                     POP   af   
EB9E   CD 8F EA               CALL   l0x32e8   
EBA1   C1                     POP   bc   
EBA2   79                     LD   a,c   
EBA3   FE F1                  CP   0F1H   
EBA5   28 04                  JR   z,l0x3401   
EBA7   FE F5                  CP   0F5H   
EBA9   20 0A                  JR   nz,l0x340b   
EBAB                L0X3401:      
EBAB   36 41                  LD   (hl),41H   
EBAD   23                     INC   hl   
EBAE   36 46                  LD   (hl),46H   
EBB0   23                     INC   hl   
EBB1   22 26 09               LD   (disptr),hl   
EBB4   C9                     RET      
EBB5                L0X340B:      
EBB5   C3 B2 E9               JP   l0x320b   
EBB8                L0X340E:      
EBB8   E6 C7                  AND   0C7H   
EBBA   FE C7                  CP   0C7H   
EBBC   20 0D                  JR   nz,l0x3421   
EBBE   79                     LD   a,c   
EBBF   F5                     PUSH   af   
EBC0   3E C2                  LD   a,0C2H   
EBC2   CD CE EC               CALL   l0x3511   
EBC5   F1                     POP   af   
EBC6   E6 38                  AND   38H   
EBC8   C3 38 E9               JP   l0x3191   
EBCB                L0X3421:      
EBCB   E6 C6                  AND   0C6H   
EBCD   FE C6                  CP   0C6H   
EBCF   79                     LD   a,c   
EBD0   20 18                  JR   nz,l0x3440   
EBD2   AF                     XOR   a   
EBD3   CD A1 EC               CALL   l0x34f7   
EBD6   79                     LD   a,c   
EBD7   C5                     PUSH   bc   
EBD8   CD 53 E9               CALL   l0x31ac   
EBDB   3E 86                  LD   a,86H   
EBDD   81                     ADD   a,c   
EBDE   81                     ADD   a,c   
EBDF   81                     ADD   a,c   
EBE0   CD F8 E8               CALL   l0x3153   
EBE3                L0X3439:      
EBE3   CD 2B E8               CALL   l0x3086   
EBE6   C1                     POP   bc   
EBE7   C3 F4 E9               JP   l0x324d   
EBEA                L0X3440:      
EBEA   FE ED                  CP   0EDH   
EBEC   C2 92 EC               JP   nz,l0x34e8   
EBEF   2A 29 09               LD   hl,(disfrom)   
EBF2   23                     INC   hl   
EBF3   7E                     LD   a,(hl)   
EBF4   4F                     LD   c,a   
EBF5   E6 C7                  AND   0C7H   
EBF7   FE 43                  CP   43H   
EBF9   20 20                  JR   nz,l0x3471   
EBFB   06 04                  LD   b,04H   
EBFD   CD A6 E9               CALL   l0x31ff   
EC00   CD AC E9               CALL   l0x3205   
EC03   CB 59                  BIT   3,c   
EC05   20 0B                  JR   nz,l0x3468   
EC07   C5                     PUSH   bc   
EC08   CD 56 EA               CALL   l0x32af   
EC0B   CD 0B E9               CALL   l0x3164   
EC0E   C1                     POP   bc   
EC0F   C3 B1 E9               JP   l0x320a   
EC12                L0X3468:      
EC12   CD B1 E9               CALL   l0x320a   
EC15   CD 0B E9               CALL   l0x3164   
EC18   C3 56 EA               JP   l0x32af   
EC1B                L0X3471:      
EC1B   06 02                  LD   b,02H   
EC1D   18 6A                  JR   l0x34df   
EC1F                L0X3475:      
EC1F   79                     LD   a,c   
EC20   E6 C7                  AND   0C7H   
EC22   FE 40                  CP   40H   
EC24   20 1A                  JR   nz,l0x3496   
EC26   C5                     PUSH   bc   
EC27   3E F0                  LD   a,0F0H   
EC29   CD F8 E8               CALL   l0x3153   
EC2C   C1                     POP   bc   
EC2D   79                     LD   a,c   
EC2E   CD 53 E9               CALL   l0x31ac   
EC31   79                     LD   a,c   
EC32   CD B0 E8               CALL   l0x310b   
EC35   CD 0B E9               CALL   l0x3164   
EC38                L0X348E:      
EC38   01 22 00               LD   bc,0022H   
EC3B   3E 03                  LD   a,03H   
EC3D   C3 B2 E8               JP   l0x310d   
EC40                L0X3496:      
EC40   FE 41                  CP   41H   
EC42   20 15                  JR   nz,l0x34af   
EC44   C5                     PUSH   bc   
EC45   3E ED                  LD   a,0EDH   
EC47   CD F8 E8               CALL   l0x3153   
EC4A   CD 38 EC               CALL   l0x348e   
EC4D   CD 0B E9               CALL   l0x3164   
EC50   C1                     POP   bc   
EC51   79                     LD   a,c   
EC52   CD 53 E9               CALL   l0x31ac   
EC55   79                     LD   a,c   
EC56   C3 B0 E8               JP   l0x310b   
EC59                L0X34AF:      
EC59   FE 42                  CP   42H   
EC5B   20 35                  JR   nz,l0x34e8   
EC5D   C5                     PUSH   bc   
EC5E   79                     LD   a,c   
EC5F   CB 5F                  BIT   3,a   
EC61   20 07                  JR   nz,l0x34c0   
EC63   3E 8F                  LD   a,8FH   
EC65   CD F8 E8               CALL   l0x3153   
EC68   18 05                  JR   l0x34c5   
EC6A                L0X34C0:      
EC6A   3E 89                  LD   a,89H   
EC6C   CD F8 E8               CALL   l0x3153   
EC6F                L0X34C5:      
EC6F   CD 4B EA               CALL   l0x32a4   
EC72   CD 0B E9               CALL   l0x3164   
EC75   C1                     POP   bc   
EC76   C3 B1 E9               JP   l0x320a   
EC79                L0X34CF:      
EC79   06 1C                  LD   b,1CH   
EC7B   2A 29 09               LD   hl,(disfrom)   
EC7E   23                     INC   hl   
EC7F   7E                     LD   a,(hl)   
EC80   21 B1 EE               LD   hl,tableEXC   
EC83   06 1C                  LD   b,1CH   
EC85   16 02                  LD   d,02H   
EC87   18 56                  JR   l0x3522   
EC89                L0X34DF:      
EC89   E6 84                  AND   84H   
EC8B   20 EC                  JR   nz,l0x34cf   
EC8D   CD A6 E9               CALL   l0x31ff   
EC90   18 8D                  JR   l0x3475   
EC92                L0X34E8:      
EC92   FE D3                  CP   0D3H   
EC94   20 27                  JR   nz,l0x3502   
EC96   3E ED                  LD   a,0EDH   
EC98   CD A1 EC               CALL   l0x34f7   
EC9B   CD A5 EC               CALL   l0x34fb   
EC9E   C3 2E EA               JP   l0x3287   
ECA1                L0X34F7:      
ECA1   06 02                  LD   b,02H   
ECA3   18 2B                  JR   l0x3513   
ECA5                L0X34FB:      
ECA5   2A 26 09               LD   hl,(disptr)   ; re-write to add () to in/out (xx),a
ECA8   3E 28                  LD   a,28H   ; "("
ECAA   77                     LD   (hl),a   
ECAB   23                     INC   hl   
ECAC   22 26 09               LD   (disptr),hl   
ECAF   CD F4 E9               CALL   l0x324d   
ECB2   2A 26 09               LD   hl,(disptr)   
ECB5   3E 29                  LD   a,29H   ; ")"
ECB7   77                     LD   (hl),a   
ECB8   23                     INC   hl   
ECB9   22 26 09               LD   (disptr),hl   
ECBC   C9                     RET      
ECBD                L0X3502:      
ECBD   FE DB                  CP   0DBH   
ECBF   20 47                  JR   nz,l0x354b   
ECC1   3E F0                  LD   a,0F0H   
ECC3   CD A1 EC               CALL   l0x34f7   
ECC6   0E 00                  LD   c,00H   
ECC8   CD 2B E8               CALL   l0x3086   ; optimization, skips push/pop not needed
ECCB   C3 A5 EC               JP   l0x34fb   
ECCE                L0X3511:      
ECCE   06 01                  LD   b,01H   
ECD0                L0X3513:      
ECD0   F5                     PUSH   af   
ECD1   CD A6 E9               CALL   l0x31ff   
ECD4   F1                     POP   af   
ECD5   B7                     OR   a   
ECD6   C2 F8 E8               JP   nz,l0x3153   
ECD9   C9                     RET      
ECDA                L0X351D:      
ECDA   06 13                  LD   b,13H   
ECDC   21 49 EE               LD   hl,tableOBT   
ECDF                L0X3522:      
ECDF   BE                     CP   (hl)   
ECE0   28 0A                  JR   z,l0x352f   
ECE2                L0X3525:      
ECE2   23                     INC   hl   
ECE3   CB 7E                  BIT   7,(hl)   
ECE5   28 FB                  JR   z,l0x3525   
ECE7   23                     INC   hl   
ECE8   10 F5                  DJNZ   l0x3522   
ECEA   37                     SCF      
ECEB   C9                     RET      
ECEC                L0X352F:      
ECEC   E5                     PUSH   hl   
ECED   42                     LD   b,d   
ECEE   CD A6 E9               CALL   l0x31ff   
ECF1   E1                     POP   hl   
ECF2   ED 5B 26 09            LD   de,(disptr)   
ECF6                L0X3539:      
ECF6   23                     INC   hl   
ECF7   7E                     LD   a,(hl)   
ECF8   12                     LD   (de),a   
ECF9   13                     INC   de   
ECFA   CB 7F                  BIT   7,a   
ECFC   28 F8                  JR   z,l0x3539   
ECFE   EB                     EX   de,hl   
ECFF   2B                     DEC   hl   
ED00   CB BE                  RES   7,(hl)   
ED02   23                     INC   hl   
ED03   22 26 09               LD   (disptr),hl   
ED06   B7                     OR   a   
ED07   C9                     RET      
ED08                L0X354B:      
ED08   2A 26 09               LD   hl,(disptr)   
ED0B   FE DD                  CP   0DDH   
ED0D   20 07                  JR   nz,l0x3559   
ED0F   36 44                  LD   (hl),44H   
ED11   23                     INC   hl   
ED12   3E 11                  LD   a,11H   
ED14   18 09                  JR   l0x3562   
ED16                L0X3559:      
ED16   FE FD                  CP   0FDH   
ED18   20 37                  JR   nz,l0x3590   
ED1A   36 46                  LD   (hl),46H   
ED1C   23                     INC   hl   
ED1D   3E 22                  LD   a,22H   
ED1F                L0X3562:      
ED1F   32 28 09               LD   (disflag),a   
ED22   36 44                  LD   (hl),44H   
ED24   23                     INC   hl   
ED25   23                     INC   hl   
ED26   22 26 09               LD   (disptr),hl   
ED29   2A 29 09               LD   hl,(disfrom)   
ED2C   23                     INC   hl   
ED2D   4E                     LD   c,(hl)   
ED2E   7E                     LD   a,(hl)   
ED2F   22 29 09               LD   (disfrom),hl   
ED32   FE 36                  CP   36H   
ED34   E5                     PUSH   hl   
ED35   CC A4 E9               CALL   z,l0x31fd   
ED38   79                     LD   a,c   
ED39   E6 FE                  AND   0FEH   
ED3B   FE 34                  CP   34H   
ED3D   06 02                  LD   b,02H   
ED3F   CC A6 E9               CALL   z,l0x31ff   
ED42   E1                     POP   hl   
ED43   7E                     LD   a,(hl)   
ED44   FE E9                  CP   0E9H   
ED46   28 06                  JR   z,l0x358d   
ED48   FE F9                  CP   0F9H   
ED4A   28 02                  JR   z,l0x358d   
ED4C   FE E3                  CP   0E3H   
ED4E                L0X358D:      
ED4E   28 73                  JR   z,l0x360a   
ED50   79                     LD   a,c   
ED51                L0X3590:      
ED51   C3 90 E9               JP   l0x31e9   
ED54                L0X3593:      
ED54   2A 29 09               LD   hl,(disfrom)   
ED57   2B                     DEC   hl   
ED58   2B                     DEC   hl   
ED59   22 29 09               LD   (disfrom),hl   
ED5C   CD AB E8               CALL   l0x3106   
ED5F                L0X35A6:      
ED5F   1F                     RRA      
ED60   1F                     RRA      
ED61   1F                     RRA      
ED62   FE 04                  CP   04H   
ED64   C0                     RET   nz   
ED65   3A 28 09               LD   a,(disflag)   
ED68   0F                     RRCA      
ED69   30 03                  JR   nc,l0x35b5   
ED6B   3E F3                  LD   a,0F3H   
ED6D   C9                     RET      
ED6E                L0X35B5:      
ED6E   0F                     RRCA      
ED6F   30 03                  JR   nc,l0x35bb   
ED71   3E FA                  LD   a,0FAH   
ED73   C9                     RET      
ED74                L0X35BB:      
ED74   3E 04                  LD   a,04H   
ED76   C9                     RET      
ED77   01 08 00               LD   bc,0008H   
ED7A   CD B0 E8               CALL   l0x310b   
ED7D   CD 86 ED               CALL   l0x35cd   
ED80   01 0B 00               LD   bc,000BH   
ED83   C3 B0 E8               JP   l0x310b   
ED86                L0X35CD:      
ED86   3A 28 09               LD   a,(disflag)   
ED89   06 00                  LD   b,00H   
ED8B   0F                     RRCA      
ED8C   30 04                  JR   nc,l0x35d9   
ED8E   0E 0D                  LD   c,0DH   
ED90   18 09                  JR   l0x35e2   
ED92                L0X35D9:      
ED92   0F                     RRCA      
ED93   30 04                  JR   nc,l0x35e0   
ED95   0E 14                  LD   c,14H   
ED97   18 02                  JR   l0x35e2   
ED99                L0X35E0:      
ED99   0E 04                  LD   c,04H   
ED9B                L0X35E2:      
ED9B   3E 02                  LD   a,02H   
ED9D   C3 B2 E8               JP   l0x310d   
EDA0                L0X35E7:      
EDA0   3A 28 09               LD   a,(disflag)   
EDA3   0F                     RRCA      
EDA4                L0X35EB:      
EDA4   38 AE                  JR   c,l0x3593   
EDA6   0F                     RRCA      
EDA7   38 FB                  JR   c,l0x35eb   
EDA9   C3 AB E8               JP   l0x3106   
EDAC                L0X35F3:      
EDAC   2A 29 09               LD   hl,(disfrom)   
EDAF   5E                     LD   e,(hl)   
EDB0   AF                     XOR   a   
EDB1   CB 7B                  BIT   7,e   
EDB3   28 01                  JR   z,l0x35fd   
EDB5   2F                     CPL      
EDB6                L0X35FD:      
EDB6   57                     LD   d,a   
EDB7   23                     INC   hl   
EDB8   19                     ADD   hl,de   
EDB9   C3 31 E9               JP   l0x318a   
EDBC                L0X3603:      
EDBC   E1                     POP   hl   
EDBD   F1                     POP   af   
EDBE   E5                     PUSH   hl   
EDBF   F5                     PUSH   af   
EDC0   C3 12 EA               JP   l0x326b   
EDC3                L0X360A:      
EDC3   79                     LD   a,c   
EDC4   CD DA EC               CALL   l0x351d   
EDC7                L0X360E:      
EDC7   2B                     DEC   hl   
EDC8   7E                     LD   a,(hl)   
EDC9   FE 48                  CP   48H   
EDCB   20 FA                  JR   nz,l0x360e   
EDCD   36 49                  LD   (hl),49H   
EDCF   23                     INC   hl   
EDD0   36 58                  LD   (hl),58H   
EDD2   3A 28 09               LD   a,(disflag)   
EDD5   0F                     RRCA      
EDD6   D8                     RET   c   
EDD7   34                     INC   (hl)   
EDD8   C9                     RET      
EDD9                             ; 
EDD9                             ;start of loopup tables
EDD9                             ;org 3620
EDD9                TABLEOPS:      
EDD9   49                     DB   49H   ;I 82 < WHERE "82H" IS THE INDEX HERE
EDDA   4C C4 00               DB   4CH,0C4H,00H   ;LD 83
EDDD   41 44 C4               DB   41H,44H,0C4H   ;ADD 86
EDE0   41 44 C3               DB   41H,44H,0C3H   ;ADC 89
EDE3   53 55 C2               DB   53H,55H,0C2H   ;SUB 8C
EDE6   53 42 C3               DB   53H,42H,0C3H   ;SBC 8F
EDE9   41 4E C4               DB   41H,4EH,0C4H   ;AND 92
EDEC   58 4F D2               DB   58H,4FH,0D2H   ;XOR 95
EDEF   4F D2 00               DB   4FH,0D2H,00H   ;OR 98
EDF2   43 D0 00               DB   43H,0D0H,00H   ;CP 9B
EDF5   52 4C C3               DB   52H,4CH,0C3H   ;RLC 9E
EDF8   52 52 C3               DB   52H,52H,0C3H   ;RRC A1
EDFB   52 CC 00               DB   52H,0CCH,00H   ;RL A4
EDFE   52 D2 00               DB   52H,0D2H,00H   ;RR A7
EE01   53 4C C1               DB   53H,4CH,0C1H   ;SLA AA
EE04   53 52 C1               DB   53H,52H,0C1H   ;SRA AD
EE07   53 52 CC               DB   53H,52H,0CCH   ;SRL B0
EE0A   42 49 D4               DB   42H,49H,0D4H   ;BIT B3
EE0D   52 45 D3               DB   52H,45H,0D3H   ;RES B6
EE10   53 45 D4               DB   53H,45H,0D4H   ;SET B9
EE13   49 4E C3               DB   49H,4EH,0C3H   ;INC BC
EE16   44 45 C3               DB   44H,45H,0C3H   ;DEC BF
EE19   52 53 D4               DB   52H,53H,0D4H   ;RST C2
EE1C   52 45 D4               DB   52H,45H,0D4H   ;RET C5
EE1F   43 41 4C CC            DB   43H,41H,4CH,0CCH   ;CALL C8
EE23   4A D0                  DB   4AH,0D0H   ;JP CC
EE25   50 4F D0               DB   50H,4FH,0D0H   ;POP CE
EE28   50 55 53 C8            DB   50H,55H,53H,0C8H   ;PUSH D1
EE2C   4A D2                  DB   4AH,0D2H   ;JR D5
EE2E   45 D8                  DB   45H,0D8H   ;EX D7
EE30   44 4A 4E DA            DB   44H,4AH,4EH,0DAH   ;DJNZ D9
EE34                             ; 
EE34                TABLEFLG:      
EE34   4E DA                  DB   4EH,0DAH   ;NZ DD
EE36   DA 20                  DB   0DAH,20H   ;Z_ DF
EE38   4E C3                  DB   4EH,0C3H   ;NC E1
EE3A   C3 00                  DB   0C3H,00H   ;C_E3
EE3C   50 CF                  DB   50H,0CFH   ;PO E5
EE3E   50 C5                  DB   50H,0C5H   ;PE E7
EE40   D0 00                  DB   0D0H,00H   ;P_ E9
EE42   CD 00                  DB   0CDH,00H   ;M_ EB
EE44   4F 55 D4               DB   4FH,55H,0D4H   ;OUT ED
EE47   49 CE                  DB   49H,0CEH   ;IN F0
EE49                             ; 
EE49                TABLEOBT:      
EE49   00 4E 4F D0            DB   00H,4EH,4FH,0D0H   ;NOP
EE4D   07 52 4C 43 C1         DB   07H,52H,4CH,43H,0C1H   ;RLCA
EE52   08 45 58 20 41 46 2C 41 46 A7 DB   08H,45H,58H,20H,41H,46H,2CH,41H,46H,0A7H   ;EX AF,AF'
EE5C   0F 52 52 43 C1         DB   0FH,52H,52H,43H,0C1H   ;RRCA
EE61   17 52 4C C1            DB   17H,52H,4CH,0C1H   ;RLA
EE65   1F 52 52 C1            DB   1FH,52H,52H,0C1H   ;RRA
EE69   27 44 41 C1            DB   27H,44H,41H,0C1H   ;DAA
EE6D   2F 43 50 CC            DB   2FH,43H,50H,0CCH   ;CPL
EE71   37 53 43 C6            DB   37H,53H,43H,0C6H   ;SCF
EE75   3F 43 43 C6            DB   3FH,43H,43H,0C6H   ;CCF
EE79   76 48 41 4C D4         DB   76H,48H,41H,4CH,0D4H   ;HALT
EE7E   C9 52 45 D4            DB   0C9H,52H,45H,0D4H   ;RET
EE82   D9 45 58 D8            DB   0D9H,45H,58H,0D8H   ;EXX
EE86   E3 45 58 20 28 53 50 29 2C 48 CC DB   0E3H,45H,58H,20H,28H,53H,50H,29H,2CH,48H,0CCH   ;EX (SP),HL
EE91   E9 4A 50 20 28 48 4C A9 DB   0E9H,4AH,50H,20H,28H,48H,4CH,0A9H   ;JP (HL)
EE99   EB 45 58 20 44 45 2C 48 CC DB   0EBH,45H,58H,20H,44H,45H,2CH,48H,0CCH   ;EX DE,HL
EEA2   F3 44 C9               DB   0F3H,44H,0C9H   ;DI
EEA5   F9 4C 44 20 53 50 2C 48 CC DB   0F9H,4CH,44H,20H,53H,50H,2CH,48H,0CCH   ;LD SP,HL
EEAE   FB 45 C9               DB   0FBH,45H,0C9H   ;EI
EEB1                             ; 
EEB1                TABLEEXC:      
EEB1   44 4E 45 C7            DB   44H,4EH,45H,0C7H   ;NEG
EEB5   45 52 45 54 CE         DB   45H,52H,45H,54H,0CEH   ;RETN
EEBA   46 49 4D 20 B0         DB   46H,49H,4DH,20H,0B0H   ;IM 0
EEBF   47 4C 44 20 49 2C C1   DB   47H,4CH,44H,20H,49H,2CH,0C1H   ;LD I,A
EEC6   4D 52 45 54 C9         DB   4DH,52H,45H,54H,0C9H   ;RETI
EECB   4F 4C 44 20 52 2C C1   DB   4FH,4CH,44H,20H,52H,2CH,0C1H   ;LD R,A
EED2   56 49 4D 20 B1         DB   56H,49H,4DH,20H,0B1H   ;IM 1
EED7   57 4C 44 20 41 2C C9   DB   57H,4CH,44H,20H,41H,2CH,0C9H   ;LD A,I
EEDE   5E 49 4D 20 B2         DB   5EH,49H,4DH,20H,0B2H   ;IM 2
EEE3   5F 4C 44 20 41 2C D2   DB   5FH,4CH,44H,20H,41H,2CH,0D2H   ;LD A,R
EEEA   67 52 52 C4            DB   67H,52H,52H,0C4H   ;RRD
EEEE   6F 52 4C C4            DB   6FH,52H,4CH,0C4H   ;RLD
EEF2   A0 4C 44 C9            DB   0A0H,4CH,44H,0C9H   ;LDI
EEF6   A1 43 50 C9            DB   0A1H,43H,50H,0C9H   ;CPI
EEFA   A2 49 4E C9            DB   0A2H,49H,4EH,0C9H   ;INI
EEFE   A3 4F 55 54 C9         DB   0A3H,4FH,55H,54H,0C9H   ;OUTI
EF03   A8 4C 44 C4            DB   0A8H,4CH,44H,0C4H   ;LDD
EF07   A9 43 50 C4            DB   0A9H,43H,50H,0C4H   ;CPD
EF0B   AA 49 4E C4            DB   0AAH,49H,4EH,0C4H   ;IND
EF0F   AB 4F 55 54 C4         DB   0ABH,4FH,55H,54H,0C4H   ;OUTD
EF14   B0 4C 44 49 D2         DB   0B0H,4CH,44H,49H,0D2H   ;LDIR
EF19   B1 43 50 49 D2         DB   0B1H,43H,50H,49H,0D2H   ;CPIR
EF1E   B2 49 4E 49 D2         DB   0B2H,49H,4EH,49H,0D2H   ;INIR
EF23   B3 4F 54 49 D2         DB   0B3H,4FH,54H,49H,0D2H   ;OTIR
EF28   B8 4C 44 44 D2         DB   0B8H,4CH,44H,44H,0D2H   ;LDDR
EF2D   B9 43 50 44 D2         DB   0B9H,43H,50H,44H,0D2H   ;CPDR
EF32   BA 49 4E 44 D2         DB   0BAH,49H,4EH,44H,0D2H   ;INDR
EF37   BB 4F 54 44 D2         DB   0BBH,4FH,54H,44H,0D2H   ;OTDR
EF3C                             ; 
EF3C                TABLEREG:      
EF3C   42 43                  DB   42H,43H   ;BC
EF3E   44 45                  DB   44H,45H   ;DE
EF40   48 4C                  DB   48H,4CH   ;HL
EF42   2C 41                  DB   2CH,41H   ;,A
EF44   28 48 4C 29            DB   28H,48H,4CH,29H   ;(HL)
EF48   28 49 58 2B 20 1F 29   DB   28H,49H,58H,2BH,20H,1FH,29H   ;(IX+__)
EF4F   28 49 59 2B 20 1F 29   DB   28H,49H,59H,2BH,20H,1FH,29H   ;(IY+__)
EF56                             ; 
EF56                TABLESREG:      
EF56   42                     DB   42H   ;B
EF57   43                     DB   43H   ;C
EF58   44                     DB   44H   ;D
EF59   45                     DB   45H   ;E
EF5A   48                     DB   48H   ;H
EF5B   4C                     DB   4CH   ;L
EF5C   53                     DB   53H   ;S
EF5D   50                     DB   50H   ;P
EF5E   28 43 29               DB   28H,43H,29H   ;(C)
EF61                             ; 
EF61   FF FF FF FF FF FF FF FF FF FF DB   0FFH,0FFH,0FFH,0FFH,0FFH,0FFH,0FFH,0FFH,0FFH,0FFH   ;FILL
EF6B                             ;Sound and Music Routine.
EF6B                             ;------------------------
EF6B                             ; Based on Mon1 routine by J. Hardy and modified to work at 4Mhz
EF6B                             ; By B. Chiha
EF6B                             ; This routine will play a series of notes based on data in memory
EF6B                             ; To play a note use a reference between 01H and 18H.  Where
EF6B                             ; 01H is the lowest and 18h is the highest.  Use 00H to make a pause
EF6B                             ; and any value greater then 18H to exit.
EF6B                             ; 
EF6B                             ; Note reference table is as follows:
EF6B                             ; +-----------+
EF6B                             ; |  G  | 01H |
EF6B                             ; |  G# | 02H |     Exit = 1FH
EF6B                             ; |  A  | 03H |
EF6B                             ; |  A# | 04H |
EF6B                             ; |  B  | 05H |
EF6B                             ; |  C  | 06H |
EF6B                             ; |  C# | 07H |
EF6B                             ; |  D  | 08H |
EF6B                             ; |  D# | 09H |
EF6B                             ; |  E  | 0AH |
EF6B                             ; |  F  | 0BH |
EF6B                             ; |  F# | 0CH |
EF6B                             ; |  G  | 0DH |
EF6B                             ; |  G# | 0EH |
EF6B                             ; |  A  | 0FH |
EF6B                             ; |  A# | 10H |
EF6B                             ; |  B  | 11H |
EF6B                             ; |  C  | 12H |
EF6B                             ; |  C# | 13H |
EF6B                             ; |  D  | 14H |
EF6B                             ; |  D# | 15H |
EF6B                             ; |  E  | 16H |
EF6B                             ; |  F  | 17H |
EF6B                             ; |  F# | 18H |
EF6B                             ; +-----------+
EF6B                PLAYTUNEMENU:      
EF6B   21 F5 EF               LD   hl,tuneParams   ;get tune parameters
EF6E   CD BD CF               CALL   paramDriver   ;collect parameters
EF71   ED 5B C0 08            LD   de,(DATA_FROM)   ;get start address
EF75                PLAYTUNE:      
EF75   1A                     LD   a,(de)   ;put note index in A
EF76   13                     INC   de   ;move to next note
EF77   FE 19                  CP   19H   ;is it of of range?
EF79   D0                     RET   nc   ;exit if it is
EF7A   B7                     OR   a   ;is it a pause?
EF7B   28 19                  JR   z,tunePause   ;yes, do a pause
EF7D   21 C5 EF               LD   hl,FREQ_TABLE   ;load HL with frequency table
EF80   3D                     DEC   a   ;fix indexing
EF81   87                     ADD   a,a   ;double A
EF82   85                     ADD   a,l   ;index HL
EF83   6F                     LD   l,a   ;and
EF84   3E 00                  LD   a,0   ;ensure
EF86   8C                     ADC   a,h   ;H is set
EF87   67                     LD   h,a   ;correctly
EF88   7E                     LD   a,(hl)   ;get wavelength
EF89   C5                     PUSH   bc   ;save BC
EF8A   47                     LD   b,a   
EF8B   23                     INC   hl   
EF8C   7E                     LD   a,(hl)   ;get frequency
EF8D   6F                     LD   l,a   ;set HL = A
EF8E   26 00                  LD   h,0   
EF90   CD A7 EF               CALL   playNote   ;play the tone
EF93   C1                     POP   bc   ;restore BC
EF94   18 DF                  JR   playTune   ;play next note
EF96                TUNEPAUSE:      
EF96   E5                     PUSH   hl   ;save HL
EF97   21 00 20               LD   hl,2000h   ;some time delay
EF9A   D5                     PUSH   de   ;save DE
EF9B   11 01 00               LD   de,1   ;load DE with 1
EF9E   ED 52                  SBC   hl,de   ;subtract 1 from HL
EFA0   D2 9E EF               JP   nc,$-2   ;repeat subtraction until HL=0
EFA3   D1                     POP   de   ;restore DE
EFA4   E1                     POP   hl   ;restore HL
EFA5   18 CE                  JR   playTune   ;play next note
EFA7                             ; Play a note.  Play a note with a given frequency and wavelength
EFA7                             ; Input: HL = frequency (01-7F)
EFA7                             ;        B = wavelength (00-FF)
EFA7                             ; Destroys: HL, BC, A
EFA7                PLAYNOTE:      
EFA7   29                     ADD   hl,hl   ;double HL
EFA8   29                     ADD   hl,hl   ;double again for 4Mhz
EFA9   AF                     XOR   a   ;clear A
EFAA   D5                     PUSH   de   ;save DE
EFAB   11 01 00               LD   de,1   ;set DE=1
EFAE   48                     LD   c,b   ;save wavelength
EFAF                NOTELOOP:      
EFAF   D3 01                  OUT   (DIGITS),a   ;toggle speaker bit
EFB1   06 03                  LD   b,3   ;elongate wavelength
EFB3   C5                     PUSH   bc   ;save BC
EFB4   41                     LD   b,c   ;get wavelength
EFB5   10 FE                  DJNZ   $   ;loop for wavelength
EFB7   C1                     POP   bc   ;restore BC
EFB8   10 F9                  DJNZ   $-5   ;loop 3 times
EFBA   EE 80                  XOR   80H   ;invert bit 7 of A (speaker bit)
EFBC   ED 52                  SBC   hl,de   ;HL = HL - 1
EFBE   20 EF                  JR   nz,noteLoop   ;repeat for frequency
EFC0   D1                     POP   de   ;restore DE
EFC1   AF                     XOR   a   ;clear a
EFC2   D3 01                  OUT   (DIGITS),a   ;clear speaker bit
EFC4   C9                     RET      
EFC5                             ; frequency table, contains wavelength and frequency combined sequentially
EFC5                FREQ_TABLE:      
EFC5   8C 19 83 1A 7C 1C 75 1D DB   8CH,19H,83H,1AH,7CH,1CH,75H,1DH   
EFCD   70 1E 67 20 62 23 5C 25 DB   70H,1EH,67H,20H,62H,23H,5CH,25H   
EFD5   57 27 52 29 4E 2C 48 2E DB   57H,27H,52H,29H,4EH,2CH,48H,2EH   
EFDD   45 31 41 33 3C 37 39 3A DB   45H,31H,41H,33H,3CH,37H,39H,3AH   
EFE5   36 3D 32 41 2F 45 2C 49 DB   36H,3DH,32H,41H,2FH,45H,2CH,49H   
EFED   2A 4D 27 52 25 57 23 5C DB   2AH,4DH,27H,52H,25H,57H,23H,5CH   
EFF5                TUNEPARAMS:      
EFF5   01                     DB   1   ;Three parameters
EFF6   54 55 4E 45 20 20      DB   "TUNE  "   ;7seg text
EFFC   3D 20 45 6E 74 65 72 20 50 61 72 61 6D 65 74 65 72 73 20 3D 00 DB   "= Enter Parameters =",0   ;Parameter title
F011   53 74 61 72 74 20 41 64 64 72 65 73 73 3A 00 DB   "Start Address:",0   ;Text and Address
F020   C0 08                  DW   DATA_FROM   
F022                             ;Command block registers
F022                PATA_ADDR:   EQU   20H   ; Base address A5
F022                REG_DATA:   EQU   PATA_ADDR+000B   ;Data Register
F022                REG_ERR:   EQU   PATA_ADDR+001B   ;Read: Error
F022                REG_FR:   EQU   PATA_ADDR+001B   ;Write: Features
F022                REG_SC:   EQU   PATA_ADDR+010B   ;Sector Count
F022                REG_SN:   EQU   PATA_ADDR+011B   ;Sector Number
F022                REG_LBA7:   EQU   PATA_ADDR+011B   ;LBA Bits 0-7
F022                REG_CYLO:   EQU   PATA_ADDR+100B   ;Cylinder Low
F022                REG_LBA15:   EQU   PATA_ADDR+100B   ;LBA Bits 8-15
F022                REG_CYHI:   EQU   PATA_ADDR+101B   ;Cylinder High
F022                REG_LBA23:   EQU   PATA_ADDR+101B   ;LBA Bits 16-23
F022                REG_DH:   EQU   PATA_ADDR+110B   ;Drive/Head
F022                REG_LBA27:   EQU   PATA_ADDR+110B   ;LBA Bits 24-27
F022                REG_STATUS:   EQU   PATA_ADDR+111B   ;Read: Status
F022                REG_CMD:   EQU   PATA_ADDR+111B   ;Write: Command
F022                REG_DATA_HI:   EQU   PATA_ADDR+1000B   ;Data Register High Byte
F022                             ;Status flags (bits)
F022                F_BSY:    EQU   7   ;Drive busy
F022                F_DRDY:   EQU   6   ;Drive ready for command
F022                F_DSC:    EQU   4   ;Drive head settled over sector
F022                F_DRQ:    EQU   3   ;Drive ready for r/w
F022                F_ERR:    EQU   1   ;Drive error
F022                             ;Features flags
F022                F_ENA8BIT:   EQU   01H   ;Enable 8-bit mode
F022                F_DIS8BIT:   EQU   81H   ;Disable 8-bit mode
F022                             ;Drive commands
F022                CMD_INITPAR:   EQU   091H   ;Init drive parameters
F022                CMD_READ:   EQU   020H   ;Read sector w. retry
F022                CMD_WRITE:   EQU   030H   ;Write sector w. retry
F022                CMD_IDENTIFY:   EQU   0ECH   ;Identify device
F022                CMD_SETFR:   EQU   0EFH   ;Set Features
F022                CMD_DIAG:   EQU   090H   ;Drive diagnosis
F022                             ;Constants
F022                C_RETRIES:   EQU   0FFH   ;Number of retries for busy disk
F022                C_FILENO:   EQU   0897H   ;Address of File number menu selection
F022                C_MCB:    EQU   0888H   ;Master Control Block
F022                C_SERIDLE:   EQU   00000101B   ;Serial Idle state
F022                C_SERCS:   EQU   11111011B   ;Serial Chip Select state
F022                             ;MON3 API Calls
F022                API_STR2LCD:   EQU   0DH   ;string to LCD
F022                API_CHR2LCD:   EQU   0EH   ;character to LCD
F022                API_CMD2LCD:   EQU   0FH   ;command to LCD
F022                API_MENU:   EQU   1FH   ;menu driver
F022                API_PARAM:   EQU   20H   ;parameter driver
F022                API_MENUPOP:   EQU   2FH   ;menu pop
F022                             ;RAM Locations
F022                HIGH_RAM:   EQU   0800H   ;High RAM
F022                DISK_BUFF:   EQU   HIGH_RAM - 200H   ;Disk data buffer (512 bytes)
F022                             ;FAT32 Configuration data
F022                DATA_START:   EQU   DISK_BUFF - 4   ;Data start sector
F022                ROOT_CLUS:   EQU   DATA_START - 4   ;Cluster number of the Root Directory / File
F022                ROOT_START:   EQU   ROOT_CLUS - 4   ;Root directory start sector
F022                FAT_START:   EQU   ROOT_START - 4   ;Start sector to first FAT
F022                PART_START:   EQU   FAT_START - 4   ;First sector of partition
F022                FAT_COUNT:   EQU   PART_START - 1   ;Number of FATs
F022                FAT_SIZE:   EQU   FAT_COUNT - 4   ;FAT size in sectors
F022                RSVD_SEC:   EQU   FAT_SIZE - 2   ;Number of reserved sectors
F022                CLUS_SEC:   EQU   RSVD_SEC - 1   ;Size of a cluster (in sectors)
F022                VOL_LABEL:   EQU   CLUS_SEC - 11   ;Name of Volume Label
F022                             ;File Control Block
F022                FCB_NAME:   EQU   VOL_LABEL - 12   ;File Name
F022                FCB_NSEC:   EQU   FCB_NAME - 4   ;Next sector
F022                FCB_ADDR:   EQU   FCB_NSEC - 2   ;TEC Address of file
F022                FCB_SCNT:   EQU   FCB_ADDR - 1   ;Sector counter
F022                             ;SD Card Read/Write Command
F022                SD_CMD:   EQU   FCB_SCNT - 6   ;SD Read Command
F022                             ;Root File clusters (4 bytes) and file size (2 bytes)
F022                RFC_LIST:   EQU   SD_CMD - 400   ;Root file cluster / file size list (8 bytes / file)
F022                             ;Directory Configuration, Max entries = (886 - 27 ) / 15 = 49 MAX
F022                DIR_CFG:   EQU   RFC_LIST - 816   ;100H
F022                LOADFROMDISK:      
F022   CD 2C F0               CALL   initDisk   ;Mount and get Root Directory
F025   21 00 01               LD   hl,DIR_CFG   
F028   0E 1F                  LD   c,API_MENU   ;menu driver
F02A   D7                     RST   10H   ;mon3 API Call
F02B   C9                     RET      
F02C                INITDISK:      
F02C                             ;mount the volume and display the root directory
F02C                             ;check for SD and if present, initialize it
F02C   3A 88 08               LD   a,(C_MCB)   ;Get MCB
F02F   E6 80                  AND   MCB_SD_CARD   ;Check if Bit 7 set?
F031   C4 03 F8               CALL   nz,initSD   ;yes, init SD Card
F034   CD 8B F1               CALL   FATmount   ;Mount the Drive
F037   CD 96 F2               CALL   FATgetRootDir   ;List root directory
F03A   C9                     RET      
F03B                INITPATA1:      
F03B   CD 3F F0               CALL   waitBusy   ;Wait for Busy flag to clear
F03E                             ; ld a,F_ENA8BIT              ;Features register 8 bit mode
F03E                             ; out (REG_FR),a
F03E                             ; ld a,CMD_SETFR              ;Send set features command
F03E                             ; out (REG_CMD),a
F03E                             ; call waitDriveReady         ;Wait for Busy flag to clear
F03E   C9                     RET      
F03F                             ;wait until busy flag is unset
F03F                             ;return:  carry not set = device is ready
F03F                             ;         carry set = device timeout
F03F                             ;         A = error register if carry is set (could be zero if just a time out)
F03F                             ;         HL = error message if carry is set
F03F                WAITBUSY:      
F03F   C5                     PUSH   bc   ;save BC
F040   A7                     AND   a   ;clear carry flag
F041   06 FF                  LD   b,C_RETRIES   ;number of retries to timeout
F043                WAITLOOP1:      
F043   DB 27                  IN   a,(REG_STATUS)   ;Read Status register
F045   E6 C1                  AND   11000001B   ;Only bits 7,6 and 0 are needed
F047   EE 40                  XOR   01000000B   ;Flip disk ready bit
F049   28 13                  JR   z,waitExit   ;all good, just exit
F04B   0E 00                  LD   c,0   ;sub delay
F04D                WAITLOOP2:      
F04D   0D                     DEC   c   ;mini loop
F04E   20 FD                  JR   nz,waitLoop2   
F050   10 F1                  DJNZ   waitLoop1   
F052   37                     SCF      ;error if here
F053   21 B0 F8               LD   hl,MSG_TIMEOUT   
F056   CB 47                  BIT   0,a   ;check if error bit set
F058   3E 00                  LD   a,0   ;default to zero
F05A   28 02                  JR   z,waitExit   ;no error bit set, just exit
F05C   DB 21                  IN   a,(REG_ERR)   ;get error register
F05E                WAITEXIT:      
F05E   C1                     POP   bc   ;restore BC
F05F   C9                     RET      
F060                             ;wait for data request to be set.  Meaning data is ready to be sent/received
F060                             ;return:  carry not set = data requested
F060                             ;         carry set = not data requested (error)
F060                             ;         A = error register if carry is set (could be zero if just a no data request)
F060                             ;         HL = error message if carry is set
F060                WAITDATAREQUEST:      
F060   C5                     PUSH   bc   ;save BC
F061   A7                     AND   a   ;clear carry flag
F062   01 FF FF               LD   bc,C_RETRIES * 256 + C_RETRIES   ;mega delay as drive head could take a time
F065                WAITDRLOOP1:      
F065   DB 27                  IN   a,(REG_STATUS)   ;Read Status register
F067   CB 5F                  BIT   3,a   ;check data request bit
F069   20 11                  JR   nz,waitDRExit   ;its set, all good
F06B   0B                     DEC   bc   ;mini loop
F06C   79                     LD   a,c   
F06D   B0                     OR   b   
F06E   20 F5                  JR   nz,waitDRLoop1   
F070   37                     SCF      ;error if here
F071   21 BE F8               LD   hl,MSG_DRQST   
F074   CB 47                  BIT   0,a   ;check if error bit set
F076   3E 00                  LD   a,0   ;default to zero
F078   28 02                  JR   z,waitDRExit   ;no error bit set, just exit
F07A   DB 21                  IN   a,(REG_ERR)   ;get error register
F07C                WAITDREXIT:      
F07C   C1                     POP   bc   ;restore BC
F07D   C9                     RET      
F07E                             ;read a sector from the disk and store in data buffer pointed from HL
F07E                             ;Input: BCDE = LBA sector address 3,2,1 and 0
F07E                             ;       HL = Address of data buffer (512 bytes)
F07E                             ;Output:  carry not set = data read
F07E                             ;         carry set = data not read (error)
F07E                IDEREADSECTOR:      
F07E   C5                     PUSH   bc   ;save BC
F07F   E5                     PUSH   hl   ;save HL
F080   D5                     PUSH   de   ;save DE
F081   3A 88 08               LD   a,(C_MCB)   ;Get MCB
F084   E6 80                  AND   MCB_SD_CARD   ;Check if Bit 7 set?
F086   28 2E                  JR   z,readPATA   ;no, read PATA
F088                             ;read from SD card as its present
F088   3E 01                  LD   a,1   
F08A   32 C5 05               LD   (SD_CMD+5),a   ;set return
F08D   EB                     EX   de,hl   ;swap DE and HL
F08E   7D                     LD   a,l   ;LBA 0
F08F   32 C4 05               LD   (SD_CMD+4),a   ;set LBA 0-7
F092   7C                     LD   a,h   ;LBA 1
F093   32 C3 05               LD   (SD_CMD+3),a   ;set LBA 8-15
F096   79                     LD   a,c   ;LBA 2
F097   32 C2 05               LD   (SD_CMD+2),a   ;set LBA 16-23
F09A   78                     LD   a,b   ;LBA 3
F09B   32 C1 05               LD   (SD_CMD+1),a   ;set LBA 24-27
F09E   3A A1 F9               LD   a,(spiCMD17)   ;Read command
F0A1   32 C0 05               LD   (SD_CMD),a   ;set command id
F0A4   21 C0 05               LD   hl,SD_CMD   ;Read command
F0A7   CD 9B F7               CALL   sendSPICommand   
F0AA   B7                     OR   a   
F0AB   21 FB F8               LD   hl,MSG_BPB   
F0AE   20 2C                  JR   nz,doERR   ;error
F0B0   EB                     EX   de,hl   ;swap DE and HL
F0B1   CD BC F7               CALL   readSPIBlock   
F0B4   18 22                  JR   rsExit   ;exit cleanly
F0B6                             ;read from PATA drive
F0B6                READPATA:      
F0B6   CD 3F F0               CALL   waitBusy   ;is the drive ready?
F0B9   38 21                  JR   c,doERR   ;no, error
F0BB   CD 5F F1               CALL   setLBA   ;set up LBA
F0BE   CD 3F F0               CALL   waitBusy   ;is the drive ready?
F0C1   38 19                  JR   c,doERR   ;no, error
F0C3   3E 20                  LD   a,CMD_READ   ;set read command
F0C5   D3 27                  OUT   (REG_CMD),a   
F0C7   CD 60 F0               CALL   waitDataRequest   ;Is the drive ready to send data?
F0CA   38 10                  JR   c,doERR   ;no, error
F0CC   06 00                  LD   b,0   ;256 words (512 bytes)
F0CE                RSLOOP:      
F0CE   DB 20                  IN   a,(REG_DATA)   ;get low byte of ide data word first	
F0D0   77                     LD   (hl),a   ;store low byte
F0D1   23                     INC   hl   
F0D2   DB 28                  IN   a,(REG_DATA_HI)   ;get high byte of ide data word from latch
F0D4   77                     LD   (hl),a   
F0D5   23                     INC   hl   
F0D6   10 F6                  DJNZ   rsloop   
F0D8                RSEXIT:      
F0D8   D1                     POP   de   ;restore DE
F0D9   E1                     POP   hl   ;restore HL
F0DA   C1                     POP   bc   ;restore BC
F0DB   C9                     RET      
F0DC                             ;general error output routine.
F0DC                             ;Input: HL = address of ASCII string
F0DC                             ;       A = error register
F0DC                DOERR:       
F0DC   06 01                  LD   b,01H   ;clear LCD
F0DE   0E 0F                  LD   c,API_CMD2LCD   ;command to LCD
F0E0   D7                     RST   10H   ;mon3 API Call
F0E1   F5                     PUSH   af   ;save error register
F0E2   E5                     PUSH   hl   ;save error message
F0E3   21 CE F8               LD   hl,MSG_IOERR   ;set read message
F0E6   0E 0D                  LD   c,API_STR2LCD   ;string to LCD
F0E8   D7                     RST   10H   ;mon3 API Cal
F0E9   06 C0                  LD   b,0C0H   ;second row
F0EB   0E 0F                  LD   c,API_CMD2LCD   ;command to LCD
F0ED   D7                     RST   10H   ;mon3 API Call
F0EE   E1                     POP   hl   
F0EF   0E 0D                  LD   c,API_STR2LCD   ;string to LCD
F0F1   D7                     RST   10H   ;mon3 API Cal
F0F2   F1                     POP   af   ;restore error register
F0F3   CD 76 F1               CALL   AtoLCD   ;display error register
F0F6   CF                     RST   08H   ;wait for key press
F0F7   37                     SCF      ;set carry for error
F0F8   D1                     POP   de   ;restore DE
F0F9   E1                     POP   hl   ;restore HL
F0FA   C1                     POP   bc   ;restore BC
F0FB   C7                     RST   00H   ;reboot
F0FC                             ;write a sector to the disk.
F0FC                             ;Input: BCDE = LBA sector address 3,2,1 and 0
F0FC                             ;       HL = Address of data buffer (512 bytes)
F0FC                             ;Output:  carry not set = data read
F0FC                             ;         carry set = data not read (error)
F0FC                IDEWRITESECTOR:      
F0FC   C5                     PUSH   bc   ;save BC
F0FD   E5                     PUSH   hl   ;save HL
F0FE   D5                     PUSH   de   ;save DE
F0FF   3A 88 08               LD   a,(C_MCB)   ;Get MCB
F102   E6 80                  AND   MCB_SD_CARD   ;Check if Bit 7 set?
F104   28 32                  JR   z,writePATA   ;no, write PATA
F106                             ;write to SD card as its present
F106   3E 01                  LD   a,1   
F108   32 C5 05               LD   (SD_CMD+5),a   ;set return
F10B   EB                     EX   de,hl   ;swap DE and HL
F10C   7D                     LD   a,l   ;LBA 0
F10D   32 C4 05               LD   (SD_CMD+4),a   ;set LBA 0-7
F110   7C                     LD   a,h   ;LBA 1
F111   32 C3 05               LD   (SD_CMD+3),a   ;set LBA 8-15
F114   79                     LD   a,c   ;LBA 2
F115   32 C2 05               LD   (SD_CMD+2),a   ;set LBA 16-23
F118   78                     LD   a,b   ;LBA 3
F119   32 C1 05               LD   (SD_CMD+1),a   ;set LBA 24-27
F11C   3A A7 F9               LD   a,(spiCMD24)   ;Write command
F11F   32 C0 05               LD   (SD_CMD),a   ;set command id
F122   21 C0 05               LD   hl,SD_CMD   ;Write command
F125   CD 9B F7               CALL   sendSPICommand   
F128   B7                     OR   a   
F129   21 FB F8               LD   hl,MSG_BPB   
F12C   20 AE                  JR   nz,doERR   ;error
F12E   EB                     EX   de,hl   ;swap DE and HL
F12F   CD DB F7               CALL   writeSPIBlock   
F132   FE 05                  CP   05h   ;check if write was successful
F134   20 A6                  JR   nz,doERR   ;no, error
F136   18 A0                  JR   rsExit   ;exit cleanly
F138                WRITEPATA:      
F138   CD 3F F0               CALL   waitBusy   ;is the drive ready?
F13B   38 9F                  JR   c,doERR   ;no, error
F13D   CD 5F F1               CALL   setLBA   ;set up LBA
F140   CD 3F F0               CALL   waitBusy   ;is the drive ready?
F143   38 97                  JR   c,doERR   ;no, error
F145   3E 30                  LD   a,CMD_WRITE   ;set write command
F147   D3 27                  OUT   (REG_CMD),a   
F149   CD 60 F0               CALL   waitDataRequest   ;Is the drive ready to send data?
F14C   38 8E                  JR   c,doERR   ;no, error
F14E   06 00                  LD   b,0   ;256 words (512 bytes)
F150                WSLOOP1:      
F150   7E                     LD   a,(hl)   ;get low byte
F151   4F                     LD   c,a   ;store in C
F152   23                     INC   hl   
F153   7E                     LD   a,(hl)   ;get high byte
F154   D3 28                  OUT   (REG_DATA_HI),a   ;send high byte to latch
F156   79                     LD   a,c   ;get low byte in A
F157   D3 20                  OUT   (REG_DATA),a   ;send low byte and output entire word
F159   23                     INC   hl   
F15A   10 F4                  DJNZ   wsloop1   
F15C   C3 D8 F0               JP   rsExit   ;exit cleanly
F15F                             ;read disk information
F15F                             ;Input:   HL = Address of data buffer (512 bytes)
F15F                             ;Output:  carry not set = data read
F15F                             ;         carry set = data not read (error)
F15F                             ; IDEdiskInfo:
F15F                             ;         push bc                     ;save BC
F15F                             ;         push hl                     ;save HL
F15F                             ;         call waitBusy               ;is the drive ready?
F15F                             ;         jr c,doERR                  ;no, error
F15F                             ;         call setLBA                 ;set up LBA
F15F                             ;         call waitBusy               ;is the drive ready?
F15F                             ;         jr c,doERR                  ;no, error
F15F                             ;         ld a,CMD_IDENTIFY           ;set identify command
F15F                             ;         out (REG_CMD),a
F15F                             ;         call waitDataRequest        ;Is the drive ready to send data?
F15F                             ;         jr c,doERR                  ;no, error
F15F                             ;         ld b,0                      ;256 words (512 bytes)
F15F                             ; idloop:
F15F                             ;         in a,(REG_DATA)	            ;get low byte of ide data word first
F15F                             ;         ld c,a                      ;store in C	
F15F                             ;         in a,(REG_DATA_HI)          ;get high byte of ide data word from latch
F15F                             ;         ld (hl),a                   ;store low byte
F15F                             ;         inc hl
F15F                             ;         ld (hl),c
F15F                             ;         inc hl
F15F                             ;         djnz idloop
F15F                             ;         jr rsExit                   ;exit cleanly
F15F                             ; Set sector count and LBA registers of the drive
F15F                             ; Input: BCDE = LBA sector address 3,2,1 and 0
F15F                             ; Destory: None
F15F                SETLBA:      
F15F   F5                     PUSH   af   
F160                             ;sector count
F160   3E 01                  LD   a,01H   
F162   D3 22                  OUT   (REG_SC),a   ;set sector count
F164   7B                     LD   a,e   ;LBA 0
F165   D3 23                  OUT   (REG_LBA7),a   ;set LBA 0-7
F167   7A                     LD   a,d   ;LBA 1
F168   D3 24                  OUT   (REG_LBA15),a   ;set LBA 8-15
F16A   79                     LD   a,c   ;LBA 2
F16B   D3 25                  OUT   (REG_LBA23),a   ;set LBA 16-23
F16D   78                     LD   a,b   ;LBA 3
F16E   E6 0F                  AND   00001111B   ;only bits 0-3 are LBA 3
F170   F6 E0                  OR   11100000B   ;select LBA and master drive
F172   D3 26                  OUT   (REG_LBA27),a   ;set LBA 24-27
F174   F1                     POP   af   
F175   C9                     RET      
F176                             ;A to LCD.  Display register A to the LCD screen
F176                ATOLCD:      
F176   F5                     PUSH   af   ;save AF
F177   1F                     RRA      ;move high
F178   1F                     RRA      ;nibble to low nibble
F179   1F                     RRA      
F17A   1F                     RRA      
F17B   CD 7F F1               CALL   lowNibToString1   ;get lower nibble and save in DE
F17E   F1                     POP   af   ;restore AF
F17F                LOWNIBTOSTRING1:      
F17F   E6 0F                  AND   0FH   ;mask out high nibble
F181   C6 90                  ADD   a,90H   ;convert to
F183   27                     DAA      ;ASCII
F184   CE 40                  ADC   a,40H   ;using this
F186   27                     DAA      ;amazing routine
F187   0E 0E                  LD   c,API_CHR2LCD   ;character to LCD
F189   D7                     RST   10H   ;mon3 API Cal
F18A   C9                     RET      ;exit back
F18B                             ;Mount the Disk and configure the FAT data for IO
F18B                FATMOUNT:      
F18B                             ;get the Master Boot Record located at sector 0 of the disk
F18B   01 00 00               LD   bc,0000H   ;high lba
F18E   11 00 00               LD   de,0000H   ;low lba
F191   21 00 06               LD   hl,DISK_BUFF   ;allocate disk buffer
F194   CD 7E F0               CALL   IDEreadSector   ;get block
F197   DA 55 F2               JP   c,FATerror1   ;error
F19A                             ;check 55AAH on MBR trailer
F19A   3A FE 07               LD   a,(DISK_BUFF + 01FEH)   
F19D   FE 55                  CP   55H   
F19F   C2 5A F2               JP   nz,FATerror2   ;error
F1A2   3A FF 07               LD   a,(DISK_BUFF + 01FFH)   
F1A5   FE AA                  CP   0AAH   
F1A7   C2 5A F2               JP   nz,FATerror2   ;error
F1AA                             ;get partition start
F1AA   01 04 00               LD   bc,0004H   ;4 bytes
F1AD   21 C6 07               LD   hl,DISK_BUFF + 01C6H   ;source of partition 1
F1B0   11 EC 05               LD   de,PART_START   ;destination
F1B3   ED B0                  LDIR      ;copy it
F1B5                             ;read Bios Parameter Block (BPB)
F1B5   ED 4B EE 05            LD   bc,(PART_START + 2)   ;high lba
F1B9   ED 5B EC 05            LD   de,(PART_START)   ;low lba
F1BD   21 00 06               LD   hl,DISK_BUFF   ;allocate disk buffer
F1C0   CD 7E F0               CALL   IDEreadSector   ;get block
F1C3   DA 5F F2               JP   c,FATerror3   ;error
F1C6                             ;check Bytes per sector is 512
F1C6   3A 0B 06               LD   a,(DISK_BUFF + 0BH)   
F1C9   B7                     OR   a   ;zero
F1CA   C2 64 F2               JP   nz,FATerror4   ;error
F1CD   3A 0C 06               LD   a,(DISK_BUFF + 0CH)   
F1D0   FE 02                  CP   02H   
F1D2   C2 64 F2               JP   nz,FATerror4   ;error
F1D5                             ;get volume label
F1D5   01 11 00               LD   bc,0011H   ;1 bytes
F1D8   21 47 06               LD   hl,DISK_BUFF + 47H   ;source of volume lable
F1DB   11 D9 05               LD   de,VOL_LABEL   ;destination
F1DE   ED B0                  LDIR      ;copy it
F1E0                             ;get cluster size
F1E0   3A 0D 06               LD   a,(DISK_BUFF + 0DH)   
F1E3   32 E4 05               LD   (CLUS_SEC),a   
F1E6   32 C6 05               LD   (FCB_SCNT),a   ;and set it to sector count
F1E9                             ;get reserve sector count
F1E9   2A 0E 06               LD   hl,(DISK_BUFF + 0EH)   
F1EC   22 E5 05               LD   (RSVD_SEC),hl   
F1EF                             ;get Root Cluster
F1EF   01 04 00               LD   bc,0004H   ;4 bytes
F1F2   21 2C 06               LD   hl,DISK_BUFF + 2CH   ;source of RootClus
F1F5   11 F8 05               LD   de,ROOT_CLUS   ;destination
F1F8   ED B0                  LDIR      ;copy it
F1FA                             ;get FAT count
F1FA   3A 10 06               LD   a,(DISK_BUFF + 10H)   
F1FD   32 EB 05               LD   (FAT_COUNT),a   
F200                             ;get FAT size
F200   01 04 00               LD   bc,0004H   ;4 bytes
F203   21 24 06               LD   hl,DISK_BUFF + 24H   ;source of FATSz32
F206   11 E7 05               LD   de,FAT_SIZE   ;destination
F209   ED B0                  LDIR      ;copy it
F20B                             ;calculate FAT start
F20B   2A EC 05               LD   hl,(PART_START)   ;FAT START = PART START + RESERVED SECTORS
F20E   ED 4B E5 05            LD   bc,(RSVD_SEC)   
F212   09                     ADD   hl,bc   ;add lower parts together
F213   22 F0 05               LD   (FAT_START),hl   ;save to lower of fat start
F216   2A EE 05               LD   hl,(PART_START + 2)   
F219   01 00 00               LD   bc,0000H   ;upper part
F21C   ED 4A                  ADC   hl,bc   ;add high parts with carry together
F21E   22 F2 05               LD   (FAT_START + 2),hl   ;save to higher of fat start
F221                             ;calculate Data Start Sector = FAT_START + (FAT_COUNT * FAT_SIZE)
F221   3A EB 05               LD   a,(FAT_COUNT)   ;get number of FATs
F224   ED 5B E7 05            LD   de,(FAT_SIZE)   ;get lower byte
F228   ED 4B E9 05            LD   bc,(FAT_SIZE+2)   ;get upper byte
F22C   CD 3E FA               CALL   BCDEtimeA   ;get product
F22F   ED 5B F0 05            LD   de,(FAT_START)   
F233   ED 4B F2 05            LD   bc,(FAT_START+2)   ;get fat start
F237   DD 19                  ADD   ix,de   ;add lower word
F239   ED 4A                  ADC   hl,bc   ;add upper word
F23B   DD 22 FC 05            LD   (DATA_START),ix   ;save ROOT_START
F23F   22 FE 05               LD   (DATA_START+2),hl   
F242                             ;calculate Root Directory.  This is the Root Cluster
F242   ED 5B F8 05            LD   de,(ROOT_CLUS)   ;get root cluster number
F246   ED 4B FA 05            LD   bc,(ROOT_CLUS+2)   
F24A   CD AE F4               CALL   FATgetSector   ;get root cluster sector
F24D   DD 22 F4 05            LD   (ROOT_START),ix   ;save root directory
F251   22 F6 05               LD   (ROOT_START+2),hl   
F254   C9                     RET      
F255                FATERROR1:      
F255   21 DE F8               LD   hl,MSG_MBR   ;Master Boot Record
F258   18 37                  JR   FATerror   
F25A                FATERROR2:      
F25A   21 EE F8               LD   hl,MSG_MBR_BAD   ;MBR Illegal
F25D   18 32                  JR   FATerror   
F25F                FATERROR3:      
F25F   21 FB F8               LD   hl,MSG_BPB   ;BPB failure
F262   18 2D                  JR   FATerror   
F264                FATERROR4:      
F264   21 0A F9               LD   hl,MSG_BPS   ;Bytes per sector
F267   18 28                  JR   FATerror   
F269                FATERROR5:      
F269   21 1A F9               LD   hl,MSG_ROOT   ;Root dir error
F26C   18 23                  JR   FATerror   
F26E                FATERROR6:      
F26E   21 29 F9               LD   hl,MSG_FILE   ;File not found
F271   18 1E                  JR   FATerror   
F273                FATERROR7:      
F273   21 39 F9               LD   hl,MSG_INTEL   ;Bad Checksum
F276   18 19                  JR   FATerror   
F278                FATERROR8:      
F278   21 47 F9               LD   hl,MSG_NOSDCARD   ;No SD Card
F27B   18 14                  JR   FATerror   
F27D                FATERROR9:      
F27D   21 53 F9               LD   hl,MSG_OCR   ;OCR Read Fail
F280   18 0F                  JR   FATerror   
F282                FATERROR10:      
F282   21 62 F9               LD   hl,MSG_SDINVALID   ;Invalid SDCard
F285   18 0A                  JR   FATerror   
F287                FATERROR11:      
F287   21 72 F9               LD   hl,MSG_SDCMD16   ;CMD16 Failed
F28A   18 05                  JR   FATerror   
F28C                FATERROR12:      
F28C   21 80 F9               LD   hl,MSG_TOOBIG   ;Address too large
F28F   18 00                  JR   FATerror   
F291                FATERROR:      
F291   C5                     PUSH   bc   ;save BC
F292   E5                     PUSH   hl   ;save HL
F293   C3 DC F0               JP   doERR   ;display the error
F296                             ;Get the root directory.  Only look at visiable, short name files.  Fill out
F296                             ;menu data structure with directory listing
F296                FATGETROOTDIR:      
F296                             ;create menu configuration
F296   11 00 01               LD   de,DIR_CFG   ;get menu config
F299   AF                     XOR   a   ;clear count
F29A   12                     LD   (de),a   
F29B   13                     INC   de   
F29C   21 6A F3               LD   hl,MENU_SEG   ;get menu segments
F29F   01 0E 00               LD   bc,14   
F2A2   ED B0                  LDIR      ;copy segment/menu text
F2A4   21 D9 05               LD   hl,VOL_LABEL   ;get volumen label
F2A7   01 0B 00               LD   bc,11   
F2AA   ED B0                  LDIR      
F2AC   AF                     XOR   a   
F2AD   12                     LD   (de),a   ;zero terminate string
F2AE   13                     INC   de   
F2AF   D5                     PUSH   de   
F2B0                             ;iterate through the 32 byte directory enties, and single out visable short files
F2B0   21 00 06               LD   hl,DISK_BUFF   
F2B3   ED 5B F4 05            LD   de,(ROOT_START)   
F2B7   ED 4B F6 05            LD   bc,(ROOT_START+2)   
F2BB   CD 8B F4               CALL   FATreadSector   
F2BE   DD 21 E0 05            LD   ix,DISK_BUFF-32   ;start of diretory buffer
F2C2   D1                     POP   de   
F2C3                DIRLOOP:      
F2C3   D5                     PUSH   de   
F2C4   01 20 00               LD   bc,32   ;skip to next directory entry (32 bytes)
F2C7   DD 09                  ADD   ix,bc   
F2C9   21 00 08               LD   hl,HIGH_RAM   ;check if end of sector
F2CC   B7                     OR   a   ;clear carry
F2CD   DD E5                  PUSH   ix   
F2CF   C1                     POP   bc   
F2D0   ED 42                  SBC   hl,bc   
F2D2   20 12                  JR   nz,skipLoadNextSec   
F2D4                             ;load next sector
F2D4   21 00 06               LD   hl,DISK_BUFF   
F2D7   ED 5B C9 05            LD   de,(FCB_NSEC)   
F2DB   ED 4B CB 05            LD   bc,(FCB_NSEC+2)   
F2DF   CD 8B F4               CALL   FATreadSector   
F2E2   DD 21 00 06            LD   ix,DISK_BUFF   ;start of new diretory sector
F2E6                SKIPLOADNEXTSEC:      
F2E6   D1                     POP   de   
F2E7   DD 7E 00               LD   a,(ix+0)   ;check first character
F2EA   FE 00                  CP   00H   ;is it end of directory listing?
F2EC   C8                     RET   z   ;yes, all done, exit
F2ED   FE E5                  CP   0E5H   ;is it a deleted file?
F2EF   28 D2                  JR   z,dirLoop   ;ignore
F2F1   DD 7E 0B               LD   a,(ix+11)   ;get attribute byte
F2F4   FE 20                  CP   20H   ;must be ATTR_ARCHIVE only
F2F6   20 CB                  JR   nz,dirLoop   ;ignore if otherwise
F2F8                             ;good file, copy it to menu configuration
F2F8   01 08 00               LD   bc,8   ;get main part of file name
F2FB   DD E5                  PUSH   ix   
F2FD   E1                     POP   hl   
F2FE                SPACELOOP:      
F2FE   7E                     LD   a,(hl)   ;get character
F2FF   FE 20                  CP   " "   ;is it a space?
F301   28 05                  JR   z,mainDone   
F303   ED A0                  LDI      
F305   EA FE F2               JP   pe,spaceLoop   
F308                MAINDONE:      
F308   09                     ADD   hl,bc   ;move hl to correct position
F309   3E 2E                  LD   a,"."   ;separate with a dot
F30B   12                     LD   (de),a   ;zero terminate string
F30C   13                     INC   de   
F30D   01 03 00               LD   bc,3   ;get extension part of file name
F310                EXTLOOP:      
F310   7E                     LD   a,(hl)   ;get first character
F311   FE 20                  CP   " "   ;is it a space?
F313   28 05                  JR   z,extDone   ;yes, no extension
F315   ED A0                  LDI      
F317   EA 10 F3               JP   pe,extLoop   ;no, copy extension
F31A                EXTDONE:      
F31A   AF                     XOR   a   
F31B   12                     LD   (de),a   ;zero terminate string
F31C   13                     INC   de   
F31D   01 78 F3               LD   bc,FATfileLoader   ;get address of function
F320   79                     LD   a,c   
F321   12                     LD   (de),a   
F322   13                     INC   de   
F323   78                     LD   a,b   
F324   12                     LD   (de),a   ;store it in menu config
F325   13                     INC   de   
F326   3A 00 01               LD   a,(DIR_CFG)   ;get menu count
F329   F5                     PUSH   af   ;store menu count
F32A                             ;store cluster number and file size
F32A   21 30 04               LD   hl,RFC_LIST   
F32D   4F                     LD   c,a   
F32E   06 00                  LD   b,0   ;clear B
F330                             ;calculate index to RFC_LIST
F330   B7                     OR   a   ;clear carry
F331   CB 11                  RL   c   ;x2
F333   CB 11                  RL   c   ;x4
F335   CB 11                  RL   c   ;x8
F337   30 01                  JR   nc,$+3   
F339   04                     INC   b   ;add 1 if carry set
F33A   09                     ADD   hl,bc   ;add to RFC_LIST
F33B   DD 7E 1A               LD   a,(ix+26)   ;First cluster low word
F33E   77                     LD   (hl),a   
F33F   23                     INC   hl   
F340   DD 7E 1B               LD   a,(ix+27)   ;First cluster low word
F343   77                     LD   (hl),a   
F344   23                     INC   hl   
F345   DD 7E 14               LD   a,(ix+20)   ;First cluster high word
F348   77                     LD   (hl),a   
F349   23                     INC   hl   
F34A   DD 7E 15               LD   a,(ix+21)   ;First cluster high word
F34D   77                     LD   (hl),a   
F34E   23                     INC   hl   
F34F   DD 7E 1C               LD   a,(ix+28)   ;File size low word
F352   77                     LD   (hl),a   
F353   23                     INC   hl   
F354   DD 7E 1D               LD   a,(ix+29)   ;File size low word
F357   77                     LD   (hl),a   
F358   23                     INC   hl   
F359   DD 7E 1E               LD   a,(ix+30)   ;File size high word
F35C   77                     LD   (hl),a   
F35D   23                     INC   hl   
F35E   DD 7E 1F               LD   a,(ix+31)   ;File size high word
F361   77                     LD   (hl),a   
F362   F1                     POP   af   ;restore menu count
F363   3C                     INC   a   
F364   32 00 01               LD   (DIR_CFG),a   ;save menu count
F367   C3 C3 F2               JP   dirLoop   ;repeat
F36A   4C 4F 41 44 2D 2D 56 6F 6C 75 6D 65 3A 20 MENU_SEG:   DB   "LOAD--Volume: "   
F378                             ;Load a file from menu.  First get the file number in the menu.  Use this
F378                             ;to index the RFC_LIST to get the file cluster and file size.  Save file name
F378                             ;to FCB_NAME and Finally, ask for an address to load to and load the cluster to
F378                             ;that address
F378                FATFILELOADER:      
F378                             ;get file name
F378   CD 31 F5               CALL   saveFileName   ;save the file name to FCB_NAME
F37B                             ;see if its an Intel Hex File *.hex extension
F37B   21 CD 05               LD   hl,FCB_NAME   ;name of file
F37E   01 09 00               LD   bc,9   ;up to 9 chars for file name
F381   3E 2E                  LD   a,"."   ;file extension separator
F383   ED B1                  CPIR      ;move hl to extension
F385   11 F1 F3               LD   de,HEX_EXT   
F388                             ;check extension for .hex
F388   CD 7F F6               CALL   cpstr   ;compare file extension
F38B   28 5A                  JR   z,HEXfile   ;its a hex file, load as intel hex file
F38D                             ;Load file as binary
F38D                             ;get save address via parameter driver
F38D   3A 97 08               LD   a,(C_FILENO)   ;map to mon3 Menu data for selected menu entry
F390   F5                     PUSH   af   ;save file number
F391   21 BF F9               LD   hl,LOAD_CFG   ;load parameter configuration
F394   0E 20                  LD   c,API_PARAM   ;parameter driver
F396   D7                     RST   10H   ;mon3 API Call
F397   F1                     POP   af   
F398                             ;get cluster from RFC_LIST
F398   32 97 08               LD   (C_FILENO),a   ;map to mon3 Menu data for selected menu entry
F39B   CD 63 F5               CALL   getFirstCluster   ;get first cluster of file selected
F39E   DD E5                  PUSH   ix   ;save file size
F3A0   CD AE F4               CALL   FATgetSector   ;get sector of cluster
F3A3   21 00 06               LD   hl,DISK_BUFF   
F3A6   ED 5B C9 05            LD   de,(FCB_NSEC)   
F3AA   ED 4B CB 05            LD   bc,(FCB_NSEC+2)   
F3AE   CD 8B F4               CALL   FATreadSector   ;read sector of file
F3B1                             ;keep going until all bytes are copied.
F3B1   DD 21 00 08            LD   ix,HIGH_RAM   ;end of sector
F3B5   C1                     POP   bc   ;get file size
F3B6   21 00 06               LD   hl,DISK_BUFF   ;source
F3B9   ED 5B C7 05            LD   de,(FCB_ADDR)   ;destination
F3BD                FILECOPYLOOP:      
F3BD   ED A0                  LDI      
F3BF   E2 ED F3               JP   po,fileLoaded   ;no data left
F3C2   7A                     LD   a,d   ;check for max address 0x0000
F3C3   B3                     OR   e   
F3C4   28 27                  JR   z,fileLoaded   
F3C6   DD 7D                  LD   a,ixl   
F3C8   BD                     CP   l   
F3C9   20 F2                  JR   nz,fileCopyLoop   ;check if next sector needed
F3CB   DD 7C                  LD   a,ixh   
F3CD   BC                     CP   h   
F3CE   20 ED                  JR   nz,fileCopyLoop   ;check if next sector needed
F3D0                             ;load next sector
F3D0   C5                     PUSH   bc   
F3D1   D5                     PUSH   de   
F3D2   21 00 06               LD   hl,DISK_BUFF   
F3D5   ED 5B C9 05            LD   de,(FCB_NSEC)   
F3D9   ED 4B CB 05            LD   bc,(FCB_NSEC+2)   
F3DD   CD 8B F4               CALL   FATreadSector   
F3E0   21 00 06               LD   hl,DISK_BUFF   ;source
F3E3   D1                     POP   de   
F3E4   C1                     POP   bc   
F3E5   18 D6                  JR   fileCopyLoop   
F3E7                HEXFILE:      
F3E7                             ;must be hex file
F3E7   CD F5 F3               CALL   loadHEX   ;load intel hex file
F3EA   C2 73 F2               JP   nz,FATerror7   ;error
F3ED                FILELOADED:      
F3ED                             ;pop menu off
F3ED   0E 2F                  LD   c,API_MENUPOP   ;menu pop off
F3EF   D7                     RST   10H   ;mon3 API Call
F3F0   C9                     RET      
F3F1   48 45 58 00  HEX_EXT:   DB   "HEX",0   
F3F5                             ;Load a intel HEX file from menu.  First get the file number in the menu.  Use this
F3F5                             ;to index the RFC_LIST to get the file cluster and file size.  Then iterate through
F3F5                             ;the data converting it to binary
F3F5                LOADHEX:      
F3F5                             ;get cluster from RFC_LIST
F3F5   3A 97 08               LD   a,(C_FILENO)   ;map to mon3 Menu data for selected menu entry
F3F8   CD 63 F5               CALL   getFirstCluster   ;get first cluster of file selected
F3FB   CD AE F4               CALL   FATgetSector   ;get sector of cluster
F3FE   21 00 06               LD   hl,DISK_BUFF   
F401   ED 5B C9 05            LD   de,(FCB_NSEC)   
F405   ED 4B CB 05            LD   bc,(FCB_NSEC+2)   
F409   CD 8B F4               CALL   FATreadSector   ;read sector of file
F40C                             ;keep going until all bytes are copied.
F40C   DD 21 00 08            LD   ix,HIGH_RAM   ;end of sector
F410   FD 21 00 06            LD   iy,DISK_BUFF   ;source
F414                INTELLOADER1:      
F414   0E 00                  LD   c,0   ;clear checksum
F416                             ;Get header information
F416                INTELMARK1:      
F416   CD 68 F4               CALL   checkEndBuff   ;check if reached end of buffer
F419   FD 7E 00               LD   a,(iy+0)   ;get byte
F41C   FD 23                  INC   iy   ;move to next char
F41E   FE 3A                  CP   ":"   ;Is byte received a colon?
F420   20 F4                  JR   nz,intelMark1   ;No, loop until a colon is found
F422   CD 46 F4               CALL   getHexByte1   ;Convert ASCII to Byte (Length)
F425   47                     LD   b,a   ;Store Record Length in B
F426   CD 46 F4               CALL   getHexByte1   ;Convert ASCII to Byte (Destination address)
F429   67                     LD   h,a   ;Store High Address byte in H
F42A   CD 46 F4               CALL   getHexByte1   ;Convert ASCII to Byte (Destination address)
F42D   6F                     LD   l,a   ;Store Low Address byte in L
F42E   CD 46 F4               CALL   getHexByte1   ;Convert ASCII to Byte (Record Type)
F431   20 0D                  JR   nz,intelCheckSum1   ;Anything non zero treat as EOF
F433                             ;C=checksum, B=number of bytes, HL=destination address
F433                             ;Load bytes to (HL), B times
F433                INTELLOAD1:      
F433   CD 46 F4               CALL   getHexByte1   ;Convert ASCII to Byte (Data)
F436   77                     LD   (hl),a   ;store data in RAM
F437   23                     INC   hl   ;move to next RAM location
F438   10 F9                  DJNZ   intelLoad1   ;repeat until B=0
F43A   CD 40 F4               CALL   intelCheckSum1   ;Get checksum value
F43D   28 D5                  JR   z,intelLoader1   ;Line is processed and okay, get next line
F43F   C9                     RET      ;Exit with zero flag not set (load error)
F440                INTELCHECKSUM1:      
F440   CD 46 F4               CALL   getHexByte1   ;Convert ASCII to Byte (Checksum)
F443   79                     LD   a,c   ;Final Checksum is zero if okay
F444   B7                     OR   a   ;set zero flag
F445   C9                     RET      ;get next line or exit
F446                             ;Get ASCII character from FTDI AND convert it to a byte
F446                             ;IE: "D3" -> 0D3H
F446                GETHEXBYTE1:      
F446   CD 57 F4               CALL   getHexChar1   ;Get first Hex character from FTDI
F449   07                     RLCA      ;Move lower nibble
F44A   07                     RLCA      ;(first character)
F44B   07                     RLCA      ;to upper
F44C   07                     RLCA      ;nibble in A
F44D   57                     LD   d,a   ;store it in D
F44E   CD 57 F4               CALL   getHexChar1   ;Get second Hex character from FTDI
F451   B2                     OR   d   ;make a byte
F452                             ;add byte to checksum
F452   F5                     PUSH   af   ;save AF
F453   81                     ADD   a,c   ;add existing checksum C to current byte
F454   4F                     LD   c,a   ;load total back to C
F455   F1                     POP   af   ;restore AF
F456   C9                     RET      
F457                GETHEXCHAR1:      
F457   CD 68 F4               CALL   checkEndBuff   ;check if reached end of buffer
F45A   FD 7E 00               LD   a,(iy+0)   ;Get next byte
F45D   FD 23                  INC   iy   
F45F   CB 77                  BIT   6,a   ;is the chracter 0-9 or A-F?
F461   28 02                  JR   z,$+4   ;Its 0-9 skip A-F adjustment
F463   C6 09                  ADD   a,9   ;add 9 to fix A-F
F465   E6 0F                  AND   0FH   ;mask out high nibble and convert to binary
F467   C9                     RET      
F468                             ;Check if End of disk buffer and get a new one if at end
F468                CHECKENDBUFF:      
F468   DD 7D                  LD   a,ixl   
F46A   FD BD                  CP   iyl   
F46C   C0                     RET   nz   ;different
F46D   DD 7C                  LD   a,ixh   
F46F   FD BC                  CP   iyh   
F471   C0                     RET   nz   ;different
F472                             ;load next sector
F472   C5                     PUSH   bc   
F473   D5                     PUSH   de   
F474   E5                     PUSH   hl   
F475   21 00 06               LD   hl,DISK_BUFF   
F478   ED 5B C9 05            LD   de,(FCB_NSEC)   
F47C   ED 4B CB 05            LD   bc,(FCB_NSEC+2)   
F480   CD 8B F4               CALL   FATreadSector   
F483   FD 21 00 06            LD   iy,DISK_BUFF   ;source
F487   E1                     POP   hl   
F488   D1                     POP   de   
F489   C1                     POP   bc   
F48A   C9                     RET      
F48B                             ;Read a Sector and fill out next sector in cluster.  If end of cluster,
F48B                             ;get the next cluster and sector from File Allocation Table (FAT)
F48B                             ;Input: BCDE = LBA sector address 3,2,1 and 0
F48B                             ;       HL = Address of data buffer (512 bytes)
F48B                             ;Output: FCB_NSEC set to next sector
F48B                FATREADSECTOR:      
F48B                             ;check if all sectors in cluster have been read
F48B   3A C6 05               LD   a,(FCB_SCNT)   ;get current sector count
F48E   B7                     OR   a   ;is it zero
F48F   20 03                  JR   nz,readSector1   ;no, just read sector
F491   CD D5 F4               CALL   FATgetFAT   ;get next cluster from FAT
F494                READSECTOR1:      
F494   CD 7E F0               CALL   IDEreadSector   
F497   DA 69 F2               JP   c,FATerror5   ;error
F49A                             ;fill FCB Next Sector
F49A   21 01 00               LD   hl,0001H   
F49D   19                     ADD   hl,de   
F49E   22 C9 05               LD   (FCB_NSEC),hl   
F4A1   21 00 00               LD   hl,0000H   
F4A4   ED 4A                  ADC   hl,bc   
F4A6   22 CB 05               LD   (FCB_NSEC+2),hl   
F4A9   21 C6 05               LD   hl,FCB_SCNT   ;get current sector count
F4AC   35                     DEC   (hl)   ;decrease by one
F4AD   C9                     RET      
F4AE                             ;Get the sector based off a cluster number
F4AE                             ;Uses the formula ((Cluster Number - 2) * Sectors Per Cluster) + Data Start
F4AE                             ;Input: BCDE = 32 bit cluster number
F4AE                             ;Output: HLIX = 32 bit sector number
F4AE                             ;        (FCB_NSEC) = HLIX
F4AE                FATGETSECTOR:      
F4AE   3E 02                  LD   a,2   ;cluster base
F4B0   2F                     CPL      ;take 2 from cluster number
F4B1   37                     SCF      
F4B2   8B                     ADC   a,e   
F4B3   5F                     LD   e,a   
F4B4   38 05                  JR   c,nodec   
F4B6   15                     DEC   d   
F4B7   F2 BB F4               JP   p,nodec   
F4BA   0B                     DEC   bc   
F4BB                NODEC:       
F4BB   3A E4 05               LD   a,(CLUS_SEC)   ;get clusters per sector
F4BE   CD 3E FA               CALL   BCDEtimeA   ;get sector of cluster
F4C1   ED 4B FC 05            LD   bc,(DATA_START)   ;get low byte of data start
F4C5   DD 09                  ADD   ix,bc   ;get addition
F4C7   ED 4B FE 05            LD   bc,(DATA_START+2)   ;get high byte of data start
F4CB   ED 4A                  ADC   hl,bc   ;get addition
F4CD                             ;save in FCB_NSEC
F4CD   DD 22 C9 05            LD   (FCB_NSEC),ix   
F4D1   22 CB 05               LD   (FCB_NSEC+2),hl   
F4D4   C9                     RET      
F4D5                             ;set next cluster and sector from FAT
F4D5                             ;(Current Cluster * 4) + FAT_START
F4D5                             ;Get sector in FAT where cluster is
F4D5                             ;Returns BCDE = LBA sector address 3,2,1 and 0
F4D5                             ;        HL = Disk Buffer
F4D5                FATGETFAT:      
F4D5   2A F8 05               LD   hl,(ROOT_CLUS)   ;get current cluster
F4D8   ED 5B FA 05            LD   de,(ROOT_CLUS+2)   
F4DC   0E 80                  LD   c,128   
F4DE   CD 5B FA               CALL   DEHLDivC   ;(Current Cluster  / 128)
F4E1   F5                     PUSH   af   ;store remainder
F4E2                             ;DEHL = cc/128
F4E2   ED 4B F0 05            LD   bc,(FAT_START)   
F4E6   09                     ADD   hl,bc   
F4E7   EB                     EX   de,hl   
F4E8   ED 4B F2 05            LD   bc,(FAT_START+2)   ;get fat start
F4EC   ED 4A                  ADC   hl,bc   
F4EE   E5                     PUSH   hl   
F4EF   C1                     POP   bc   
F4F0                             ;BCDE = LBA sector address 3,2,1 and 0
F4F0   21 00 06               LD   hl,DISK_BUFF   
F4F3   CD 7E F0               CALL   IDEreadSector   ;get sector of FAT for cluster
F4F6   F1                     POP   af   ;get remainder from AF to get offset
F4F7   5F                     LD   e,a   
F4F8   16 00                  LD   d,0   
F4FA   01 00 00               LD   bc,0   
F4FD   3E 04                  LD   a,4   
F4FF   DD E5                  PUSH   ix   
F501   CD 3E FA               CALL   BCDEtimeA   ;multipy it by 4.  Result in IX
F504                             ;Index DISK_BUFF to next cluster
F504   DD E5                  PUSH   ix   
F506   D1                     POP   de   
F507   21 00 06               LD   hl,DISK_BUFF   
F50A   19                     ADD   hl,de   
F50B                             ;HL is now pointing to next cluster
F50B   5E                     LD   e,(hl)   ;BCDE = cluster number in HL
F50C   23                     INC   hl   
F50D   56                     LD   d,(hl)   
F50E   23                     INC   hl   
F50F   4E                     LD   c,(hl)   
F510   23                     INC   hl   
F511   46                     LD   b,(hl)   
F512   ED 53 F8 05            LD   (ROOT_CLUS),de   ;save root cluster
F516   ED 43 FA 05            LD   (ROOT_CLUS+2),bc   
F51A   3A E4 05               LD   a,(CLUS_SEC)   ;get cluster sector
F51D   32 C6 05               LD   (FCB_SCNT),a   ;and set it to sector count
F520                             ;read sector of cluster
F520   CD AE F4               CALL   FATgetSector   ;get sector of cluster
F523   21 00 06               LD   hl,DISK_BUFF   
F526   ED 5B C9 05            LD   de,(FCB_NSEC)   
F52A   ED 4B CB 05            LD   bc,(FCB_NSEC+2)   
F52E   DD E1                  POP   ix   
F530   C9                     RET      
F531                             ;Save file name from menu to FCB_NAME
F531                             ;Output: FCB_NAME populated with file name selected
F531                SAVEFILENAME:      
F531   21 07 01               LD   hl,DIR_CFG + 7   ;start from menu title
F534   01 7D 03               LD   bc,893   ;size of max menu
F537   AF                     XOR   a   
F538   ED B1                  CPIR      ;skip menu title
F53A   3A 97 08               LD   a,(C_FILENO)   ;map to mon3 Menu data for selected menu entry
F53D                TITLELOOP:      
F53D   B7                     OR   a   ;is it zero?
F53E   28 0D                  JR   z,saveTitle   
F540   57                     LD   d,a   ;save file number
F541   AF                     XOR   a   
F542   ED B1                  CPIR      ;find next file name
F544   23                     INC   hl   ;skip menu routine function
F545   23                     INC   hl   
F546   E2 6E F2               JP   po,FATerror6   ;file not found
F549   15                     DEC   d   
F54A   7A                     LD   a,d   
F54B   18 F0                  JR   titleLoop   ;loop again until title is found
F54D                SAVETITLE:      
F54D   01 0C 00               LD   bc,12   ;up to 12 bytes
F550   11 CD 05               LD   de,FCB_NAME   ;save file name
F553                SAVELOOP:      
F553   ED A0                  LDI      ;copy it
F555   7E                     LD   a,(hl)   
F556   B7                     OR   a   ;is it zero?
F557   20 FA                  JR   nz,saveLoop   
F559                             ;fill rest with spaces
F559   B1                     OR   c   ;are there none left?
F55A   C8                     RET   z   
F55B   41                     LD   b,c   
F55C   3E 20                  LD   a," "   ;space
F55E                FILLLOOP:      
F55E   12                     LD   (de),a   
F55F   13                     INC   de   
F560   10 FC                  DJNZ   fillLoop   
F562   C9                     RET      
F563                             ;Get first cluster of file selected on menu
F563                             ;Input: A = index of file selected from menu
F563                             ;Output: BCDE = 32 bit cluster number
F563                             ;        IX = file size
F563                             ;        (ROOT_CLUS) = BCDE
F563                             ;Destroy: HL,A
F563                GETFIRSTCLUSTER:      
F563   3C                     INC   a   ;move to next entry as I want to look back
F564   21 30 04               LD   hl,RFC_LIST   
F567   4F                     LD   c,a   
F568   06 00                  LD   b,0   ;clear B
F56A                             ;calculate index to RFC_LIST
F56A   B7                     OR   a   ;clear carry
F56B   CB 11                  RL   c   ;x2
F56D   CB 11                  RL   c   ;x4
F56F   CB 11                  RL   c   ;x8
F571   30 01                  JR   nc,$+3   
F573   04                     INC   b   ;add 1 if carry set
F574   09                     ADD   hl,bc   ;add to RFC_LIST
F575                             ;HL is now pointing to RFC_LIST
F575                             ;get file size
F575   2B                     DEC   hl   
F576   2B                     DEC   hl   
F577   2B                     DEC   hl   
F578   46                     LD   b,(hl)   
F579   2B                     DEC   hl   
F57A   4E                     LD   c,(hl)   
F57B   C5                     PUSH   bc   ;save for after cluster load
F57C   DD E1                  POP   ix   
F57E                             ;check for zero file size and make FFFF.  Can only load a max AFFF bytes
F57E   DD 7D                  LD   a,ixl   
F580   B7                     OR   a   
F581   20 07                  JR   nz,getCluster   
F583   DD 7C                  LD   a,ixh   
F585   B7                     OR   a   
F586   20 02                  JR   nz,getCluster   
F588   DD 2B                  DEC   ix   
F58A                GETCLUSTER:      
F58A   2B                     DEC   hl   
F58B                             ;get cluster number
F58B   46                     LD   b,(hl)   ;BCDE = cluster number in HL
F58C   2B                     DEC   hl   
F58D   4E                     LD   c,(hl)   
F58E   2B                     DEC   hl   
F58F   56                     LD   d,(hl)   
F590   2B                     DEC   hl   
F591   5E                     LD   e,(hl)   
F592   ED 53 F8 05            LD   (ROOT_CLUS),de   ;save root cluster
F596   ED 43 FA 05            LD   (ROOT_CLUS+2),bc   
F59A   3A E4 05               LD   a,(CLUS_SEC)   ;get cluster sector
F59D   32 C6 05               LD   (FCB_SCNT),a   ;and set it to sector count
F5A0   C9                     RET      
F5A1                             ;Open a file from the disk
F5A1                             ;Input: HL = Pointer to a ZERO terminated file name
F5A1                             ;Output: C_FILENO = (0897H) index of file in RFC_LIST or Directory Listing
F5A1                OPENFILE:      
F5A1   E5                     PUSH   hl   
F5A2   CD 2C F0               CALL   initDisk   ;Mount and get Root Directory`
F5A5   E1                     POP   hl   
F5A6                             ;Search the DIR_CFG for the file name
F5A6   EB                     EX   de,hl   
F5A7   21 00 01               LD   hl,DIR_CFG   
F5AA   46                     LD   b,(hl)   ;get menu count
F5AB   21 07 01               LD   hl,DIR_CFG + 7   ;start from menu title
F5AE   AF                     XOR   a   
F5AF   32 97 08               LD   (C_FILENO),a   ;clear file number
F5B2                SKIPTITLE:      
F5B2   7E                     LD   a,(hl)   ;get next character
F5B3   23                     INC   hl   
F5B4   B7                     OR   a   ;is it zero?
F5B5   20 FB                  JR   nz,skipTitle   ;no, keep checking
F5B7   EB                     EX   de,hl   
F5B8                FINDLOOP:      
F5B8   E5                     PUSH   hl   ;save file name pointer
F5B9                FINDLOOP1:      
F5B9   1A                     LD   a,(de)   ;get file name character
F5BA   BE                     CP   (hl)   ;compare with file name
F5BB   13                     INC   de   
F5BC   23                     INC   hl   
F5BD   20 05                  JR   nz,noMatch   ;no match, update C_FILENO
F5BF   B7                     OR   a   ;is it zero? If still here must have a match
F5C0   20 F7                  JR   nz,findLoop1   ;yes, check next character
F5C2   E1                     POP   hl   ;fix stack
F5C3   C9                     RET      ;yes, file found, return
F5C4                NOMATCH:      
F5C4                             ;no match, update C_FILENO
F5C4   21 97 08               LD   hl,C_FILENO   ;get file number
F5C7   34                     INC   (hl)   ;increment file number
F5C8                             ;get to next file name
F5C8                FINDLOOP2:      
F5C8   1A                     LD   a,(de)   ;get next character
F5C9   13                     INC   de   
F5CA   B7                     OR   a   ;is it zero?
F5CB   20 FB                  JR   nz,findLoop2   ;no, keep checking
F5CD   E1                     POP   hl   ;restore file name pointer
F5CE   13                     INC   de   ;skip address
F5CF   13                     INC   de   ; 
F5D0   10 E6                  DJNZ   findLoop   ;decrement file count
F5D2                             ;if we get here, file not found;
F5D2   C3 6E F2               JP   FATerror6   ;no files in menu
F5D5                             ;Read Sector on file
F5D5                             ;Will read a sector of 512 bytes from a file
F5D5                             ;IE: Sector 0 = 0-511 bytes
F5D5                             ;    Sector 1 = 512-1023 bytes
F5D5                             ;    Sector 2 = 1024-1535 bytes etc
F5D5                             ;Requires the openFile to be called first (and once only)
F5D5                             ;Input: HLDE = block in bytes on file to retreive 3,2,1 and 0
F5D5                             ;Output: Stores sector in DISK_BUFF 0600H to 07FFH (512 bytes)
F5D5                READSECTOR:      
F5D5   E5                     PUSH   hl   ;save HL    ;make BC=HL
F5D6   D5                     PUSH   de   
F5D7   3A 97 08               LD   a,(C_FILENO)   ;get index
F5DA   21 30 04               LD   hl,RFC_LIST   
F5DD   4F                     LD   c,a   
F5DE   06 00                  LD   b,0   ;clear B
F5E0                             ;calculate index to RFC_LIST
F5E0   B7                     OR   a   ;clear carry
F5E1   CB 11                  RL   c   ;x2
F5E3   CB 11                  RL   c   ;x4
F5E5   CB 11                  RL   c   ;x8
F5E7   30 01                  JR   nc,$+3   
F5E9   04                     INC   b   ;add 1 if carry set
F5EA   09                     ADD   hl,bc   ;add to RFC_LIST
F5EB                             ;HL is now pointing to RFC_LIST
F5EB                             ;save data to ROOT_CLUS
F5EB   5E                     LD   e,(hl)   
F5EC   23                     INC   hl   
F5ED   56                     LD   d,(hl)   
F5EE   23                     INC   hl   
F5EF   ED 53 F8 05            LD   (ROOT_CLUS),de   
F5F3   5E                     LD   e,(hl)   
F5F4   23                     INC   hl   
F5F5   56                     LD   d,(hl)   
F5F6   ED 53 FA 05            LD   (ROOT_CLUS+2),de   
F5FA                             ;work out which cluster the sector is in.
F5FA   D1                     POP   de   
F5FB   C1                     POP   bc   ;hl
F5FC                             ;check file size BCDE
F5FC   23                     INC   hl   
F5FD   23                     INC   hl   
F5FE   23                     INC   hl   
F5FF   23                     INC   hl   ;get to MSB
F600   7E                     LD   a,(hl)   
F601   B8                     CP   b   ;if carry too large
F602   DA 8C F2               JP   c,FATerror12   ;too large
F605   20 16                  JR   nz,sizeCheckDone   ;file size okay
F607   2B                     DEC   hl   
F608   7E                     LD   a,(hl)   
F609   B9                     CP   c   ;if carry too large
F60A   DA 8C F2               JP   c,FATerror12   ;too large
F60D   20 0E                  JR   nz,sizeCheckDone   ;file size okay
F60F   2B                     DEC   hl   
F610   7E                     LD   a,(hl)   
F611   BA                     CP   d   ;if carry too large
F612   DA 8C F2               JP   c,FATerror12   ;too large
F615   20 06                  JR   nz,sizeCheckDone   ;file size okay
F617   2B                     DEC   hl   
F618   7E                     LD   a,(hl)   
F619   BB                     CP   e   ;if carry too large
F61A   DA 8C F2               JP   c,FATerror12   ;too large
F61D                SIZECHECKDONE:      
F61D                             ;set HL with 512 * CLUS_SEC
F61D   3A E4 05               LD   a,(CLUS_SEC)   ;get cluster sector
F620   07                     RLCA      ;x2
F621   67                     LD   h,a   ;save x2 in H
F622   2E 00                  LD   l,0   
F624   3E FF                  LD   a,0FFH   ;cluster counter
F626   F5                     PUSH   af   ;save cluster number
F627                CLUSTERLOOP:      
F627   F1                     POP   af   ;restore cluster number
F628   3C                     INC   a   ;increment cluster number
F629   F5                     PUSH   af   ;save cluster number
F62A   CD 6C FA               CALL   BCDEminusHL   ;subtract until overflow
F62D   30 F8                  JR   nc,clusterLoop   ;loop until all clusters are done
F62F   F1                     POP   af   ;restore cluster number
F630   19                     ADD   hl,de   ;store byte remainder in HL
F631                             ;find the correct cluster in the FAT
F631   E5                     PUSH   hl   
F632                FATLOOP:      
F632   B7                     OR   a   ;is it zero?
F633   28 08                  JR   z,fatLoopExit   
F635   F5                     PUSH   af   
F636   CD D5 F4               CALL   FATgetFAT   ;get next cluster from FAT
F639   F1                     POP   af   ;restore AF
F63A   3D                     DEC   a   
F63B   18 F5                  JR   fatLoop   ;loop until all clusters are done
F63D                FATLOOPEXIT:      
F63D   ED 5B F8 05            LD   de,(ROOT_CLUS)   ;get root cluster
F641   ED 4B FA 05            LD   bc,(ROOT_CLUS+2)   
F645                             ;read sector of cluster
F645   CD AE F4               CALL   FATgetSector   ;get sector of cluster
F648   ED 5B C9 05            LD   de,(FCB_NSEC)   
F64C   ED 4B CB 05            LD   bc,(FCB_NSEC+2)   
F650   E1                     POP   hl   ;restore HL byte remainder.  index for lba
F651                             ; hl is now in bytes, need to divide by 512 to get lba index
F651                             ; do a shift right of h and make l=h and h=0
F651   CB 3C                  SRL   h   
F653   6C                     LD   l,h   
F654   26 00                  LD   h,0   ;make h=0
F656   19                     ADD   hl,de   
F657   EB                     EX   de,hl   ;HL now has lba
F658   30 01                  JR   nc,$+3   ;skip update of BC by one if not carry
F65A   03                     INC   bc   
F65B                             ;Now have lba in BCDE
F65B   ED 53 C9 05            LD   (FCB_NSEC),de   ;save lba in FCB_NSEC for saving if needed
F65F   ED 43 CB 05            LD   (FCB_NSEC+2),bc   
F663   21 00 06               LD   hl,DISK_BUFF   ;source
F666   CD 7E F0               CALL   IDEreadSector   ;read sector of file
F669   DA 69 F2               JP   c,FATerror5   ;error reading sector
F66C   C9                     RET      
F66D                             ;Write a sector to file
F66D                             ;Will save a sector of 512 bytes to a file
F66D                             ;Input: Requires readSector to be called first.  This will load the sector for
F66D                             ;       editing.  Then when done, call this routine to save the sector back to the disk
F66D                             ;       Data to save is in DISK_BUFF 0600H to 07FFH (512 bytes)
F66D                WRITESECTOR:      
F66D   ED 5B C9 05            LD   de,(FCB_NSEC)   
F671   ED 4B CB 05            LD   bc,(FCB_NSEC+2)   
F675   21 00 06               LD   hl,DISK_BUFF   ;source
F678   CD FC F0               CALL   IDEwriteSector   ;write sector of file
F67B   DA 69 F2               JP   c,FATerror5   ;error writing sector
F67E   C9                     RET      
F67F                             ;Compare two strings at HL and DE
F67F                             ;returns z if they are equal
F67F                             ;returns c if DE points to the smaller string
F67F                             ;returns nc if DE is the bigger (or equal) string.
F67F                CPSTR:       
F67F   1A                     LD   a,(de)   ;string 1
F680   BE                     CP   (hl)   ;string 2
F681   13                     INC   de   
F682   23                     INC   hl   
F683   C0                     RET   nz   ;not equal, return
F684   1A                     LD   a,(de)   
F685   B7                     OR   a   ;end of string?
F686   20 F7                  JR   nz,cpstr   ;no check next character
F688   C9                     RET      
F689                             ;Save all RAM to disk.  Requires a 64kb file called "MYDATA.TEC" to be present on the disk.
F689                             ;RAM from 0000H to BFFFH is saved to the file, plus the expansion RAM from 8000H to BFFFH.
F689                SAVERAM:      
F689   21 EA F9               LD   hl,RAM_FILE   
F68C   CD A1 F5               CALL   openFile   ;open the file
F68F                             ;clear LCD
F68F   21 0A FA               LD   hl,SAVING_TEXT   
F692   CD 3F F7               CALL   setupLCD   
F695   06 80                  LD   b,80h   ;sectors to save, 60h normal sectors + 20h expansion RAM sectors
F697   21 00 00               LD   hl,0000h   ;byte address to save
F69A                             ;read file into ram
F69A   11 00 00               LD   de,0000h   ;start at sector 0
F69D                SAVERAMLOOP:      
F69D   D5                     PUSH   de   
F69E   C5                     PUSH   bc   
F69F   E5                     PUSH   hl   
F6A0   06 C9                  LD   b,0C9H   
F6A2   CD 9C C5               CALL   commandToLCD   ;update LCD
F6A5   CD B6 C5               CALL   HLtoLCD   ;write address to LCD
F6A8   EB                     EX   de,hl   
F6A9   06 9D                  LD   b,09DH   
F6AB   CD 9C C5               CALL   commandToLCD   ;update LCD
F6AE   CD B6 C5               CALL   HLtoLCD   ;sector address to LCD
F6B1   EB                     EX   de,hl   
F6B2   CD 62 F7               CALL   sectorToBytes   ;Convert sector number to byte address
F6B5                             ;load sector (512 bytes) to ram 0600h-07FFh
F6B5   CD D5 F5               CALL   readSector   
F6B8                             ;save ram to disk
F6B8   E1                     POP   hl   
F6B9   11 00 06               LD   de,0600h   ;destination address in memory
F6BC   01 00 02               LD   bc,512   ;sector size
F6BF   ED B0                  LDIR      ;copy ram to disk buffer
F6C1                             ;write the sector back to disk
F6C1   E5                     PUSH   hl   ;save current address
F6C2   CD 6D F6               CALL   writeSector   
F6C5   E1                     POP   hl   
F6C6   C1                     POP   bc   
F6C7   D1                     POP   de   
F6C8   13                     INC   de   ;increment sector number
F6C9   78                     LD   a,b   
F6CA   FE 21                  CP   21h   ;check if we are up to the expansion RAM sectors
F6CC   20 06                  JR   nz,skipExp   ;if no, skip
F6CE   CD 2E F7               CALL   setExpandFlag   
F6D1   21 00 80               LD   hl,8000h   ;reset address to expansion RAM
F6D4                SKIPEXP:      
F6D4   10 C7                  DJNZ   saveRAMLoop   ;decrement counter and loop if not zero
F6D6                             ;unset expansion RAM flag
F6D6   3E 00                  LD   a,00h   
F6D8   C3 1D D0               JP   setExpand   ;unset expand flag
F6DB                             ;Load disk file to RAM.  Requires a 64kb file called "MYDATA.TEC" to be present on the disk.
F6DB                             ;RAM from 0000H to BFFFH is loaded from the file, plus the expansion RAM from 8000H to BFFFH.
F6DB                LOADRAM:      
F6DB                             ;load file from disk to ram
F6DB   21 EA F9               LD   hl,RAM_FILE   
F6DE   CD A1 F5               CALL   openFile   
F6E1                             ;clear LCD
F6E1   21 F5 F9               LD   hl,LOADING_TEXT   
F6E4   CD 3F F7               CALL   setupLCD   
F6E7                             ;read file into ram
F6E7   06 80                  LD   b,80h   ;sectors to load, 60h normal sectors + 20h expansion RAM sectors
F6E9   11 00 00               LD   de,0000h   ;start at sector 0
F6EC                LOADLOOP:      
F6EC   D5                     PUSH   de   
F6ED   C5                     PUSH   bc   
F6EE   06 9D                  LD   b,09DH   
F6F0   CD 9C C5               CALL   commandToLCD   ;update LCD
F6F3   62                     LD   h,d   
F6F4   6B                     LD   l,e   
F6F5   CD B6 C5               CALL   HLtoLCD   ;write address to LCD
F6F8   CD 62 F7               CALL   sectorToBytes   ;Convert sector number to byte address
F6FB   D5                     PUSH   de   
F6FC                             ;load sector (512 bytes) to ram 0600h-07FFh
F6FC   CD D5 F5               CALL   readSector   
F6FF                             ;copy disk ram to memory
F6FF   D1                     POP   de   
F700   C1                     POP   bc   
F701   C5                     PUSH   bc   
F702   78                     LD   a,b   
F703   FE 21                  CP   21h   ;if sectors 60h-7Fh load to expansion RAM
F705   30 05                  JR   nc,skipExp2   
F707   21 00 C0               LD   hl,0C000h   ;Do a subtraction with and addition and wrap around!
F70A   19                     ADD   hl,de   
F70B   EB                     EX   de,hl   
F70C                SKIPEXP2:      
F70C   06 C9                  LD   b,0C9H   
F70E   CD 9C C5               CALL   commandToLCD   ;update LCD
F711   62                     LD   h,d   
F712   6B                     LD   l,e   
F713   CD B6 C5               CALL   HLtoLCD   ;write sector to LCD
F716   01 00 02               LD   bc,512   ;sector size in bytes
F719   21 00 06               LD   hl,0600h   ;source address in memory
F71C   ED B0                  LDIR      ;fill in the RAM
F71E                             ;increment sector number
F71E   C1                     POP   bc   
F71F   D1                     POP   de   
F720   13                     INC   de   ;increment sector number
F721   78                     LD   a,b   
F722   FE 21                  CP   21h   ;check if we are up to the expansion RAM sectors
F724   CC 2E F7               CALL   z,setExpandFlag   
F727   10 C3                  DJNZ   loadLoop   ;decrement counter and loop if not zero
F729                             ;unset expansion RAM flag
F729   3E 00                  LD   a,00h   
F72B   C3 1D D0               JP   setExpand   ;unset expansion RAM flag
F72E                             ; Set Expand flag with LCD update
F72E                SETEXPANDFLAG:      
F72E   3E 04                  LD   a,04h   ;expand flag
F730   CD 1D D0               CALL   setExpand   
F733   C5                     PUSH   bc   
F734   06 DD                  LD   b,0DDH   
F736   CD 9C C5               CALL   commandToLCD   ;update LCD
F739   C1                     POP   bc   
F73A   3E 59                  LD   a,"Y"   
F73C   C3 98 C5               JP   charToLCD   ;write "Y" to LCD
F73F                             ;Set up LCD
F73F                             ;Input: HL = first line of LCD
F73F                SETUPLCD:      
F73F   06 01                  LD   b,01H   ;clear LCD instruction
F741   CD 9C C5               CALL   commandToLCD   ;update LCD
F744   CD 83 C5               CALL   stringToLCD   ;write text
F747   06 C0                  LD   b,0C0H   ;set cursor to row 2
F749   CD 9C C5               CALL   commandToLCD   ;update LCD
F74C   21 1F FA               LD   hl,GENERAL_TEXT   
F74F   CD 83 C5               CALL   stringToLCD   ;write text
F752   06 94                  LD   b,94H   ;set cursor to row 3
F754   CD 9C C5               CALL   commandToLCD   ;update LCD
F757   CD 83 C5               CALL   stringToLCD   ;write text
F75A   06 D4                  LD   b,0D4H   ;set cursor to row 4
F75C   CD 9C C5               CALL   commandToLCD   ;update LCD
F75F   C3 83 C5               JP   stringToLCD   ;write text
F762                             ; Convert a sector number to actual byte address.  This routine multiplies the sector number by 512
F762                             ; and returns the result in HLDE.  The result is the byte address of the start of the sector in memory.
F762                             ; Input: DE = Sector number (0-based)
F762                             ; Output: HLDE = Byte address of the start of the sector in memory
F762                SECTORTOBYTES:      
F762                             ;DE x 512
F762   B7                     OR   a   ;Clear carry
F763   CB 13                  RL   e   
F765   CB 12                  RL   d   ;x2
F767   3E 00                  LD   a,0   
F769   67                     LD   h,a   ;Add carry to H if necessary
F76A   8C                     ADC   a,h   ;Multiply by 256
F76B   67                     LD   h,a   ;H = carry
F76C   6A                     LD   l,d   ;L = D
F76D   53                     LD   d,e   ;D = E
F76E   1E 00                  LD   e,0   ;E = 0
F770   C9                     RET      
F771                             ;Check if SD card is present
F771                             ;This routine checks if the SD card is present by calling CMD0.
F771                             ;Input: None
F771                             ;Output: Zero set if SD card is present
F771                CHECKSDCARDPRESENT:      
F771   C5                     PUSH   bc   
F772   0E 0A                  LD   c,10   ; Number of retries for SD card detection
F774                SDINIT1:      
F774   CD 5F F8               CALL   spiInit   ; set SD interface to idle state
F777   06 50                  LD   b,80   ; toggle clk 80 times
F779   3E 05                  LD   a,C_SERIDLE   ; set CS and MOSI high
F77B                SDRESET:      
F77B   D3 FD                  OUT   (SDIO),a   
F77D   CB CF                  SET   1,a   ; set CLK
F77F   D3 FD                  OUT   (SDIO),a   
F781   00                     NOP      
F782   CB 8F                  RES   1,a   ; clear CLK
F784   D3 FD                  OUT   (SDIO),a   
F786   10 F3                  DJNZ   sdReset   
F788                             ;Reset card to SPI mode
F788   21 8F F9               LD   hl,spiCMD0   ; Initialize the SD card
F78B   CD 9B F7               CALL   sendSPICommand   ; should come back as 01 if card present
F78E   FE 01                  CP   01h   
F790   28 07                  JR   z,sdReset2   ; SD card detected
F792   0D                     DEC   c   ; card not detected, decrement retry count
F793   28 02                  JR   z,sdReset1   ; no more retries, exit
F795   18 DD                  JR   sdInit1   ; and try again
F797                SDRESET1:      
F797   F6 01                  OR   1   ;reset zero flag
F799                SDRESET2:      
F799   C1                     POP   bc   
F79A   C9                     RET      
F79B                             ; Send a command to the SD card
F79B                             ; Input: HL = Pointer to command buffer
F79B                             ; Output: A = Response byte
F79B                SENDSPICOMMAND:      
F79B   C5                     PUSH   bc   ;Save BC
F79C   D5                     PUSH   de   ;Save DE
F79D   06 06                  LD   b,6   ; Number of bytes to send
F79F                SENDLOOP1:      
F79F   4E                     LD   c,(hl)   ; Load byte to send
F7A0   CD 8C F8               CALL   spiWrite   ; Send byte
F7A3   23                     INC   hl   ; Increment HL to point to next byte
F7A4   10 F9                  DJNZ   sendLoop1   ; Repeat for all bytes
F7A6   CD AC F7               CALL   readSPIByte   ; Read response byte
F7A9   D1                     POP   de   ; Restore DE
F7AA   C1                     POP   bc   ; Restore BC
F7AB   C9                     RET      
F7AC                             ; Read a byte from the SD card
F7AC                             ; Input: None
F7AC                             ; Output: A = Read byte
F7AC                READSPIBYTE:      
F7AC   C5                     PUSH   bc   
F7AD   D5                     PUSH   de   
F7AE   06 20                  LD   b,32   ; wait up to 32 tries, but should need 1-2
F7B0                READLOOP:      
F7B0   CD 66 F8               CALL   spiRead   ; get value in A
F7B3   FE FF                  CP   0ffh   
F7B5   20 02                  JR   nz,$+4   
F7B7   10 F7                  DJNZ   readLoop   
F7B9   D1                     POP   de   
F7BA   C1                     POP   bc   
F7BB   C9                     RET      
F7BC                             ; Read a block from the SD card
F7BC                             ; Input: HL = Buffer to read to (512 bytes)
F7BC                             ; Note: Set up Read Command LBA prior to this call
F7BC                READSPIBLOCK:      
F7BC   01 00 02               LD   bc,512   
F7BF                READBLOCKBUSY:      
F7BF   CD 66 F8               CALL   spiRead   
F7C2   FE FF                  CP   0FFH   
F7C4   28 F9                  JR   z,readBlockBusy   
F7C6   FE FE                  CP   0FEH   ;start token
F7C8   20 F5                  JR   nz,readBlockBusy   ;ignore
F7CA                READBLOCKLOOP:      
F7CA   CD 66 F8               CALL   spiRead   
F7CD   77                     LD   (hl),a   
F7CE   23                     INC   hl   
F7CF   0B                     DEC   bc   
F7D0   78                     LD   a,b   
F7D1   B1                     OR   c   
F7D2   20 F6                  JR   nz,readBlockLoop   
F7D4                             ;read CRC (two bytes)
F7D4   CD 66 F8               CALL   spiRead   
F7D7   CD 66 F8               CALL   spiRead   
F7DA   C9                     RET      
F7DB                             ; Write a block to the SD card
F7DB                             ; Input: HL = Buffer to write from (512 bytes)
F7DB                             ; Output: A = Result of write operation, 05H for success
F7DB                             ; Note: Set up Write Command LBA prior to this call
F7DB                WRITESPIBLOCK:      
F7DB   0E FE                  LD   c,0FEH   ; send start block token
F7DD   CD 8C F8               CALL   spiWrite   
F7E0   11 00 02               LD   de,512   
F7E3                WRITEBLOCKLOOP:      
F7E3   4E                     LD   c,(hl)   ; Load byte to send
F7E4   CD 8C F8               CALL   spiWrite   ; Send byte
F7E7   23                     INC   hl   ; Increment HL to point to next byte
F7E8   1B                     DEC   de   
F7E9   7A                     LD   a,d   
F7EA   B3                     OR   e   
F7EB   20 F6                  JR   nz,writeBlockLoop   ; Repeat for all bytes
F7ED                             ;send dummy CRC (0xFF, 0xFF)
F7ED   0E FF                  LD   c,0FFH   
F7EF   CD 8C F8               CALL   spiWrite   ; send dummy CRC byte 1
F7F2   CD 8C F8               CALL   spiWrite   ; send dummy CRC byte 2
F7F5                             ; Read the response token
F7F5   CD AC F7               CALL   readSPIByte   ; get the write response token
F7F8   4F                     LD   c,a   ; save result into C
F7F9                             ; Wait for the card to finish writing
F7F9                WAITDONELOOP:      
F7F9   CD 66 F8               CALL   spiRead   ; 00 = busy - wait for card to finish
F7FC   B7                     OR   a   
F7FD   28 FA                  JR   z,waitDoneLoop   ; wait until card is not busy
F7FF   79                     LD   a,c   ; restore result to A register
F800   E6 1F                  AND   1FH   ; return code 05 = success
F802   C9                     RET      
F803                             ; Initialize the SD card.  Call this routine to set up the SD card for use.
F803                             ; Steps through the initialisation process for the SD card
F803                             ; Calling CMD0, CMD8, CMD55, CMD41, CMD58, and CMD16
F803                             ; Throws errors if any of the commands fail
F803                INITSD:      
F803                             ; Check if SD card is present
F803   CD 71 F7               CALL   checkSDCardPresent   
F806   C2 78 F2               JP   nz,FATerror8   ; No SD card, error
F809                             ;Check voltage compatibility (2.7-3.6V, check pattern 0xAA)
F809   21 95 F9               LD   hl,spiCMD8   
F80C   CD 9B F7               CALL   sendSPICommand   ;returns 5 responses
F80F   FE 01                  CP   1   ;first response
F811   20 07                  JR   nz,sendCMD55   
F813                             ;get the next 4 responses
F813   06 04                  LD   b,4   
F815                CMD8LOOP:      
F815   CD AC F7               CALL   readSPIByte   
F818   10 FB                  DJNZ   cmd8loop   
F81A                SENDCMD55:      
F81A                             ;Initialize card (send CMD55 + CMD41 repeatedly)
F81A   11 00 C0               LD   de,0C000H   
F81D                CMD55DELAY:      
F81D   1B                     DEC   de   
F81E   7A                     LD   a,d   
F81F   B3                     OR   e   
F820   20 FB                  JR   nz,cmd55delay   
F822   21 AD F9               LD   hl,spiCMD55   
F825   CD 9B F7               CALL   sendSPICommand   
F828   21 B9 F9               LD   hl,spiACMD41   
F82B   CD 9B F7               CALL   sendSPICommand   
F82E   B7                     OR   a   
F82F   20 E9                  JR   nz,sendCMD55   
F831                             ;Read OCR to check addressing mode
F831   21 B3 F9               LD   hl,spiCMD58   
F834   CD 9B F7               CALL   sendSPICommand   
F837   B7                     OR   a   
F838   C2 7D F2               JP   nz,FATerror9   ;SD Failed OCR check
F83B   06 04                  LD   b,4   
F83D   21 00 06               LD   hl,DISK_BUFF   
F840                CMD58LOOP:      
F840   CD AC F7               CALL   readSPIByte   
F843   77                     LD   (hl),a   
F844   23                     INC   hl   
F845   10 F9                  DJNZ   cmd58loop   
F847   3A 00 06               LD   a,(DISK_BUFF)   ;bit 7 = valid, bit 6 = SDHC if 1, SDSC if 0
F84A   E6 C0                  AND   0C0H   ;80h = SDSC, C0h = SDHC
F84C   CB 7F                  BIT   7,a   
F84E   CA 82 F2               JP   z,FATerror10   ;Invalid SD card
F851   FE 80                  CP   80H   ;check if SDSC
F853   C0                     RET   nz   
F854                             ;SDSC card, set block size to 512 bytes
F854   21 9B F9               LD   hl,spiCMD16   
F857   CD 9B F7               CALL   sendSPICommand   
F85A   B7                     OR   a   
F85B   C2 87 F2               JP   nz,FATerror11   ;SD Failed CMD16
F85E   C9                     RET      
F85F                             ; SD Card Interface:
F85F                             ; - Bit 0: MOSI (Master Out Slave In)
F85F                             ; - Bit 1: CLK (Clock)
F85F                             ; - Bit 2: CS (Chip Select)
F85F                             ; - Bit 7: MISO (Master In Slave Out)
F85F                             ;SPI Init Routine.
F85F                             ;Initialize the SPI interface for SD card communication
F85F                SPIINIT:      
F85F   F5                     PUSH   af   ;Save A
F860   3E 05                  LD   a,C_SERIDLE   
F862   D3 FD                  OUT   (SDIO),a   ;Set SDIO to idle state
F864   F1                     POP   af   ;Restore A
F865   C9                     RET      
F866                             ;SPI Read Routine.
F866                             ;Read a byte from the SD card
F866                             ;Input: None
F866                             ;Output: A = Read byte
F866                SPIREAD:      
F866   C5                     PUSH   bc   ;Save BC
F867   D5                     PUSH   de   ;Save DE
F868   06 08                  LD   b,8   ;8 bits to read
F86A   1E 00                  LD   e,0   ;Result
F86C                SPIREADLOOP:      
F86C   3E 05                  LD   a,C_SERIDLE   
F86E   E6 FB                  AND   C_SERCS   ;CS bit
F870   D3 FD                  OUT   (SDIO),a   ;Set CS
F872   00                     NOP      ;Wait for CS to settle
F873   CB CF                  SET   1,a   ;Set CLK
F875   D3 FD                  OUT   (SDIO),a   ;Send clock pulse
F877   4F                     LD   c,a   ;Backup A
F878   DB FD                  IN   a,(SDIO)   ;Read MISO
F87A   17                     RLA      ;Shift left
F87B   CB 13                  RL   e   ;Shift result left
F87D   79                     LD   a,c   ;Restore A
F87E   E6 FD                  AND   0FDh   ;Clear CLK
F880   D3 FD                  OUT   (SDIO),a   ;Clear CLK
F882   10 E8                  DJNZ   spiReadLoop   ;Repeat for all bits
F884   3E 05                  LD   a,C_SERIDLE   ;Set Idle state, MOSI high, CLK low, CS high
F886   D3 FD                  OUT   (SDIO),a   ;Output to SD Card
F888   7B                     LD   a,e   ;Get result
F889   D1                     POP   de   ;Restore DE
F88A   C1                     POP   bc   ;Restore BC
F88B   C9                     RET      
F88C                             ;SPI Write Routine.
F88C                             ;Write a byte to the SD card
F88C                             ;Input: C = Byte to write
F88C                             ;Output: None
F88C                SPIWRITE:      
F88C   F5                     PUSH   af   ;Save A
F88D   C5                     PUSH   bc   ;Save BC
F88E   06 08                  LD   b,8   ;8 bits to write
F890                SPIWRITELOOP:      
F890   3E 05                  LD   a,C_SERIDLE   
F892   E6 FB                  AND   C_SERCS   ;CS bit
F894   CB 79                  BIT   7,c   ;Check if bit 7 is set
F896   20 02                  JR   nz,$+4   
F898   CB 87                  RES   0,a   ;Set data bit
F89A   D3 FD                  OUT   (SDIO),a   ;Set CS and MOSI
F89C   F6 02                  OR   02h   ;Set CLK
F89E   D3 FD                  OUT   (SDIO),a   ;Send clock pulse
F8A0   00                     NOP      ;Wait for clock pulse
F8A1   E6 FD                  AND   0FDh   ;Clear CLK
F8A3   D3 FD                  OUT   (SDIO),a   ;Clear CLK
F8A5   CB 01                  RLC   c   ;Shift left for next bit
F8A7   10 E7                  DJNZ   spiWriteLoop   ;Repeat for all bits
F8A9   3E 05                  LD   a,C_SERIDLE   ;Set Idle state, MOSI high, CLK low, CS high
F8AB   D3 FD                  OUT   (SDIO),a   ;Output to SD Card
F8AD   C1                     POP   bc   ;Restore BC
F8AE   F1                     POP   af   ;Restore A
F8AF   C9                     RET      
F8B0                             ;Messages (Max 15 characters plus 1 space)
F8B0   44 69 73 6B 20 54 69 6D 65 6F 75 74 20 00 MSG_TIMEOUT:   DB   "Disk Timeout ",0   
F8BE   44 61 74 61 20 4E 6F 74 20 52 65 61 64 79 20 00 MSG_DRQST:   DB   "Data Not Ready ",0   
F8CE   49 44 45 20 45 52 52 20 49 4F 20 42 61 64 20 00 MSG_IOERR:   DB   "IDE ERR IO Bad ",0   
F8DE   43 61 6E 27 74 20 72 65 61 64 20 4D 42 52 20 00 MSG_MBR:   DB   "Can't read MBR ",0   
F8EE   4D 42 52 20 49 6C 6C 65 67 61 6C 20 00 MSG_MBR_BAD:   DB   "MBR Illegal ",0   
F8FB   42 50 42 20 52 65 61 64 20 46 61 69 6C 20 00 MSG_BPB:   DB   "BPB Read Fail ",0   
F90A   42 79 74 2F 53 65 63 20 21 3D 20 35 31 32 20 00 MSG_BPS:   DB   "Byt/Sec != 512 ",0   
F91A   52 6F 6F 74 20 44 69 72 20 52 65 61 64 20 00 MSG_ROOT:   DB   "Root Dir Read ",0   
F929   46 69 6C 65 20 4E 6F 74 20 46 6F 75 6E 64 20 00 MSG_FILE:   DB   "File Not Found ",0   
F939   42 61 64 20 43 68 65 63 6B 73 75 6D 20 00 MSG_INTEL:   DB   "Bad Checksum ",0   
F947   4E 6F 20 53 44 20 43 61 72 64 20 00 MSG_NOSDCARD:   DB   "No SD Card ",0   
F953   4F 43 52 20 52 65 61 64 20 46 61 69 6C 20 00 MSG_OCR:   DB   "OCR Read Fail ",0   
F962   49 6E 76 61 6C 69 64 20 53 44 43 61 72 64 20 00 MSG_SDINVALID:   DB   "Invalid SDCard ",0   
F972   43 4D 44 31 36 20 46 61 69 6C 65 64 20 00 MSG_SDCMD16:   DB   "CMD16 Failed ",0   
F980   41 64 64 72 2E 20 54 6F 6F 20 42 69 67 20 00 MSG_TOOBIG:   DB   "Addr. Too Big ",0   
F98F                             ;SD Card Commands
F98F   40 00 00 00 00 95 SPICMD0:   DB   40h,0,0,0,0,95h   ; reset         R1
F995   48 00 00 01 AA 87 SPICMD8:   DB   48h,0,0,1,0AAh,87h   ; send_if_cond  R7
F99B   50 00 00 02 00 01 SPICMD16:   DB   50h,0,0,2,0,1h   ; Set sector size to 512 bytes   R1
F9A1   51 00 00 00 00 01 SPICMD17:   DB   51h,0,0,0,0,1h   ; read single block R1
F9A7   58 00 00 00 00 01 SPICMD24:   DB   58h,0,0,0,0,1h   ; write single block	R1
F9AD   77 00 00 00 00 01 SPICMD55:   DB   77h,0,0,0,0,1h   ; APP_CMD       R1
F9B3   7A 00 00 00 00 01 SPICMD58:   DB   7Ah,0,0,0,0,1h   ; READ_OCR      R3
F9B9   69 40 00 00 00 01 SPIACMD41:   DB   69h,40h,0,0,0,1h   ; send_OP_COND  R1
F9BF                             ;Parameter Configuration for Load and Save addresses
F9BF                LOAD_CFG:      
F9BF   01                     DB   1   ;one parameters
F9C0   41 44 44 52 45 53      DB   "ADDRES"   ;7seg Text
F9C6   20 46 69 6C 65 20 4C 6F 61 64 20 41 64 64 72 65 73 73 20 00 DB   " File Load Address ",0   ;Parameter title
F9DA   4C 6F 61 64 20 54 6F 20 41 64 64 72 3A 00 DB   "Load To Addr:",0   ;Text and Address
F9E8   C7 05                  DW   FCB_ADDR   
F9EA                             ;RAM File Constants
F9EA   4D 59 44 41 54 41 2E 54 45 43 00 RAM_FILE:   DB   "MYDATA.TEC",0   
F9F5   2D 2D 20 52 65 73 74 6F 72 65 20 42 61 63 6B 75 70 20 2D 2D 00 LOADING_TEXT:   DB   "-- Restore Backup --",0   
FA0A   2D 2D 3D 3D 20 52 41 4D 20 42 61 63 6B 75 70 20 3D 3D 2D 2D 00 SAVING_TEXT:   DB   "--== RAM Backup ==--",0   
FA1F                GENERAL_TEXT:      
FA1F   41 64 64 72 65 73 73 3A 20 00 DB   "Address: ",0   
FA29   53 65 63 74 6F 72 3A 20 20 00 DB   "Sector:  ",0   
FA33   45 78 70 61 6E 64 3A 20 20 4E 00 DB   "Expand:  N",0   
FA3E                             ;Mathematical Routines
FA3E                             ;---------------------
FA3E                             ;32 bit times 8 bit routine.
FA3E                             ;Input: DEBC = first operand
FA3E                             ;       A = second operand
FA3E                             ;Output: AHLIX = 40-bit result
FA3E                             ;        carry reset
FA3E                             ;        z set if top 8 bits are 0
FA3E                BCDETIMEA:      
FA3E   21 00 00               LD   hl,0000H   
FA41   DD 21 00 00            LD   ix,0000H   
FA45   CD 48 FA               CALL   $+3   
FA48   CD 4B FA               CALL   $+3   
FA4B   CD 4E FA               CALL   $+3   
FA4E   DD 29                  ADD   ix,ix   
FA50   ED 6A                  ADC   hl,hl   
FA52   8F                     ADC   a,a   
FA53   D0                     RET   nc   
FA54   DD 19                  ADD   ix,de   
FA56   ED 4A                  ADC   hl,bc   
FA58   CE 00                  ADC   a,0   
FA5A   C9                     RET      
FA5B                             ;32 bit divide by 8 bit routine.
FA5B                             ;Input: DEHL = numerator
FA5B                             ;       C = denominator
FA5B                             ;Output: DEHL = quotient
FA5B                             ;        A = remainder,
FA5B                             ;Destroys: B
FA5B                DEHLDIVC:      
FA5B   06 20                  LD   b,32   
FA5D   AF                     XOR   a   
FA5E                DIVLOOP:      
FA5E   29                     ADD   hl,hl   
FA5F   CB 13                  RL   e   
FA61   CB 12                  RL   d   
FA63   17                     RLA      
FA64   B9                     CP   c   
FA65   38 02                  JR   c,divlbl   
FA67   2C                     INC   l   
FA68   91                     SUB   c   
FA69                DIVLBL:      
FA69   10 F3                  DJNZ   divloop   
FA6B   C9                     RET      
FA6C                             ; Subtract HL from BCDE (BCDE = BCDE - HL)
FA6C                             ; BC = high 16 bits, DE = low 16 bits
FA6C                             ; Result stored in BCDE
FA6C                             ; Note: Assumes L is zero (L is not used in subtraction)
FA6C                BCDEMINUSHL:      
FA6C   7A                     LD   a,d   ; Load high byte of DE into A
FA6D   94                     SUB   h   ; Subtract high byte of HL with carry (borrow) from A
FA6E   57                     LD   d,a   ; Store result back in D
FA6F   79                     LD   a,c   ; Load high byte of BC into A
FA70   DE 00                  SBC   a,0   ; Subtract any remaining borrow from C
FA72   4F                     LD   c,a   ; Store result back in C
FA73   78                     LD   a,b   ; Load high-high byte of BC into A
FA74   DE 00                  SBC   a,0   ; Subtract any remaining borrow from B
FA76   47                     LD   b,a   ; Store result back in B
FA77   C9                     RET      
FA78                             ; ----------------------------------------------------------------------------
FA78                             ; 
FA78                             ; DS1302 RTC API Routines for MON3 - For use with GPIO RTC Card
FA78                             ; 
FA78                             ; Written By Craig Hart, 2024
FA78                             ; 
FA78                             ; ----------------------------------------------------------------------------
FA78                             ; 
FA78                             ; C register - API Call #
FA78                             ; B register - API Function
FA78                             ; 
FA78                             ; Calls return C=1 if failed, C=0 if success
FA78                             ; 
FA78                RTCAPI:      
FA78   78                     LD   a,b   
FA79   FE 13                  CP   DSAPIFnMax   ; Valid API Number?
FA7B   38 02                  JR   c,APIOk   
FA7D   37           APIERR:   SCF      ; set C flag = Error
FA7E   C9                     RET      
FA7F   87           APIOK:    ADD   a,a   ; 2 byte table
FA80   E5                     PUSH   hl   
FA81   C5                     PUSH   bc   
FA82   06 00                  LD   b,0   
FA84   4F                     LD   c,a   
FA85   21 B1 FF               LD   hl,DSAPIFunctions   
FA88   09                     ADD   hl,bc   
FA89   4E                     LD   c,(hl)   
FA8A   23                     INC   hl   
FA8B   46                     LD   b,(hl)   
FA8C   C5                     PUSH   bc   
FA8D   DD E1                  POP   ix   
FA8F   C1                     POP   bc   
FA90   E1                     POP   hl   
FA91   DD E9                  JP   (ix)   
FA93                             ; ----------------------------------------------------------------------------
FA93                             ; Determine if a DS1302 is pesent
FA93                             ; 
FA93                             ; If all registers return FFh, no DS1302 exists
FA93                             ; ----------------------------------------------------------------------------
FA93                CHECKDS1302PRESENT:      
FA93   D5                     PUSH   de   
FA94   11 00 8E               LD   de,8E00H   ; clear write protect bit
FA97   CD 6F FC               CALL   rtc_wr   
FA9A   11 00 90               LD   de,9000H   ; clear trickle charge bits
FA9D   CD 6F FC               CALL   rtc_wr   
FAA0   16 81                  LD   d,81H   
FAA2   CD 84 FC               CALL   rtc_rd   
FAA5   FE 5A                  CP   5AH   ; should come back 00..59h
FAA7   30 0C                  JR   nc,noDS1302   
FAA9   16 8B                  LD   d,8BH   
FAAB   CD 84 FC               CALL   rtc_rd   
FAAE   FE 08                  CP   08H   ; should come back 01..07
FAB0   30 03                  JR   nc,noDS1302   
FAB2   D1                     POP   de   
FAB3   B7                     OR   a   ; clear C flag
FAB4   C9                     RET      
FAB5                NODS1302:      
FAB5   D1                     POP   de   
FAB6   37                     SCF      ; set C flag
FAB7   C9                     RET      
FAB8                             ; ----------------------------------------------------------------------------
FAB8                             ; Reset the DS1302 fully to a known date/time condition
FAB8                             ; does not clear RTC bytes
FAB8                             ; ----------------------------------------------------------------------------
FAB8                RESETDS1302:      
FAB8   D5                     PUSH   de   
FAB9   11 00 8E               LD   de,8E00H   ; clear write protect bit
FABC   CD 6F FC               CALL   rtc_wr   
FABF   11 00 90               LD   de,9000H   ; clear trickle charge bits
FAC2   CD 6F FC               CALL   rtc_wr   
FAC5   11 00 80               LD   de,8000H   ; seconds 00
FAC8   CD 6F FC               CALL   rtc_wr   
FACB   11 00 82               LD   de,8200H   ; minutes 00
FACE   CD 6F FC               CALL   rtc_wr   
FAD1   11 90 84               LD   de,8490H   ; hours 01, 12 hour mode
FAD4   CD 6F FC               CALL   rtc_wr   
FAD7   11 01 86               LD   de,8601H   ; date 01
FADA   CD 6F FC               CALL   rtc_wr   
FADD   11 01 88               LD   de,8801H   ; month 01
FAE0   CD 6F FC               CALL   rtc_wr   
FAE3   11 01 8A               LD   de,8A01H   ; day 01 (Monday)
FAE6   CD 6F FC               CALL   rtc_wr   
FAE9   11 00 8C               LD   de,8C00H   ; year 00 (2000)
FAEC   CD 6F FC               CALL   rtc_wr   
FAEF   D1                     POP   de   
FAF0   B7                     OR   a   ; clear Z flag
FAF1   C9                     RET      
FAF2                             ; ----------------------------------------------------------------------------
FAF2                             ; Returns time
FAF2                             ; 
FAF2                             ; H = hour      ; bit 5 = am/pm flag (in 12 hr mode). 1=PM
FAF2                             ; L = minute
FAF2                             ; D = second
FAF2                             ; ----------------------------------------------------------------------------
FAF2                GETTIME:      
FAF2   16 85                  LD   d,85H   ; hour
FAF4   CD 84 FC               CALL   rtc_rd   
FAF7   E6 3F                  AND   3FH   ; strip off bits
FAF9   67                     LD   h,a   
FAFA   16 83                  LD   d,83H   ; min
FAFC   CD 84 FC               CALL   rtc_rd   
FAFF   6F                     LD   l,a   
FB00   16 81                  LD   d,81H   ; sec
FB02   CD 84 FC               CALL   rtc_rd   
FB05   57                     LD   d,a   
FB06   B7                     OR   a   
FB07   C9                     RET      
FB08                             ; ----------------------------------------------------------------------------
FB08                             ; Sets time; preserves 12/24 hour mode
FB08                             ; 
FB08                             ; H = hour             ; bit 5 = am/pm in 12hr mode
FB08                             ; L = minute
FB08                             ; D = second
FB08                             ; ----------------------------------------------------------------------------
FB08                SETTIME:      
FB08   5A                     LD   e,d   
FB09   16 80                  LD   d,80H   ; secs
FB0B   CD 6F FC               CALL   rtc_wr   
FB0E   7C                     LD   a,h   ; mask off junk bits
FB0F   E6 3F                  AND   3FH   
FB11   67                     LD   h,a   
FB12   CD 7D FB               CALL   get1224Mode   ; get 12/24 flag
FB15   B4                     OR   h   
FB16   5F                     LD   e,a   
FB17   16 84                  LD   d,84H   ; hour
FB19   CD 6F FC               CALL   rtc_wr   
FB1C   5D                     LD   e,l   
FB1D   16 82                  LD   d,82H   ; mins
FB1F   CD 6F FC               CALL   rtc_wr   
FB22   B7                     OR   a   
FB23   C9                     RET      
FB24                             ; ----------------------------------------------------------------------------
FB24                             ; Returns date
FB24                             ; 
FB24                             ; H = date
FB24                             ; L = month
FB24                             ; DE = year 2000..2099
FB24                             ; ----------------------------------------------------------------------------
FB24                GETDATE:      
FB24   C5                     PUSH   bc   
FB25   16 87                  LD   d,87H   ; date
FB27   CD 84 FC               CALL   rtc_rd   
FB2A   67                     LD   h,a   
FB2B   16 89                  LD   d,89H   ; month
FB2D   CD 84 FC               CALL   rtc_rd   
FB30   6F                     LD   l,a   
FB31   16 8D                  LD   d,8DH   ; year
FB33   CD 84 FC               CALL   rtc_rd   
FB36   5F                     LD   e,a   
FB37   16 20                  LD   d,20H   ; Add "20"xxh
FB39   C1                     POP   bc   
FB3A   B7                     OR   a   
FB3B   C9                     RET      
FB3C                             ; ----------------------------------------------------------------------------
FB3C                             ; sets date
FB3C                             ; 
FB3C                             ; H = date
FB3C                             ; L = month
FB3C                             ; DE = year (Decimal) 2000..2099
FB3C                             ; ----------------------------------------------------------------------------
FB3C                SETDATE:      
FB3C   16 8C                  LD   d,8CH   ; year  (just ignore "20"xxh)
FB3E   CD 6F FC               CALL   rtc_wr   
FB41   16 88                  LD   d,88H   ; month
FB43   5D                     LD   e,l   
FB44   CD 6F FC               CALL   rtc_wr   
FB47   16 86                  LD   d,86H   ; date
FB49   5C                     LD   e,h   
FB4A   CD 6F FC               CALL   rtc_wr   
FB4D   B7                     OR   a   
FB4E   C9                     RET      
FB4F                             ; ----------------------------------------------------------------------------
FB4F                             ; Returns day in D
FB4F                             ; returns HL points to day ASCIIZ String
FB4F                             ; ----------------------------------------------------------------------------
FB4F                GETDAY:      
FB4F   16 8B                  LD   d,8BH   ; day
FB51   CD 84 FC               CALL   rtc_rd   
FB54   E6 07                  AND   07H   
FB56   57                     LD   d,a   
FB57   21 4E FF               LD   hl,daysList   
FB5A   3D                     DEC   a   
FB5B   FE 00                  CP   0   
FB5D   28 09                  JR   z,foundDay   
FB5F   47                     LD   b,a   
FB60                DAYLOOP:      
FB60   7E                     LD   a,(HL)   
FB61   23                     INC   hl   
FB62   FE 00                  CP   0   
FB64   20 FA                  JR   nz,dayLoop   
FB66   10 F8                  DJNZ   dayLoop   
FB68                FOUNDDAY:      
FB68   B7                     OR   a   
FB69   C9                     RET      
FB6A                             ; ----------------------------------------------------------------------------
FB6A                             ; sets day from D - 01..07
FB6A                             ; ----------------------------------------------------------------------------
FB6A                SETDAY:      
FB6A   7A                     LD   a,d   
FB6B   FE 00                  CP   0   
FB6D   20 02                  JR   nz,validDay   
FB6F   37                     SCF      
FB70   C9                     RET      
FB71                VALIDDAY:      
FB71   D5                     PUSH   de   
FB72   E6 07                  AND   07H   
FB74   5F                     LD   e,a   
FB75   16 8A                  LD   d,8AH   ; day
FB77   CD 6F FC               CALL   rtc_wr   
FB7A   D1                     POP   de   
FB7B   B7                     OR   a   
FB7C   C9                     RET      
FB7D                             ; ----------------------------------------------------------------------------
FB7D                             ; Returns 12hr / 24hr mode. A = 00h = 24 hour mode, 80h = 12 hr mode
FB7D                             ; ----------------------------------------------------------------------------
FB7D                GET1224MODE:      
FB7D   D5                     PUSH   de   
FB7E   16 85                  LD   d,85H   ; hour
FB80   CD 84 FC               CALL   rtc_rd   
FB83   E6 80                  AND   80H   ; mask bits
FB85   D1                     POP   de   
FB86   B7                     OR   a   
FB87   C9                     RET      
FB88                             ; ----------------------------------------------------------------------------
FB88                             ; Sets 12hr mode
FB88                             ; no prameters
FB88                             ; ----------------------------------------------------------------------------
FB88                SET12HRMODE:      
FB88   16 85                  LD   d,85H   ; hour
FB8A   CD 84 FC               CALL   rtc_rd   
FB8D   CB 7F                  BIT   7,a   ; is it already 12 hr mode?
FB8F   28 02                  JR   z,pr12   
FB91   37                     SCF      ; already 12 hour mode dude!
FB92   C9                     RET      
FB93   E6 3F        PR12:     AND   3FH   ; 24 hour to 12 hour - strip bits
FB95   FE 00                  CP   00H   
FB97   20 04                  JR   nz,notMidnight   
FB99   3E 92                  LD   a,92H   ; 12am + 12 hour flag
FB9B   18 34                  JR   setHour   
FB9D                NOTMIDNIGHT:      
FB9D   FE 12                  CP   12H   
FB9F   28 09                  JR   z,setpm   ; 12pm exactly?
FBA1   30 04                  JR   nc,ispm   ; >12 ?
FBA3   F6 80                  OR   80H   ; <12, so hours same, set 12 hour flag
FBA5   18 2A                  JR   setHour   
FBA7   D6 12        ISPM:     SUB   12H   ; convert to 12 hr time
FBA9   27                     DAA      
FBAA   F6 A0        SETPM:    OR   0A0H   ; set 12 hour flag + PM fag
FBAC   18 23                  JR   setHour   
FBAE                             ; ----------------------------------------------------------------------------
FBAE                             ; Sets 24hr mode
FBAE                             ; no prameters
FBAE                             ; ----------------------------------------------------------------------------
FBAE                SET24HRMODE:      
FBAE   16 85                  LD   d,85H   ; hour
FBB0   CD 84 FC               CALL   rtc_rd   
FBB3   CB 7F                  BIT   7,a   ; is it already 24 hr mode?
FBB5   20 02                  JR   nz,pr24   
FBB7   37                     SCF      ; already 24 hour mode dude!
FBB8   C9                     RET      
FBB9   E6 3F        PR24:     AND   3FH   ; strip bits 7 and 6 to set 24h mode
FBBB   CB 6F                  BIT   5,a   ; was it pm?
FBBD   28 0B                  JR   z,fixt   ; am? if so am is same as 24hr
FBBF   E6 1F                  AND   1FH   ; clear PM flag
FBC1   FE 12                  CP   12H   ; is it 12pm? no change
FBC3   28 0C                  JR   z,setHour   
FBC5   C6 12                  ADD   a,12H   ; adjust by adding 12 hours
FBC7   27                     DAA      ; in BCD
FBC8   18 07                  JR   setHour   
FBCA   FE 12        FIXT:     CP   12H   ; 12am = 00 hours
FBCC   20 01                  JR   nz,nofix   
FBCE   AF                     XOR   a   
FBCF   E6 1F        NOFIX:    AND   1FH   ; clear PM flag
FBD1                             ; sethour is a Shared function of above 2 calls
FBD1                SETHOUR:      
FBD1   5F                     LD   e,a   ; set clock
FBD2   16 84                  LD   d,84H   
FBD4   CD 6F FC               CALL   rtc_wr   
FBD7   B7                     OR   a   
FBD8   C9                     RET      
FBD9                             ; ----------------------------------------------------------------------------
FBD9                             ; formatTime takes in a time, and outputs it as a well structured string
FBD9                             ; 
FBD9                             ; note -- must supply bit 7 if 12hr!!!
FBD9                             ; 
FBD9                             ; H = hour      ; bit 7 = 12/24hr. bit 5 = am/pm flag (in 12 hr mode). 1=PM
FBD9                             ; L = minute
FBD9                             ; D = second
FBD9                             ; 
FBD9                             ; IY = pointer to where to write output
FBD9                             ; ----------------------------------------------------------------------------
FBD9                FORMATTIME:      
FBD9   D5                     PUSH   de   
FBDA   FD E5                  PUSH   iy   
FBDC   D1                     POP   de   
FBDD   7C                     LD   a,h   ; get hours
FBDE   CB 7F                  BIT   7,a   ; 1 = 12 hour
FBE0   28 02                  JR   z,is24   
FBE2   E6 1F                  AND   1FH   
FBE4   E6 3F        IS24:     AND   3FH   
FBE6   CD CE C8               CALL   AToString   
FBE9   3E 3A                  LD   a,":"   ; add deliminator
FBEB   12                     LD   (de),a   
FBEC   13                     INC   de   
FBED   7D                     LD   a,l   ; get minutes
FBEE   CD CE C8               CALL   AToString   
FBF1   3E 3A                  LD   a,":"   ; add deliminator
FBF3   12                     LD   (de),a   
FBF4   13                     INC   de   
FBF5   C1                     POP   bc   
FBF6   78                     LD   a,b   ; set seconds
FBF7   CD CE C8               CALL   AToString   
FBFA   7C                     LD   a,h   ; work out if AM or PM, or 24 hour mode
FBFB   CB 7F                  BIT   7,a   
FBFD   28 14                  JR   z,noampm   ; skip AM/PM if 24 hour mode
FBFF   3E 20                  LD   a," "   ; add space
FC01   12                     LD   (de),a   
FC02   13                     INC   de   
FC03   06 41                  LD   b,"A"   
FC05   7C                     LD   a,h   ; is it AM or PM
FC06   E6 20                  AND   20H   
FC08   28 02                  JR   z,isam   
FC0A   06 50                  LD   b,"P"   
FC0C   78           ISAM:     LD   a,b   ; copy 2 bytes AM or PM to buffer
FC0D   12                     LD   (de),a   
FC0E   13                     INC   de   
FC0F   3E 4D                  LD   a,"M"   
FC11   12                     LD   (de),a   
FC12   13                     INC   de   
FC13   AF           NOAMPM:   XOR   a   ; null terminate string
FC14   12                     LD   (de),a   
FC15   C9                     RET      
FC16                             ; ----------------------------------------------------------------------------
FC16                             ; formatDate takes in a date, and outputs it as a well structured string
FC16                             ; 
FC16                             ; H = date
FC16                             ; L = month
FC16                             ; DE = year
FC16                             ; 
FC16                             ; IY = pointer to where to write output
FC16                             ; ----------------------------------------------------------------------------
FC16                FORMATDATE:      
FC16   D5                     PUSH   de   
FC17   FD E5                  PUSH   iy   
FC19   D1                     POP   de   
FC1A   7C                     LD   a,h   
FC1B   CD CE C8               CALL   AToString   
FC1E   3E 2F                  LD   a,"/"   
FC20   12                     LD   (de),a   
FC21   13                     INC   de   
FC22   7D                     LD   a,l   
FC23   CD CE C8               CALL   AToString   
FC26   3E 2F                  LD   a,"/"   
FC28   12                     LD   (de),a   
FC29   13                     INC   de   
FC2A   C1                     POP   bc   ; year now in BC
FC2B   78                     LD   a,b   
FC2C   CD CE C8               CALL   AToString   
FC2F   79                     LD   a,c   
FC30   CD CE C8               CALL   AToString   
FC33   3E 00                  LD   a,0   
FC35   12                     LD   (de),a   
FC36   C9                     RET      
FC37                             ; ----------------------------------------------------------------------------
FC37                             ; Input:        D = byte to return 0..30
FC37                             ; Output:       A = byte read
FC37                             ; ----------------------------------------------------------------------------
FC37                READRTCBYTE:      
FC37   7A                     LD   a,d   
FC38   16 00                  LD   d,0   
FC3A   FE 1F                  CP   31   
FC3C   D0                     RET   nc   ;exit if greater then 30
FC3D   87                     ADD   a,a   ;Double in to get read index
FC3E   C6 C1                  ADD   a,0C1H   
FC40   57                     LD   d,a   
FC41   CD 84 FC               CALL   rtc_rd   
FC44   B7                     OR   a   
FC45   C9                     RET      
FC46                             ; ----------------------------------------------------------------------------
FC46                             ; Input:        DE = register and byte to write, D=0..30
FC46                             ; ----------------------------------------------------------------------------
FC46                WRITERTCBYTE:      
FC46   7A                     LD   a,d   
FC47   FE 1F                  CP   31   
FC49   D0                     RET   nc   ;exit if greater then 30
FC4A   87                     ADD   a,a   ;Double it to get write index
FC4B   C6 C0                  ADD   a,0C0H   
FC4D   57                     LD   d,a   
FC4E   CD 6F FC               CALL   rtc_wr   
FC51   B7                     OR   a   
FC52   C9                     RET      
FC53                             ; ----------------------------------------------------------------------------
FC53                             ; Reads all 31 RTC RAM bytes to userbuffer
FC53                             ; input: HL = location to write to (31 bytes to be written)
FC53                             ; ----------------------------------------------------------------------------
FC53                BURSTRTCREAD:      
FC53   C5                     PUSH   bc   
FC54   D5                     PUSH   de   
FC55   0E FC                  LD   c,RTC_PORT   
FC57   3E 10                  LD   a,10H   ; raise CS, enable data out
FC59   ED 79                  OUT   (c),a   
FC5B   16 FF                  LD   d,0FFH   ; ram burst
FC5D   CD 97 FC               CALL   bytelpW   ; write D to select the register
FC60   06 1F                  LD   b,31   
FC62   CD A9 FC     BREAD:    CALL   bytelpR   ; read value (into D)
FC65   72                     LD   (hl),d   
FC66   23                     INC   hl   
FC67   10 F9                  DJNZ   bRead   
FC69   AF                     XOR   a   ; drop CS & clear CF
FC6A   ED 79                  OUT   (c),a   
FC6C   D1                     POP   de   
FC6D   C1                     POP   bc   
FC6E   C9                     RET      
FC6F                             ; ----------------------------------------------------------------------------
FC6F                             ; Write cycle. Writes 2 bytes
FC6F                             ; D = command/register
FC6F                             ; E = data byte
FC6F                             ; ----------------------------------------------------------------------------
FC6F                RTC_WR:      
FC6F   F5                     PUSH   af   
FC70   C5                     PUSH   bc   
FC71   0E FC                  LD   c,RTC_PORT   
FC73   3E 10                  LD   a,10H   ; raise CS, enable data in
FC75   ED 79                  OUT   (c),a   
FC77   CD 97 FC               CALL   bytelpW   ; write D to select the register
FC7A   53                     LD   d,e   
FC7B   CD 97 FC               CALL   bytelpW   ; write E - the data
FC7E   AF                     XOR   a   ; drop CS
FC7F   ED 79                  OUT   (c),a   
FC81   C1                     POP   bc   
FC82   F1                     POP   af   
FC83   C9                     RET      
FC84                             ; ----------------------------------------------------------------------------
FC84                             ; Read cycle. Writes command and reads result
FC84                             ; D = command/register needed
FC84                             ; A = result
FC84                             ; ----------------------------------------------------------------------------
FC84                RTC_RD:      
FC84   C5                     PUSH   bc   
FC85   0E FC                  LD   c,RTC_PORT   
FC87   3E 10                  LD   a,10H   ; raise CS, enable data out
FC89   ED 79                  OUT   (c),a   
FC8B   CD 97 FC               CALL   bytelpW   ; write D to select the register
FC8E   CD A9 FC               CALL   bytelpR   ; read value (into D)
FC91   AF                     XOR   a   ; drop CS
FC92   ED 79                  OUT   (c),a   
FC94   7A                     LD   a,d   ; return value in A
FC95   C1                     POP   bc   
FC96   C9                     RET      
FC97                             ; ----------------------------------------------------------------------------
FC97                             ; write one byte to the DS1302
FC97                             ; byte in D
FC97                             ; ----------------------------------------------------------------------------
FC97                BYTELPW:      
FC97   C5                     PUSH   bc   
FC98   06 08                  LD   b,8   
FC9A   CB 3A        BLP:      SRL   d   ; data bit 0 to carry
FC9C   3E 20                  LD   a,20H   
FC9E   1F                     RRA      ; carry to data bit 7
FC9F   ED 79                  OUT   (c),a   ; setup bus - drops clock
FCA1   F6 40                  OR   40H   ; raise CLK
FCA3   ED 79                  OUT   (c),a   
FCA5   10 F3                  DJNZ   blp   
FCA7   C1                     POP   bc   
FCA8   C9                     RET      
FCA9                             ; ----------------------------------------------------------------------------
FCA9                             ; Read one byte from the DS1302
FCA9                             ; byte read is returned in D
FCA9                             ; ----------------------------------------------------------------------------
FCA9                BYTELPR:      
FCA9   C5                     PUSH   bc   
FCAA   06 08                  LD   b,8   
FCAC   16 00                  LD   d,0   
FCAE   3E 30        BLP2:     LD   a,30H   
FCB0   F6 40                  OR   40H   ; raise CLK
FCB2   ED 79                  OUT   (c),a   
FCB4   E6 BF                  AND   0BFH   ; drop CLK
FCB6   ED 79                  OUT   (c),a   
FCB8   ED 58                  IN   e,(c)   ; read value
FCBA   CB 3B                  SRL   e   
FCBC   CB 1A                  RR   d   
FCBE   10 EE                  DJNZ   blp2   
FCC0   C1                     POP   bc   
FCC1   C9                     RET      
FCC2                             ; ----------------------------------------------------------------------------
FCC2                             ; Conversion routine - BCD to true Binary
FCC2                             ; input:  A = BCD value
FCC2                             ; output: A = binary value
FCC2                             ; ----------------------------------------------------------------------------
FCC2                BCDTOBIN:      
FCC2   C5                     PUSH   bc   
FCC3   4F                     LD   c,a   
FCC4   E6 F0                  AND   0F0H   
FCC6   CB 3F                  SRL   a   
FCC8   47                     LD   b,a   
FCC9   CB 3F                  SRL   a   
FCCB   CB 3F                  SRL   a   
FCCD   80                     ADD   a,b   
FCCE   47                     LD   b,a   
FCCF   79                     LD   a,c   
FCD0   E6 0F                  AND   0FH   
FCD2   80                     ADD   a,b   
FCD3   C1                     POP   bc   
FCD4   C9                     RET      
FCD5                             ; ----------------------------------------------------------------------------
FCD5                             ; Conversion routine - Binary to BCD
FCD5                             ; input:  A = binary value
FCD5                             ; output: A = BCD value
FCD5                             ; ----------------------------------------------------------------------------
FCD5                BINTOBCD:      
FCD5   C5                     PUSH   bc   
FCD6   06 0A                  LD   b,10   
FCD8   0E FF                  LD   c,-1   
FCDA   0C           DIV10:    INC   c   
FCDB   90                     SUB   b   
FCDC   30 FC                  JR   nc,div10   
FCDE   80                     ADD   a,b   
FCDF   47                     LD   b,a   
FCE0   79                     LD   a,c   
FCE1   87                     ADD   a,a   
FCE2   87                     ADD   a,a   
FCE3   87                     ADD   a,a   
FCE4   87                     ADD   a,a   
FCE5   B0                     OR   b   
FCE6   C1                     POP   bc   
FCE7   C9                     RET      
FCE8                             ; ----------------------------------------------------------------------------
FCE8                             ; Stand Alone, RTC configuration and PRAM Viewer
FCE8                             ; Setting time:
FCE8                             ;       0 sets hours
FCE8                             ;       1 sets minutes
FCE8                             ;       2 resets seconds to 00
FCE8                             ;       3 toggles 12/24 hour time
FCE8                             ; 
FCE8                             ; Setting calendar:
FCE8                             ;       4 sets day of week
FCE8                             ;       5 sets date
FCE8                             ;       6 sets month
FCE8                             ;       7 sets year
FCE8                             ; 
FCE8                             ; Special Keys:
FCE8                             ; 
FCE8                             ; A - Reset the DS1302 to 01/01/2000, 01:00.00am & 12hr mode
FCE8                             ; D - DUMPs the RTC RAM to LCD (Addr to exit dump mode) where
FCE8                             ;       + Moves down RAM list
FCE8                             ;       - Moves up RAM list
FCE8                             ;       AD Exits back to RTC Setup
FCE8                             ; Addr - Exit
FCE8                             ; ----------------------------------------------------------------------------
FCE8                RTCSETUP:      
FCE8                             ; clear the LCD
FCE8   06 01                  LD   b,01H   ;clear LCD
FCEA   0E 0F                  LD   c,15   ;command to LCD
FCEC   D7                     RST   10H   
FCED                             ; setup RTC chip
FCED   CD 93 FA               CALL   checkDS1302Present   
FCF0                             ;Carry set = No RTC
FCF0   30 22                  JR   nc,clockLoop   ;RTC Found, continue with program
FCF2   21 FF FC               LD   hl,noRTC   ;Load HL with no RTC Found text
FCF5   0E 0D                  LD   c,13   ;string to LCD
FCF7   D7                     RST   10H   
FCF8   11 48 FF               LD   de,segDisp   
FCFB   E7                     RST   20H   
FCFC   30 FA                  JR   nc,$-4   
FCFE   C9                     RET      ;exit back to calling routine
FCFF   52 54 43 20 4D 6F 64 75 6C 65 20 6E 6F 74 20 66 6F 75 6E 64 00 NORTC:   DB   "RTC Module not found",0   
FD14                             ; Main Loop
FD14                CLOCKLOOP:      
FD14                             ; read RTC and store time
FD14   CD 11 FF               CALL   getRTCTime   
FD17                             ; display time and date on LCD
FD17   3A 01 09               LD   a,(RTC_OSEC)   ;get old seconds
FD1A   47                     LD   b,a   ;save old seconds
FD1B   3A 00 09               LD   a,(RTC_SECS)   ;get current seconds
FD1E   B8                     CP   b   ;are they the same?
FD1F   28 59                  JR   z,keyRTC   ;yes, skip updating LCD
FD21                             ; seconds have changed, update LCD
FD21   32 01 09               LD   (RTC_OSEC),a   ;save new seconds in old
FD24                RTCUPDATE:      
FD24   06 02                  LD   b,02H   ;set LCD Cursor to top left
FD26   0E 0F                  LD   c,15   ;command to LCD
FD28   D7                     RST   10H   
FD29   CD 11 FF               CALL   getRTCTime   
FD2C                             ;format time
FD2C   FD 21 08 09            LD   iy,RTC_BUFF   ;get LCD buffer
FD30   CD D9 FB               CALL   formatTime   
FD33   21 08 09               LD   hl,RTC_BUFF   ;get new buffer
FD36   0E 0D                  LD   c,13   ;string to LCD
FD38   D7                     RST   10H   
FD39                             ; LCD section, calendar
FD39   06 C0                  LD   b,0C0H   ;Cursor to row 2
FD3B   0E 0F                  LD   c,15   ;command to LCD
FD3D   D7                     RST   10H   
FD3E   CD 4F FB               CALL   getDay   ;get Day as a string
FD41   0E 0D                  LD   c,13   ;string to LCD
FD43   D7                     RST   10H   
FD44   FD 21 08 09            LD   iy,RTC_BUFF   ;get LCD buffer
FD48   3E 20                  LD   a," "   ;add space
FD4A   FD 77 00               LD   (iy),a   
FD4D   FD 23                  INC   iy   
FD4F   CD 24 FB               CALL   getDate   
FD52   7C                     LD   a,h   ;save day
FD53   32 04 09               LD   (RTC_DAY),a   
FD56   7D                     LD   a,l   ;save month
FD57   32 05 09               LD   (RTC_MONTH),a   
FD5A   ED 53 06 09            LD   (RTC_YEAR),de   ;save year
FD5E   CD 16 FC               CALL   formatDate   
FD61                             ; display date on LCD
FD61   21 08 09               LD   hl,RTC_BUFF   
FD64   0E 0D                  LD   c,13   ;string to LCD
FD66   D7                     RST   10H   
FD67                             ; display help on LCD
FD67   06 94                  LD   b,94H   ;Cursor to row 3
FD69   0E 0F                  LD   c,15   ;command to LCD
FD6B   D7                     RST   10H   
FD6C   21 87 FF               LD   hl,helpList   ;Load HL help text
FD6F   0E 0D                  LD   c,13   ;string to LCD
FD71   D7                     RST   10H   
FD72   06 D4                  LD   b,0D4H   ;Cursor to row 4
FD74   0E 0F                  LD   c,15   ;command to LCD
FD76   D7                     RST   10H   
FD77   0E 0D                  LD   c,13   ;string to LCD
FD79   D7                     RST   10H   
FD7A                             ; keystroke handling section
FD7A                KEYRTC:      
FD7A   11 48 FF               LD   de,segDisp   
FD7D   E7                     RST   20H   
FD7E   D2 14 FD               JP   nc,clockLoop   ;loop if no key or repeat key
FD81   FE 13                  CP   13H   ;Addr key?
FD83   C8                     RET   z   ;exit program
FD84                KEYTRYF:      
FD84   FE 0F                  CP   0FH   ;F = reset clock
FD86   20 06                  JR   nz,keyTry0   
FD88   CD B8 FA               CALL   resetDS1302   
FD8B   C3 14 FD               JP   clockLoop   
FD8E                KEYTRY0:      
FD8E   B7                     OR   a   ;Hours adjust
FD8F   20 33                  JR   nz,keyTry1   
FD91   3A 03 09               LD   a,(RTC_HOURS)   
FD94   CB 7F                  BIT   7,a   ;check if 24 hours
FD96   20 09                  JR   nz,set12   
FD98   3C                     INC   a   ;set to next hour
FD99   27                     DAA      
FD9A   FE 24                  CP   24H   ;is it 24
FD9C   20 17                  JR   nz,saveTime   
FD9E   AF                     XOR   a   
FD9F   18 14                  JR   saveTime   
FDA1   4F           SET12:    LD   c,a   
FDA2   E6 A0                  AND   0A0H   ;mask out bits 7 and 5
FDA4   57                     LD   d,a   
FDA5   79                     LD   a,c   ;restore A
FDA6   E6 1F                  AND   1FH   ;mask off junk bits
FDA8   3C                     INC   a   
FDA9   27                     DAA      
FDAA   FE 13                  CP   13H   ;is it 13 o'clock?
FDAC   20 06                  JR   nz,noflip   
FDAE   7A                     LD   a,d   ;get AM/PM bits
FDAF   EE 20                  XOR   20H   ;toggle bit 5
FDB1   3C                     INC   a   ;make it 1 o'clock
FDB2   18 01                  JR   saveTime   
FDB4   B2           NOFLIP:   OR   d   ;add AM/PM bits
FDB5                SAVETIME:      
FDB5   67                     LD   h,a   ;save adjusted hours
FDB6   3A 02 09               LD   a,(RTC_MINS)   ;save minutes
FDB9   6F                     LD   l,a   
FDBA   3A 00 09               LD   a,(RTC_SECS)   ;save seconds
FDBD   57                     LD   d,a   
FDBE                             ;Set the time with HL,D
FDBE                STTIME:      
FDBE   CD 08 FB               CALL   setTime   ;set time
FDC1   C3 24 FD               JP   RTCUpdate   
FDC4                KEYTRY1:      
FDC4   FE 01                  CP   1   ;minutes adjust
FDC6   20 0E                  JR   nz,keyTry2   
FDC8   CD F2 FA               CALL   getTime   
FDCB   7D                     LD   a,l   ;get minutes
FDCC   3C                     INC   a   
FDCD   27                     DAA      
FDCE   FE 60                  CP   60H   ;is it over 59?
FDD0   20 01                  JR   nz,$+3   ;skip xor
FDD2   AF                     XOR   a   ;reset to zero
FDD3   6F                     LD   l,a   ;save minutes
FDD4   18 E8                  JR   stTime   
FDD6                KEYTRY2:      
FDD6   FE 02                  CP   2   ;seconds adjust
FDD8   20 07                  JR   nz,keyTry3   
FDDA   CD F2 FA               CALL   getTime   
FDDD   16 00                  LD   d,0   ;reset to zero seconds
FDDF   18 DD                  JR   stTime   
FDE1                KEYTRY3:      
FDE1   FE 03                  CP   3   ;12/24 hour mode
FDE3   20 18                  JR   nz,keyTry4   
FDE5   06 01                  LD   b,01H   ;clear LCD screen to fix AM/PM sign
FDE7   0E 0F                  LD   c,15   ;command to LCD
FDE9   D7                     RST   10H   
FDEA   3A 03 09               LD   a,(RTC_HOURS)   ;get hours
FDED   CB 7F                  BIT   7,a   ;is it 12 hour mode?
FDEF   20 06                  JR   nz,to24   
FDF1   CD 88 FB               CALL   set12HrMode   
FDF4   C3 24 FD               JP   RTCUpdate   
FDF7   CD AE FB     TO24:     CALL   set24HrMode   
FDFA   C3 24 FD               JP   RTCUpdate   
FDFD                KEYTRY4:      
FDFD   FE 04                  CP   4   ;get day
FDFF   20 17                  JR   nz,keyTry5   
FE01   CD 4F FB               CALL   getDay   
FE04   7A                     LD   a,d   
FE05   3C                     INC   a   
FE06   FE 08                  CP   8   
FE08   20 02                  JR   nz,$+4   
FE0A   3E 01                  LD   a,1   
FE0C   57                     LD   d,a   
FE0D   CD 6A FB               CALL   setDay   
FE10   06 01                  LD   b,01H   ;clear LCD screen to fix AM/PM sign
FE12   0E 0F                  LD   c,15   ;command to LCD
FE14   D7                     RST   10H   
FE15   C3 24 FD               JP   RTCUpdate   
FE18                KEYTRY5:      
FE18   FE 05                  CP   5   ;get day of month
FE1A   20 16                  JR   nz,keyTry6   
FE1C   3A 04 09               LD   a,(RTC_DAY)   
FE1F   3C                     INC   a   
FE20   27                     DAA      
FE21   FE 32                  CP   32H   
FE23   20 02                  JR   nz,$+4   
FE25   3E 01                  LD   a,1   
FE27   67                     LD   h,a   
FE28   3A 05 09               LD   a,(RTC_MONTH)   
FE2B   6F                     LD   l,a   
FE2C   ED 5B 06 09            LD   de,(RTC_YEAR)   
FE30   18 32                  JR   setYear   
FE32                KEYTRY6:      
FE32   FE 06                  CP   6   ;get month
FE34   20 16                  JR   nz,keyTry7   
FE36   3A 05 09               LD   a,(RTC_MONTH)   
FE39   3C                     INC   a   
FE3A   27                     DAA      
FE3B   FE 13                  CP   13H   
FE3D   20 02                  JR   nz,$+4   
FE3F   3E 01                  LD   a,1   
FE41   6F                     LD   l,a   
FE42   3A 04 09               LD   a,(RTC_DAY)   
FE45   67                     LD   h,a   
FE46   ED 5B 06 09            LD   de,(RTC_YEAR)   
FE4A   18 18                  JR   setYear   
FE4C                KEYTRY7:      
FE4C   FE 07                  CP   7   ;get year
FE4E   20 1A                  JR   nz,keyTry8   
FE50   ED 5B 06 09            LD   de,(RTC_YEAR)   
FE54   7B                     LD   a,e   
FE55   3C                     INC   a   
FE56   27                     DAA      
FE57   5F                     LD   e,a   
FE58   ED 53 06 09            LD   (RTC_YEAR),de   
FE5C   3A 04 09               LD   a,(RTC_DAY)   
FE5F   67                     LD   h,a   
FE60   3A 05 09               LD   a,(RTC_MONTH)   
FE63   6F                     LD   l,a   
FE64                SETYEAR:      
FE64   CD 3C FB               CALL   setDate   
FE67   C3 24 FD               JP   RTCUpdate   
FE6A                KEYTRY8:      
FE6A   FE 08                  CP   8   ;PRAM view
FE6C   C2 14 FD               JP   nz,clockLoop   
FE6F   CD 75 FE               CALL   dumpRAM   ;Display PRAM
FE72   C3 14 FD               JP   clockLoop   
FE75                             ; Display the contents of the RTC RAM (PRAM) bytes (31 bytes) on the LCD
FE75                DUMPRAM:      
FE75   21 1D 09               LD   hl,RTC_RAM   
FE78   CD 53 FC               CALL   burstRTCRead   ;put RAM data in RTC_RAM location
FE7B   AF                     XOR   a   
FE7C   32 3C 09               LD   (RAM_PTR),a   
FE7F                DUMPLOOP:      
FE7F   3A 3C 09               LD   a,(RAM_PTR)   ;get pointer (0,1 or 2)
FE82   87                     ADD   a,a   ;x2
FE83   47                     LD   b,a   
FE84   87                     ADD   a,a   ;x4
FE85   80                     ADD   a,b   ;x6
FE86   21 1D 09               LD   hl,RTC_RAM   ;index HL to pointer position
FE89   85                     ADD   a,l   
FE8A   6F                     LD   l,a   
FE8B   06 01                  LD   b,01H   ;clear LCD
FE8D   0E 0F                  LD   c,15   ;command to LCD
FE8F   D7                     RST   10H   
FE90   CD DC FE               CALL   displayRAMline   
FE93   06 C0                  LD   b,0C0H   ;set second row
FE95   0E 0F                  LD   c,15   ;command to LCD
FE97   D7                     RST   10H   
FE98   CD DC FE               CALL   displayRAMline   
FE9B   06 94                  LD   b,94H   ;set third row
FE9D   0E 0F                  LD   c,15   ;command to LCD
FE9F   D7                     RST   10H   
FEA0   CD DC FE               CALL   displayRAMline   
FEA3   06 D4                  LD   b,0D4H   ;set forth row
FEA5   0E 0F                  LD   c,15   ;command to LCD
FEA7   D7                     RST   10H   
FEA8   CD DC FE               CALL   displayRAMline   
FEAB                             ;get key input
FEAB                DUMPKEY:      
FEAB   11 48 FF               LD   de,segDisp   
FEAE   E7                     RST   20H   
FEAF   30 FA                  JR   nc,dumpKey   
FEB1   FE 13                  CP   13H   ;is it Addr?
FEB3   20 06                  JR   nz,keyTryPlus   
FEB5   06 01                  LD   b,01H   ;clear LCD
FEB7   0E 0F                  LD   c,15   ;command to LCD
FEB9   D7                     RST   10H   
FEBA   C9                     RET      
FEBB                KEYTRYPLUS:      
FEBB   FE 10                  CP   10H   ;is it plus key?
FEBD   20 0D                  JR   nz,keyTryMinus   
FEBF   3A 3C 09               LD   a,(RAM_PTR)   ;get pointer
FEC2   FE 02                  CP   2   ;is it at bottom?
FEC4   28 E5                  JR   z,dumpKey   ;yet, get key again
FEC6   3C                     INC   a   
FEC7   32 3C 09               LD   (RAM_PTR),a   ;save it
FECA   18 B3                  JR   dumpLoop   
FECC                KEYTRYMINUS:      
FECC   FE 11                  CP   11H   ;is it minus key?
FECE   20 DB                  JR   nz,dumpKey   ;get key again
FED0   3A 3C 09               LD   a,(RAM_PTR)   ;get pointer
FED3   B7                     OR   a   ;is it at top?
FED4   28 D5                  JR   z,dumpKey   ;yet, get key again
FED6   3D                     DEC   a   
FED7   32 3C 09               LD   (RAM_PTR),a   ;save it
FEDA   18 A3                  JR   dumpLoop   
FEDC                DISPLAYRAMLINE:      
FEDC   CD E5 FE               CALL   genRAMline   ;input HL, output DE
FEDF   EB                     EX   de,hl   
FEE0   0E 0D                  LD   c,13   ;string to LCD
FEE2   D7                     RST   10H   
FEE3   EB                     EX   de,hl   
FEE4   C9                     RET      
FEE5                             ; fill RTC_BUFF with line to display on LCD
FEE5                             ; someting like this 06:06 07 08 09 0A 0B
FEE5                             ; input: HL = address of first byte to display
FEE5                             ; outptu: DE = address of LCD ASCII line
FEE5                GENRAMLINE:      
FEE5                             ;get index
FEE5   11 1D 09               LD   de,RTC_RAM   
FEE8   B7                     OR   a   
FEE9   ED 52                  SBC   hl,de   ;get index difference
FEEB   7D                     LD   a,l   ;store index in a
FEEC   19                     ADD   hl,de   ;restore HL
FEED   06 06                  LD   b,6   ;six bytes by default
FEEF   FE 1E                  CP   1EH   ;is it on the last line?
FEF1   20 02                  JR   nz,$+4   ;yes, only display one byte
FEF3   06 01                  LD   b,1   ;one byte
FEF5   0E 09                  LD   c,9   ;A to string
FEF7   11 08 09               LD   de,RTC_BUFF   ;convert A to "AA"
FEFA   D7                     RST   10H   
FEFB   3E 3A                  LD   a,":"   ;add colon
FEFD   12                     LD   (de),a   
FEFE   13                     INC   de   
FEFF                RAMDISPLOOP:      
FEFF   7E                     LD   a,(hl)   
FF00   23                     INC   hl   
FF01   0E 09                  LD   c,9   ;A to string
FF03   D7                     RST   10H   
FF04   3E 20                  LD   a," "   ;add space
FF06   12                     LD   (de),a   
FF07   13                     INC   de   
FF08   10 F5                  DJNZ   RAMdisploop   
FF0A   1B                     DEC   de   
FF0B   AF                     XOR   a   
FF0C   12                     LD   (de),a   ;terminate with zero
FF0D   11 08 09               LD   de,RTC_BUFF   ;reset to start of buffer
FF10   C9                     RET      
FF11                             ; Get current time and save in local RAM.
FF11                             ; Returns: H = hour      ; bit 5 = am/pm flag (in 12 hr mode). 1=PM
FF11                             ;          L = minute
FF11                             ;          D = second
FF11                GETRTCTIME:      
FF11   CD F2 FA               CALL   getTime   
FF14   7A                     LD   a,d   ;save seconds
FF15   32 00 09               LD   (RTC_SECS),a   
FF18   7D                     LD   a,l   ;save minutes
FF19   32 02 09               LD   (RTC_MINS),a   
FF1C                             ; check if 12 or 24 hours
FF1C   CD 7D FB               CALL   get1224Mode   ;A = 00H, 24 hour mode, 80h, 12 hr mode
FF1F   B4                     OR   h   ;set bit 7 if 12 hour mode in hours data and save it
FF20   67                     LD   h,a   
FF21   32 03 09               LD   (RTC_HOURS),a   
FF24   C9                     RET      
FF25                             ; Checks the state of the RTC checksum (RAM at 31 slot).  Checksum is the twos
FF25                             ; compliment of the first 16 bytes of RAM.  It will then compare the result
FF25                             ; with the stored checksum in slot 31.
FF25                             ; Input: none
FF25                             ; Output: A = 00 if match or something else if no match
FF25                             ;         Zero Flag = set if calculated checksum = stored checksum
FF25                             ; Destroy: A
FF25                CHECKRTCCHECKSUM:      
FF25   CD 30 FF               CALL   getRTCChecksum   
FF28   6F                     LD   l,a   
FF29   16 1E                  LD   d,30   
FF2B   CD 37 FC               CALL   readRTCByte   ;get stored checksum
FF2E   95                     SUB   l   
FF2F   C9                     RET      ;Zero flag set if checksum = stored checksum
FF30                             ; Calculate checksum for MON3 stored values.  First 16 bytes of RAM are reserved
FF30                             ; for MON3.  Calculate the checksum of the first 16 bytes.  Checksum is the
FF30                             ; twos compliment of the sum of the 16 bytes
FF30                             ; Input: none
FF30                             ; Output: A = calculated checksum
FF30                GETRTCCHECKSUM:      
FF30   E5                     PUSH   hl   
FF31   C5                     PUSH   bc   
FF32   21 1D 09               LD   hl,RTC_RAM   
FF35   CD 53 FC               CALL   burstRTCRead   ;put RAM data in RTC_RAM location
FF38   21 1D 09               LD   hl,RTC_RAM   ;index HL to start position
FF3B   06 10                  LD   b,16   ;B=16 bytes to parse
FF3D   AF                     XOR   a   ;A=initial checksum
FF3E                CHECKSUMLOOP:      
FF3E   4E                     LD   c,(hl)   ;get RAM value
FF3F   81                     ADD   a,c   
FF40   23                     INC   hl   ;move to next RAM value
FF41   10 FB                  DJNZ   checksumloop   
FF43   ED 44                  NEG      ;get the twos compliment
FF45   C1                     POP   bc   
FF46   E1                     POP   hl   
FF47   C9                     RET      ;Zero flag set if checksum = stored checksum
FF48                             ; ----------------------------------------------------------------------------
FF48                             ; RAM Locations
FF48                             ; ----------------------------------------------------------------------------
FF48                RTC_BASE:   EQU   0900H   ;Start of RAM location
FF48                RTC_SECS:   EQU   RTC_BASE   ;Seconds (1-byte)
FF48                RTC_OSEC:   EQU   RTC_BASE+1   ;Old Seconds (1-byte)
FF48                RTC_MINS:   EQU   RTC_BASE+2   ;Minutes (1-byte)
FF48                RTC_HOURS:   EQU   RTC_BASE+3   ;Hours (1-byte)
FF48                RTC_DAY:   EQU   RTC_BASE+4   ;Day of Week (1-byte)
FF48                RTC_MONTH:   EQU   RTC_BASE+5   ;Month (1-byte)
FF48                RTC_YEAR:   EQU   RTC_BASE+6   ;Year (2-bytes)
FF48                RTC_BUFF:   EQU   RTC_BASE+8   ;LCD Buffer (21-bytes)
FF48                RTC_RAM:   EQU   RTC_BASE+29   ;RAM Data (31-byte)
FF48                RAM_PTR:   EQU   RTC_BASE+60   ;RAM Pointer (1-byte)
FF48                             ; ----------------------------------------------------------------------------
FF48                             ; constants
FF48                             ; ----------------------------------------------------------------------------
FF48                RTC_PORT:   EQU   0FCH   
FF48   A7 C7 C6 4B C6 C3 SEGDISP:   DB   0A7H,0C7H,0C6H,4BH,0C6H,0C3H   
FF4E   4D 6F 6E 64 61 79 00 DAYSLIST:   DB   "Monday",0   
FF55   54 75 65 73 64 61 79 00 DB   "Tuesday",0   
FF5D   57 65 64 6E 65 73 64 61 79 00 DB   "Wednesday",0   
FF67   54 68 75 72 73 64 61 79 00 DB   "Thursday",0   
FF70   46 72 69 64 61 79 00   DB   "Friday",0   
FF77   53 61 74 75 72 64 61 79 00 DB   "Saturday",0   
FF80   53 75 6E 64 61 79 00   DB   "Sunday",0   
FF87   48 3A 4D 3A 53 20 50 4D 3A 30 2D 33 2C 20 50 52 41 4D 3A 38 00 HELPLIST:   DB   "H:M:S PM:0-3, PRAM:8",0   
FF9C   57 44 20 44 2F 4D 2F 59 3A 34 2D 37 2C 20 52 53 45 54 3A 46 00 DB   "WD D/M/Y:4-7, RSET:F",0   
FFB1   93 FA        DSAPIFUNCTIONS:   DW   checkDS1302Present   
FFB3   B8 FA                  DW   resetDS1302   
FFB5   F2 FA                  DW   getTime   
FFB7   08 FB                  DW   setTime   
FFB9   24 FB                  DW   getDate   
FFBB   3C FB                  DW   setDate   
FFBD   4F FB                  DW   getDay   
FFBF   6A FB                  DW   setDay   
FFC1   7D FB                  DW   get1224Mode   
FFC3   88 FB                  DW   set12HrMode   
FFC5   AE FB                  DW   set24HrMode   
FFC7   37 FC                  DW   readRTCByte   
FFC9   46 FC                  DW   writeRTCByte   
FFCB   53 FC                  DW   burstRTCRead   
FFCD   C2 FC                  DW   bcdToBin   
FFCF   D5 FC                  DW   binToBcd   
FFD1   D9 FB                  DW   formatTime   
FFD3   16 FC                  DW   formatDate   
FFD5   E8 FC                  DW   RTCSetup   
FFD7                DSAPIFNMAX:   EQU   ($-DSAPIFunctions)/2   
FFD7                             ; 
FFEC                          .ORG   BASE_ADDR+3FECH   ; 16k
FFEC                             ; 
FFEC   E9 07        RELMAJOR:   DW   07E9h   ; 2025 - for the API
FFEE   16 00        RELMINOR:   DW   0016h   
FFF0   4D 4F 4E 33 2E 31 47 00 SOFTWARE:   DB   "MON3.1G",0   
FFF8   32 30 32 35 2E 31 36 00 RELEASE:   DB   REL_TXT,0   
10000               REL_TXT:   EQU   "2025.16"   
10000                            ; 
10000                         .END      
10000                            ; 
10000                         .BINFROM   0C000H   


KEYB:               0000 DEFINED AT LINE 16
                    > USED AT LINE 341
                    > USED AT LINE 740
                    > USED AT LINE 1115
DIGITS:             0001 DEFINED AT LINE 17
                    > USED AT LINE 910
                    > USED AT LINE 918
                    > USED AT LINE 992
                    > USED AT LINE 998
                    > USED AT LINE 1281
                    > USED AT LINE 1291
                    > USED AT LINE 1297
                    > USED AT LINE 1398
                    > USED AT LINE 2546
                    > USED AT LINE 2556
                    > USED AT LINE 93 IN packages.z80
                    > USED AT LINE 105 IN packages.z80
SEGS:               0002 DEFINED AT LINE 18
                    > USED AT LINE 990
                    > USED AT LINE 1001
                    > USED AT LINE 1282
                    > USED AT LINE 1292
                    > USED AT LINE 1298
                    > USED AT LINE 1396
                    > USED AT LINE 2548
                    > USED AT LINE 2557
SYS_INPUT:          0003 DEFINED AT LINE 19
                    > USED AT LINE 310
                    > USED AT LINE 344
                    > USED AT LINE 361
                    > USED AT LINE 737
                    > USED AT LINE 1099
                    > USED AT LINE 1315
                    > USED AT LINE 1323
                    > USED AT LINE 1331
                    > USED AT LINE 2309
LCD_INST:           0004 DEFINED AT LINE 20
                    > USED AT LINE 197
                    > USED AT LINE 1044
                    > USED AT LINE 1052
                    > USED AT LINE 1085
LCD_DATA:           0084 DEFINED AT LINE 21
                    > USED AT LINE 1013
                    > USED AT LINE 1034
                    > USED AT LINE 2422
                    > USED AT LINE 2444
LED8X8H:            0005 DEFINED AT LINE 22
                    > USED AT LINE 306
                    > USED AT LINE 3411
                    > USED AT LINE 3415
LED8X8V:            0006 DEFINED AT LINE 23
                    > USED AT LINE 307
                    > USED AT LINE 3405
GLCD_INST:          0007 DEFINED AT LINE 24
                    > USED AT LINE 63 IN packages.z80
                    > USED AT LINE 93 IN packages.z80
                    > USED AT LINE 96 IN packages.z80
                    > USED AT LINE 116 IN packages.z80
                    > USED AT LINE 129 IN packages.z80
                    > USED AT LINE 132 IN packages.z80
                    > USED AT LINE 138 IN packages.z80
                    > USED AT LINE 614 IN packages.z80
                    > USED AT LINE 620 IN packages.z80
                    > USED AT LINE 656 IN packages.z80
                    > USED AT LINE 687 IN packages.z80
GLCD_DATA:          0087 DEFINED AT LINE 25
                    > USED AT LINE 101 IN packages.z80
                    > USED AT LINE 103 IN packages.z80
                    > USED AT LINE 121 IN packages.z80
                    > USED AT LINE 625 IN packages.z80
                    > USED AT LINE 664 IN packages.z80
                    > USED AT LINE 694 IN packages.z80
LED8X8G:            00F8 DEFINED AT LINE 26
                    > USED AT LINE 3407
LED8X8B:            00F9 DEFINED AT LINE 27
                    > USED AT LINE 3409
SDIO:               00FD DEFINED AT LINE 28
                    > USED AT LINE 309
                    > USED AT LINE 1350 IN packages.z80
                    > USED AT LINE 1352 IN packages.z80
                    > USED AT LINE 1355 IN packages.z80
                    > USED AT LINE 1529 IN packages.z80
                    > USED AT LINE 1545 IN packages.z80
                    > USED AT LINE 1548 IN packages.z80
                    > USED AT LINE 1550 IN packages.z80
                    > USED AT LINE 1555 IN packages.z80
                    > USED AT LINE 1558 IN packages.z80
                    > USED AT LINE 1578 IN packages.z80
                    > USED AT LINE 1580 IN packages.z80
                    > USED AT LINE 1583 IN packages.z80
                    > USED AT LINE 1587 IN packages.z80
MATRIX:             00FE DEFINED AT LINE 29
SYS_CTRL:           00FF DEFINED AT LINE 30
                    > USED AT LINE 325
                    > USED AT LINE 442
                    > USED AT LINE 527
                    > USED AT LINE 1371
                    > USED AT LINE 1374
                    > USED AT LINE 2931
                    > USED AT LINE 2992
SHADOW:             0001 DEFINED AT LINE 33
                    > USED AT LINE 323
                    > USED AT LINE 328
                    > USED AT LINE 2900
                    > USED AT LINE 2901
                    > USED AT LINE 2951
                    > USED AT LINE 2955
PROTECT:            0002 DEFINED AT LINE 34
                    > USED AT LINE 315
                    > USED AT LINE 1368
                    > USED AT LINE 2963
                    > USED AT LINE 2967
EXPAND:             0004 DEFINED AT LINE 35
                    > USED AT LINE 318
                    > USED AT LINE 2916
                    > USED AT LINE 2975
                    > USED AT LINE 2979
                    > USED AT LINE 3001
                    > USED AT LINE 3004
CART:               0010 DEFINED AT LINE 36
                    > USED AT LINE 312
CAPSLOCK:           0080 DEFINED AT LINE 37
                    > USED AT LINE 321
                    > USED AT LINE 2924
                    > USED AT LINE 2928
                    > USED AT LINE 2987
                    > USED AT LINE 2990
MCB_AD_DATA:        0004 DEFINED AT LINE 47
                    > USED AT LINE 512
MCB_LCD_SEG:        0008 DEFINED AT LINE 48
                    > USED AT LINE 1203
MCB_DIS_DE:         0010 DEFINED AT LINE 49
                    > USED AT LINE 1211
MCB_MEN_PAR:        0020 DEFINED AT LINE 50
                    > USED AT LINE 2767
MCB_RTC:            0040 DEFINED AT LINE 51
                    > USED AT LINE 719
                    > USED AT LINE 2515
                    > USED AT LINE 3048
                    > USED AT LINE 3270
MCB_SD_CARD:        0080 DEFINED AT LINE 52
                    > USED AT LINE 90 IN packages.z80
                    > USED AT LINE 171 IN packages.z80
                    > USED AT LINE 258 IN packages.z80
BAUD_1200:          0080 DEFINED AT LINE 55
BAUD_2400:          003F DEFINED AT LINE 56
                    > USED AT LINE 3257
BAUD_4800:          001B DEFINED AT LINE 57
                    > USED AT LINE 393
                    > USED AT LINE 2600
                    > USED AT LINE 3260
BAUD_9600:          000B DEFINED AT LINE 58
                    > USED AT LINE 3263
BAUD_14400:         0005 DEFINED AT LINE 59
                    > USED AT LINE 3266
BKSP:               0008 DEFINED AT LINE 62
                    > USED AT LINE 792 IN packages.z80
TAB:                0009 DEFINED AT LINE 63
                    > USED AT LINE 799 IN packages.z80
CR:                 000D DEFINED AT LINE 64
                    > USED AT LINE 1529
                    > USED AT LINE 1582
                    > USED AT LINE 3605
                    > USED AT LINE 777 IN packages.z80
                    > USED AT LINE 832 IN packages.z80
LF:                 000A DEFINED AT LINE 65
                    > USED AT LINE 1531
                    > USED AT LINE 1584
                    > USED AT LINE 775 IN packages.z80
SPACE:              000  DEFINED AT LINE 66
                    > USED AT LINE 872
                    > USED AT LINE 1648
                    > USED AT LINE 1690
                    > USED AT LINE 1765
COLON:              000: DEFINED AT LINE 67
                    > USED AT LINE 870
                    > USED AT LINE 1761
                    > USED AT LINE 2480
K_FN:               0002 DEFINED AT LINE 70
                    > USED AT LINE 350
                    > USED AT LINE 745
                    > USED AT LINE 1176
K_PLUS:             0010 DEFINED AT LINE 71
                    > USED AT LINE 490
                    > USED AT LINE 629
K_MINUS:            0011 DEFINED AT LINE 72
                    > USED AT LINE 500
                    > USED AT LINE 652
K_GO:               0012 DEFINED AT LINE 73
                    > USED AT LINE 516
                    > USED AT LINE 667
                    > USED AT LINE 1158
                    > USED AT LINE 2315
K_ADDR:             0013 DEFINED AT LINE 74
                    > USED AT LINE 507
                    > USED AT LINE 694
                    > USED AT LINE 1154
                    > USED AT LINE 2321
                    > USED AT LINE 2500
KEY_SPEED:          0020 DEFINED AT LINE 77
                    > USED AT LINE 472
                    > USED AT LINE 3235
USER_ADDR:          4000 DEFINED AT LINE 78
                    > USED AT LINE 338
                    > USED AT LINE 388
                    > USED AT LINE 2587
                    > USED AT LINE 3505
                    > USED AT LINE 3514
BASE_ADDR:          C000 DEFINED AT LINE 79
                    > USED AT LINE 169
                    > USED AT LINE 173
                    > USED AT LINE 178
                    > USED AT LINE 180
                    > USED AT LINE 182
                    > USED AT LINE 184
                    > USED AT LINE 186
                    > USED AT LINE 193
                    > USED AT LINE 203
                    > USED AT LINE 210
                    > USED AT LINE 217
                    > USED AT LINE 244
                    > USED AT LINE 251
                    > USED AT LINE 299
                    > USED AT LINE 3348
                    > USED AT LINE 3387
                    > USED AT LINE 3424
                    > USED AT LINE 3495
                    > USED AT LINE 3701
                    > USED AT LINE 3704
LCD_ROW1:           0080 DEFINED AT LINE 80
                    > USED AT LINE 2419
                    > USED AT LINE 2441
                    > USED AT LINE 3534
LCD_ROW2:           00C0 DEFINED AT LINE 81
                    > USED AT LINE 838
                    > USED AT LINE 2427
                    > USED AT LINE 2449
                    > USED AT LINE 3534
LCD_ROW3:           0094 DEFINED AT LINE 82
LCD_ROW4:           00D4 DEFINED AT LINE 83
MENU_PTR:           007E DEFINED AT LINE 84
                    > USED AT LINE 841
                    > USED AT LINE 2809
MON_RAM:            0800 DEFINED AT LINE 87
                    > USED AT LINE 89
                    > USED AT LINE 92
STACK_SIZE:         0080 DEFINED AT LINE 88
                    > USED AT LINE 89
STACK_TOP:          0880 DEFINED AT LINE 89
                    > USED AT LINE 95
                    > USED AT LINE 96
                    > USED AT LINE 97
                    > USED AT LINE 98
                    > USED AT LINE 99
                    > USED AT LINE 100
                    > USED AT LINE 101
                    > USED AT LINE 102
                    > USED AT LINE 103
                    > USED AT LINE 104
                    > USED AT LINE 105
                    > USED AT LINE 106
                    > USED AT LINE 107
                    > USED AT LINE 108
                    > USED AT LINE 109
                    > USED AT LINE 110
                    > USED AT LINE 111
                    > USED AT LINE 112
                    > USED AT LINE 113
                    > USED AT LINE 114
                    > USED AT LINE 115
                    > USED AT LINE 116
                    > USED AT LINE 117
                    > USED AT LINE 120
                    > USED AT LINE 302
                    > USED AT LINE 440
                    > USED AT LINE 2323
TOP_RAM:            7FFF DEFINED AT LINE 90
                    > USED AT LINE 588
                    > USED AT LINE 596
                    > USED AT LINE 606
                    > USED AT LINE 614
                    > USED AT LINE 617
ROMSIG:             0800 DEFINED AT LINE 92
                    > USED AT LINE 355
                    > USED AT LINE 368
DISP_BUFF:          0880 DEFINED AT LINE 95
                    > USED AT LINE 926
                    > USED AT LINE 958
                    > USED AT LINE 981
                    > USED AT LINE 1613
                    > USED AT LINE 2741
DISP_DATA:          0884 DEFINED AT LINE 96
                    > USED AT LINE 964
CEL:                0886 DEFINED AT LINE 97
                    > USED AT LINE 339
                    > USED AT LINE 373
                    > USED AT LINE 453
                    > USED AT LINE 488
                    > USED AT LINE 496
                    > USED AT LINE 550
                    > USED AT LINE 562
                    > USED AT LINE 587
                    > USED AT LINE 600
                    > USED AT LINE 605
                    > USED AT LINE 815
                    > USED AT LINE 888
                    > USED AT LINE 2071
                    > USED AT LINE 2080
                    > USED AT LINE 2505
                    > USED AT LINE 2526
                    > USED AT LINE 2538
MCB:                0888 DEFINED AT LINE 98
                    > USED AT LINE 379
                    > USED AT LINE 400
                    > USED AT LINE 444
                    > USED AT LINE 448
                    > USED AT LINE 476
                    > USED AT LINE 556
                    > USED AT LINE 718
                    > USED AT LINE 755
                    > USED AT LINE 798
                    > USED AT LINE 960
                    > USED AT LINE 1202
                    > USED AT LINE 1205
                    > USED AT LINE 1210
                    > USED AT LINE 1212
                    > USED AT LINE 2514
                    > USED AT LINE 2766
                    > USED AT LINE 2851
                    > USED AT LINE 2876
                    > USED AT LINE 3047
                    > USED AT LINE 3269
KEY_BUFF:           0889 DEFINED AT LINE 99
                    > USED AT LINE 529
                    > USED AT LINE 1110
                    > USED AT LINE 1121
                    > USED AT LINE 1171
                    > USED AT LINE 3221
                    > USED AT LINE 3230
                    > USED AT LINE 3239
KEY_PRESS:          088A DEFINED AT LINE 100
                    > USED AT LINE 1105
                    > USED AT LINE 1108
                    > USED AT LINE 1113
                    > USED AT LINE 1128
                    > USED AT LINE 1169
                    > USED AT LINE 1174
                    > USED AT LINE 1193
                    > USED AT LINE 1617
KEY_REPEAT:         088B DEFINED AT LINE 101
                    > USED AT LINE 464
                    > USED AT LINE 3217
KEY_AUTO:           088C DEFINED AT LINE 102
                    > USED AT LINE 546
                    > USED AT LINE 2676
                    > USED AT LINE 3043
                    > USED AT LINE 3045
                    > USED AT LINE 3053
KEY_BEEP:           088D DEFINED AT LINE 103
                    > USED AT LINE 902
                    > USED AT LINE 2674
                    > USED AT LINE 3034
                    > USED AT LINE 3036
KEY_SECOND:         088E DEFINED AT LINE 104
                    > USED AT LINE 744
                    > USED AT LINE 1133
GLCD_TERM:          088F DEFINED AT LINE 105
                    > USED AT LINE 2892
                    > USED AT LINE 2943
                    > USED AT LINE 3011
                    > USED AT LINE 3013
DIS_ADDR:           0890 DEFINED AT LINE 106
                    > USED AT LINE 789
                    > USED AT LINE 2077
                    > USED AT LINE 2086
USER_INT:           0892 DEFINED AT LINE 107
                    > USED AT LINE 213
USER_NMI:           0894 DEFINED AT LINE 108
                    > USED AT LINE 247
MENU_POS:           0896 DEFINED AT LINE 109
                    > USED AT LINE 641
                    > USED AT LINE 647
                    > USED AT LINE 649
                    > USED AT LINE 659
                    > USED AT LINE 664
                    > USED AT LINE 2706
                    > USED AT LINE 2752
                    > USED AT LINE 2799
MENU_SEL:           0897 DEFINED AT LINE 110
                    > USED AT LINE 635
                    > USED AT LINE 639
                    > USED AT LINE 654
                    > USED AT LINE 657
                    > USED AT LINE 674
                    > USED AT LINE 703
                    > USED AT LINE 2707
                    > USED AT LINE 2801
MENU_CNT:           0898 DEFINED AT LINE 111
                    > USED AT LINE 632
                    > USED AT LINE 2709
                    > USED AT LINE 2755
MENU_CFG:           0899 DEFINED AT LINE 112
                    > USED AT LINE 2710
                    > USED AT LINE 2738
                    > USED AT LINE 2817
MENU_IDX:           089B DEFINED AT LINE 113
                    > USED AT LINE 435
                    > USED AT LINE 2685
                    > USED AT LINE 2688
                    > USED AT LINE 2717
                    > USED AT LINE 2719
CAPS_LOCK:          089C DEFINED AT LINE 114
                    > USED AT LINE 320
                    > USED AT LINE 2885
                    > USED AT LINE 2925
                    > USED AT LINE 2986
                    > USED AT LINE 2988
SYS_MODE:           089D DEFINED AT LINE 115
                    > USED AT LINE 326
                    > USED AT LINE 327
                    > USED AT LINE 441
                    > USED AT LINE 523
                    > USED AT LINE 1366
                    > USED AT LINE 1373
                    > USED AT LINE 2899
                    > USED AT LINE 2915
                    > USED AT LINE 2927
                    > USED AT LINE 2932
                    > USED AT LINE 2954
                    > USED AT LINE 2966
                    > USED AT LINE 2978
                    > USED AT LINE 2989
                    > USED AT LINE 2993
                    > USED AT LINE 3003
PROT_MODE:          089E DEFINED AT LINE 116
                    > USED AT LINE 316
                    > USED AT LINE 525
                    > USED AT LINE 2908
                    > USED AT LINE 2964
XPND_MODE:          089F DEFINED AT LINE 117
                    > USED AT LINE 317
                    > USED AT LINE 2976
                    > USED AT LINE 3000
                    > USED AT LINE 3002
MON_FRAM:           08A0 DEFINED AT LINE 120
                    > USED AT LINE 123
                    > USED AT LINE 126
                    > USED AT LINE 130
                    > USED AT LINE 133
                    > USED AT LINE 136
                    > USED AT LINE 137
                    > USED AT LINE 158
PARAM_DATA:         08C0 DEFINED AT LINE 123
                    > USED AT LINE 140
                    > USED AT LINE 154
DATA_BASE:          08A0 DEFINED AT LINE 126
                    > USED AT LINE 127
                    > USED AT LINE 340
                    > USED AT LINE 831
                    > USED AT LINE 892
DATA_ROW:           0900 DEFINED AT LINE 127
                    > USED AT LINE 774
                    > USED AT LINE 777
                    > USED AT LINE 1070
                    > USED AT LINE 1074
                    > USED AT LINE 1570
                    > USED AT LINE 1573
CEL_QJMP:           08A2 DEFINED AT LINE 130
                    > USED AT LINE 389
                    > USED AT LINE 390
                    > USED AT LINE 391
                    > USED AT LINE 2472
                    > USED AT LINE 2506
                    > USED AT LINE 2527
                    > USED AT LINE 2651
                    > USED AT LINE 2654
                    > USED AT LINE 2657
MENU_CFG_D:         08A8 DEFINED AT LINE 133
                    > USED AT LINE 2690
                    > USED AT LINE 2723
RNG_SEED:           08B0 DEFINED AT LINE 136
                    > USED AT LINE 424
                    > USED AT LINE 3086
                    > USED AT LINE 3092
BAUD:               08B1 DEFINED AT LINE 137
                    > USED AT LINE 395
                    > USED AT LINE 1277
                    > USED AT LINE 1319
                    > USED AT LINE 1329
                    > USED AT LINE 2670
                    > USED AT LINE 3268
                    > USED AT LINE 3275
COPY_START:         08C0 DEFINED AT LINE 140
                    > USED AT LINE 141
                    > USED AT LINE 142
                    > USED AT LINE 143
                    > USED AT LINE 144
                    > USED AT LINE 145
                    > USED AT LINE 146
                    > USED AT LINE 147
                    > USED AT LINE 148
                    > USED AT LINE 149
                    > USED AT LINE 150
                    > USED AT LINE 151
                    > USED AT LINE 593
                    > USED AT LINE 613
                    > USED AT LINE 1806
                    > USED AT LINE 1830
                    > USED AT LINE 1840
                    > USED AT LINE 1864
                    > USED AT LINE 1869
                    > USED AT LINE 1919
                    > USED AT LINE 2101
                    > USED AT LINE 2107
                    > USED AT LINE 2115
                    > USED AT LINE 2120
                    > USED AT LINE 2125
                    > USED AT LINE 2661
COPY_END:           08C2 DEFINED AT LINE 141
                    > USED AT LINE 598
                    > USED AT LINE 615
                    > USED AT LINE 1816
                    > USED AT LINE 1832
                    > USED AT LINE 1842
                    > USED AT LINE 1868
                    > USED AT LINE 1924
                    > USED AT LINE 2664
COPY_DEST:          08C4 DEFINED AT LINE 142
                    > USED AT LINE 595
                    > USED AT LINE 611
                    > USED AT LINE 1809
                    > USED AT LINE 1834
                    > USED AT LINE 1844
                    > USED AT LINE 1863
                    > USED AT LINE 1873
                    > USED AT LINE 2104
                    > USED AT LINE 2667
COPY_PTR:           08C6 DEFINED AT LINE 143
                    > USED AT LINE 1876
                    > USED AT LINE 1878
                    > USED AT LINE 1903
                    > USED AT LINE 1936
                    > USED AT LINE 1941
COPY_EBLK:          08C8 DEFINED AT LINE 144
                    > USED AT LINE 1875
                    > USED AT LINE 1942
COPY_CORR:          08CA DEFINED AT LINE 145
                    > USED AT LINE 1867
                    > USED AT LINE 1928
REST_START:         08CC DEFINED AT LINE 146
                    > USED AT LINE 1850
                    > USED AT LINE 2105
                    > USED AT LINE 2110
                    > USED AT LINE 2119
REST_END:           08CE DEFINED AT LINE 147
                    > USED AT LINE 1852
                    > USED AT LINE 2112
REST_DEST:          08D0 DEFINED AT LINE 148
                    > USED AT LINE 1854
                    > USED AT LINE 2102
TEMP_START:         08D2 DEFINED AT LINE 149
                    > USED AT LINE 2116
                    > USED AT LINE 2124
                    > USED AT LINE 2145
                    > USED AT LINE 2165
TEMP_END:           08D4 DEFINED AT LINE 150
                    > USED AT LINE 2167
TEMP_DEST:          08D6 DEFINED AT LINE 151
DATA_FROM:          08C0 DEFINED AT LINE 154
                    > USED AT LINE 155
                    > USED AT LINE 1496
                    > USED AT LINE 1507
                    > USED AT LINE 1519
                    > USED AT LINE 44 IN packages.z80
                    > USED AT LINE 122 IN packages.z80
DATA_TO:            08C2 DEFINED AT LINE 155
                    > USED AT LINE 1509
                    > USED AT LINE 1534
                    > USED AT LINE 1546
                    > USED AT LINE 1588
                    > USED AT LINE 1603
BP_BASE_SP:         0900 DEFINED AT LINE 158
                    > USED AT LINE 159
                    > USED AT LINE 160
                    > USED AT LINE 161
                    > USED AT LINE 162
                    > USED AT LINE 163
                    > USED AT LINE 2275
                    > USED AT LINE 2283
                    > USED AT LINE 2365
                    > USED AT LINE 2396
BP_HL:              0902 DEFINED AT LINE 159
                    > USED AT LINE 2362
                    > USED AT LINE 2382
BP_REGS:            0914 DEFINED AT LINE 160
                    > USED AT LINE 2369
BP_PC:              0914 DEFINED AT LINE 161
                    > USED AT LINE 206
                    > USED AT LINE 2278
BP_ORIG_SP:         0916 DEFINED AT LINE 162
                    > USED AT LINE 2368
                    > USED AT LINE 2383
                    > USED AT LINE 2395
                    > USED AT LINE 2411
BP_LCD:             0918 DEFINED AT LINE 163
                    > USED AT LINE 2421
                    > USED AT LINE 2443
BOOT:               C000 DEFINED AT LINE 170
RST08:              C008 DEFINED AT LINE 174
RST10:              C010 DEFINED AT LINE 179
RST18:              C018 DEFINED AT LINE 183
RST20:              C020 DEFINED AT LINE 187
RST28:              C028 DEFINED AT LINE 194
BUSYLOOP:           C029 DEFINED AT LINE 196
                    > USED AT LINE 199
RST30:              C030 DEFINED AT LINE 204
RST38:              C038 DEFINED AT LINE 211
APICALL2:           C040 DEFINED AT LINE 222
                    > USED AT LINE 184
APIGOOD2:           C047 DEFINED AT LINE 226
                    > USED AT LINE 224
NMI:                C066 DEFINED AT LINE 245
APICALL:            C070 DEFINED AT LINE 256
                    > USED AT LINE 180
APIGOOD:            C07A DEFINED AT LINE 263
                    > USED AT LINE 260
RESTARTHANDLE:      C090 DEFINED AT LINE 283
INTHANDLER:         C091 DEFINED AT LINE 287
                    > USED AT LINE 3515
NMIHANDLER:         C093 DEFINED AT LINE 291
                    > USED AT LINE 3516
PREINIT:            C100 DEFINED AT LINE 301
                    > USED AT LINE 171
                    > USED AT LINE 3428
HARDBOOT:           C146 DEFINED AT LINE 336
                    > USED AT LINE 329
SKIPMATRIX:         C167 DEFINED AT LINE 352
                    > USED AT LINE 346
HARDINIT:           C175 DEFINED AT LINE 359
                    > USED AT LINE 343
                    > USED AT LINE 351
SKIPRTC:            C1AB DEFINED AT LINE 386
                    > USED AT LINE 378
CHECKSDCARD:        C1BD DEFINED AT LINE 396
                    > USED AT LINE 385
LCDBANNERS:         C1C7 DEFINED AT LINE 402
                    > USED AT LINE 399
PRESOFTBOOT:        C1F5 DEFINED AT LINE 427
                    > USED AT LINE 358
SOFTBOOT:           C209 DEFINED AT LINE 439
                    > USED AT LINE 530
                    > USED AT LINE 581
                    > USED AT LINE 697
                    > USED AT LINE 2324
                    > USED AT LINE 3652
                    > USED AT LINE 3682
                    > USED AT LINE 3686
                    > USED AT LINE 3688
                    > USED AT LINE 3690
                    > USED AT LINE 3692
                    > USED AT LINE 3694
                    > USED AT LINE 3696
RESETMCB:           C214 DEFINED AT LINE 445
                    > USED AT LINE 498
UPDATEMCB:          C216 DEFINED AT LINE 447
                    > USED AT LINE 514
SETDISPBUFFER:      C219 DEFINED AT LINE 451
                    > USED AT LINE 559
                    > USED AT LINE 568
                    > USED AT LINE 591
                    > USED AT LINE 602
                    > USED AT LINE 609
                    > USED AT LINE 619
                    > USED AT LINE 625
                    > USED AT LINE 646
                    > USED AT LINE 650
                    > USED AT LINE 663
                    > USED AT LINE 665
                    > USED AT LINE 720
                    > USED AT LINE 724
                    > USED AT LINE 728
                    > USED AT LINE 732
SETLCD:             C226 DEFINED AT LINE 457
                    > USED AT LINE 2855
                    > USED AT LINE 2879
MAINLOOP:           C229 DEFINED AT LINE 461
                    > USED AT LINE 467
                    > USED AT LINE 471
                    > USED AT LINE 637
                    > USED AT LINE 656
                    > USED AT LINE 701
KEYDELAY:           C238 DEFINED AT LINE 468
                    > USED AT LINE 465
KEYFIRST:           C23F DEFINED AT LINE 473
                    > USED AT LINE 469
KEYPROCESSSEGS:     C248 DEFINED AT LINE 482
KEYPLUS:            C251 DEFINED AT LINE 489
UPDATECEL:          C25C DEFINED AT LINE 495
                    > USED AT LINE 505
KEYMINUS:           C262 DEFINED AT LINE 499
                    > USED AT LINE 491
KEYADDRESS:         C26F DEFINED AT LINE 506
                    > USED AT LINE 501
KEYGO:              C280 DEFINED AT LINE 515
                    > USED AT LINE 508
RUNROUTINE:         C28C DEFINED AT LINE 521
                    > USED AT LINE 692
KEYHEX:             C2A3 DEFINED AT LINE 533
                    > USED AT LINE 517
SKIPAUTOINC:        C2C0 DEFINED AT LINE 551
                    > USED AT LINE 548
ENTERNIBBLE:        C2C3 DEFINED AT LINE 554
                    > USED AT LINE 544
UPDATEADDRESS:      C2CD DEFINED AT LINE 561
                    > USED AT LINE 536
KEYFN:              C2DC DEFINED AT LINE 570
                    > USED AT LINE 538
FNPLUS:             C2EE DEFINED AT LINE 585
                    > USED AT LINE 493
FNMINUS:            C315 DEFINED AT LINE 603
                    > USED AT LINE 503
FNAD:               C33B DEFINED AT LINE 620
                    > USED AT LINE 510
KEYPROCESSLCD:      C347 DEFINED AT LINE 628
                    > USED AT LINE 478
KEYPLUSLCD:         C34B DEFINED AT LINE 631
KEYMINUSLCD:        C371 DEFINED AT LINE 651
                    > USED AT LINE 630
KEYGOLCD:           C38F DEFINED AT LINE 666
                    > USED AT LINE 653
MENUGO:             C39A DEFINED AT LINE 673
                    > USED AT LINE 670
LCDRUNNING:         C3AC DEFINED AT LINE 684
                    > USED AT LINE 520
KEYADDRESSLCD:      C3BF DEFINED AT LINE 693
                    > USED AT LINE 668
KEYHEXLCD:          C3CA DEFINED AT LINE 698
                    > USED AT LINE 695
CHECKFNKEY:         C404 DEFINED AT LINE 736
                    > USED AT LINE 492
                    > USED AT LINE 502
                    > USED AT LINE 509
                    > USED AT LINE 537
CHECKSECOND:        C40E DEFINED AT LINE 743
                    > USED AT LINE 739
UPDATELCD:          C414 DEFINED AT LINE 750
                    > USED AT LINE 458
LCDDATAVIEW:        C42B DEFINED AT LINE 760
LCDDATAROW:         C438 DEFINED AT LINE 766
                    > USED AT LINE 782
LCDDISVIEW:         C4C5 DEFINED AT LINE 845
                    > USED AT LINE 759
LCDDISROW:          C4D0 DEFINED AT LINE 851
                    > USED AT LINE 859
DRAWDISROW:         C4DE DEFINED AT LINE 866
                    > USED AT LINE 791
                    > USED AT LINE 857
SETDATABASE:        C501 DEFINED AT LINE 887
                    > USED AT LINE 567
                    > USED AT LINE 761
                    > USED AT LINE 2539
BEEP:               C50C DEFINED AT LINE 901
                    > USED AT LINE 452
                    > USED AT LINE 522
                    > USED AT LINE 2461
BEEPALWAYS:         C511 DEFINED AT LINE 905
                    > USED AT LINE 3429
BEEPLOOP:           C515 DEFINED AT LINE 909
                    > USED AT LINE 915
CELTOSEG:           C525 DEFINED AT LINE 924
                    > USED AT LINE 454
CONVATOSEG:         C532 DEFINED AT LINE 936
                    > USED AT LINE 928
                    > USED AT LINE 930
                    > USED AT LINE 3430
CONVNIBTOSEG:       C53B DEFINED AT LINE 944
                    > USED AT LINE 942
SETDOTS:            C546 DEFINED AT LINE 957
                    > USED AT LINE 455
SETDOT:             C562 DEFINED AT LINE 973
                    > USED AT LINE 962
                    > USED AT LINE 967
                    > USED AT LINE 976
SCANDISPLAYBUFF:    C568 DEFINED AT LINE 980
                    > USED AT LINE 462
                    > USED AT LINE 1621
SCANSEGMENTS:       C56B DEFINED AT LINE 986
                    > USED AT LINE 190
                    > USED AT LINE 2308
                    > USED AT LINE 3436
SCANLOOP:           C56D DEFINED AT LINE 988
                    > USED AT LINE 1000
STRINGTOLCD:        C583 DEFINED AT LINE 1007
                    > USED AT LINE 405
                    > USED AT LINE 678
                    > USED AT LINE 689
                    > USED AT LINE 778
                    > USED AT LINE 876
                    > USED AT LINE 879
                    > USED AT LINE 1014
                    > USED AT LINE 1075
                    > USED AT LINE 2268
                    > USED AT LINE 2465
                    > USED AT LINE 2469
                    > USED AT LINE 2567
                    > USED AT LINE 2751
                    > USED AT LINE 2765
                    > USED AT LINE 3439
                    > USED AT LINE 1307 IN packages.z80
                    > USED AT LINE 1311 IN packages.z80
                    > USED AT LINE 1314 IN packages.z80
                    > USED AT LINE 1317 IN packages.z80
STRINGTOSERIAL:     C58C DEFINED AT LINE 1019
                    > USED AT LINE 408
                    > USED AT LINE 3471
STRSERIALLOOP:      C58F DEFINED AT LINE 1021
                    > USED AT LINE 1027
CHARTOLCD:          C598 DEFINED AT LINE 1032
                    > USED AT LINE 797
                    > USED AT LINE 805
                    > USED AT LINE 807
                    > USED AT LINE 812
                    > USED AT LINE 814
                    > USED AT LINE 817
                    > USED AT LINE 822
                    > USED AT LINE 824
                    > USED AT LINE 828
                    > USED AT LINE 842
                    > USED AT LINE 2301
                    > USED AT LINE 2340
                    > USED AT LINE 2342
                    > USED AT LINE 2479
                    > USED AT LINE 2481
                    > USED AT LINE 2488
                    > USED AT LINE 2490
                    > USED AT LINE 2785
                    > USED AT LINE 2787
                    > USED AT LINE 2810
                    > USED AT LINE 3440
                    > USED AT LINE 1300 IN packages.z80
COMMANDTOLCD:       C59C DEFINED AT LINE 1040
                    > USED AT LINE 519
                    > USED AT LINE 677
                    > USED AT LINE 687
                    > USED AT LINE 752
                    > USED AT LINE 754
                    > USED AT LINE 771
                    > USED AT LINE 787
                    > USED AT LINE 795
                    > USED AT LINE 810
                    > USED AT LINE 820
                    > USED AT LINE 840
                    > USED AT LINE 856
                    > USED AT LINE 2258
                    > USED AT LINE 2266
                    > USED AT LINE 2292
                    > USED AT LINE 2330
                    > USED AT LINE 2420
                    > USED AT LINE 2428
                    > USED AT LINE 2442
                    > USED AT LINE 2450
                    > USED AT LINE 2463
                    > USED AT LINE 2467
                    > USED AT LINE 2476
                    > USED AT LINE 2566
                    > USED AT LINE 2737
                    > USED AT LINE 2764
                    > USED AT LINE 2772
                    > USED AT LINE 2808
                    > USED AT LINE 3441
                    > USED AT LINE 1203 IN packages.z80
                    > USED AT LINE 1207 IN packages.z80
                    > USED AT LINE 1252 IN packages.z80
                    > USED AT LINE 1272 IN packages.z80
                    > USED AT LINE 1297 IN packages.z80
                    > USED AT LINE 1306 IN packages.z80
                    > USED AT LINE 1309 IN packages.z80
                    > USED AT LINE 1313 IN packages.z80
                    > USED AT LINE 1316 IN packages.z80
LCDINITIALISE:      C5A3 DEFINED AT LINE 1051
                    > USED AT LINE 337
HLTOLCD:            C5B6 DEFINED AT LINE 1067
                    > USED AT LINE 691
                    > USED AT LINE 1204 IN packages.z80
                    > USED AT LINE 1208 IN packages.z80
                    > USED AT LINE 1255 IN packages.z80
                    > USED AT LINE 1275 IN packages.z80
LCDBUSY:            C5C9 DEFINED AT LINE 1083
                    > USED AT LINE 3438
SCANKEYS:           C5D1 DEFINED AT LINE 1097
                    > USED AT LINE 191
                    > USED AT LINE 463
                    > USED AT LINE 1192
                    > USED AT LINE 1196
                    > USED AT LINE 1616
                    > USED AT LINE 1622
                    > USED AT LINE 2312
                    > USED AT LINE 3442
KEYPRESS:           C5DE DEFINED AT LINE 1107
                    > USED AT LINE 1104
KEYEXIT:            C5F0 DEFINED AT LINE 1118
                    > USED AT LINE 1181
KEYBOARDSCAN:       C5F6 DEFINED AT LINE 1125
                    > USED AT LINE 1101
KEYBOARDFETCH:      C5FF DEFINED AT LINE 1130
                    > USED AT LINE 1127
KEYNUMBER:          C610 DEFINED AT LINE 1144
                    > USED AT LINE 1141
KEYSPECIAL:         C61C DEFINED AT LINE 1151
                    > USED AT LINE 1148
KEYGOOD:            C63A DEFINED AT LINE 1167
                    > USED AT LINE 1143
                    > USED AT LINE 1150
                    > USED AT LINE 1155
                    > USED AT LINE 1159
KEYBAD:             C653 DEFINED AT LINE 1182
                    > USED AT LINE 1139
                    > USED AT LINE 1146
                    > USED AT LINE 1161
                    > USED AT LINE 1163
SCANKEYSWAIT:       C656 DEFINED AT LINE 1191
                    > USED AT LINE 176
                    > USED AT LINE 1195
                    > USED AT LINE 3443
SWITCHMODE:         C665 DEFINED AT LINE 1201
                    > USED AT LINE 624
                    > USED AT LINE 2720
SWITCHVIEW:         C670 DEFINED AT LINE 1209
                    > USED AT LINE 3556
ASCIITOSEGMENT:     C679 DEFINED AT LINE 1219
                    > USED AT LINE 2745
                    > USED AT LINE 3432
A2SEXIT:            C681 DEFINED AT LINE 1224
                    > USED AT LINE 1221
A2SLOOKUP:          C683 DEFINED AT LINE 1227
                    > USED AT LINE 1223
SOFTWAREID:         C68C DEFINED AT LINE 1240
                    > USED AT LINE 3426
VERSIONID:          C690 DEFINED AT LINE 1250
                    > USED AT LINE 3427
READYTOTRANSMIT:    C69C DEFINED AT LINE 1260
                    > USED AT LINE 1020
                    > USED AT LINE 1455
                    > USED AT LINE 1518
                    > USED AT LINE 1547
                    > USED AT LINE 1555
                    > USED AT LINE 1605
TXBYTE:             C6A8 DEFINED AT LINE 1273
                    > USED AT LINE 1026
                    > USED AT LINE 1458
                    > USED AT LINE 1526
                    > USED AT LINE 1530
                    > USED AT LINE 1532
                    > USED AT LINE 1579
                    > USED AT LINE 1583
                    > USED AT LINE 1585
                    > USED AT LINE 3448
SENDBIT:            C6BB DEFINED AT LINE 1287
                    > USED AT LINE 1294
RXBYTE:             C6D9 DEFINED AT LINE 1311
                    > USED AT LINE 1385
                    > USED AT LINE 1442
                    > USED AT LINE 1474
                    > USED AT LINE 3449
STARTBIT:           C6DB DEFINED AT LINE 1314
                    > USED AT LINE 1317
                    > USED AT LINE 1325
GETBIT:             C6F1 DEFINED AT LINE 1328
                    > USED AT LINE 1334
TIMEDELAY:          C703 DEFINED AT LINE 1344
                    > USED AT LINE 304
                    > USED AT LINE 421
                    > USED AT LINE 1264
                    > USED AT LINE 1283
                    > USED AT LINE 1293
                    > USED AT LINE 1299
                    > USED AT LINE 1300
                    > USED AT LINE 1322
                    > USED AT LINE 1330
                    > USED AT LINE 3459
INTELHEXLOAD:       C710 DEFINED AT LINE 1365
                    > USED AT LINE 3450
                    > USED AT LINE 3547
                    > USED AT LINE 3630
INTELLOADER:        C728 DEFINED AT LINE 1380
                    > USED AT LINE 1372
                    > USED AT LINE 1415
INTELMARK:          C72A DEFINED AT LINE 1384
                    > USED AT LINE 1387
INTELLOAD:          C748 DEFINED AT LINE 1405
                    > USED AT LINE 1413
INTELCHECKSUM:      C759 DEFINED AT LINE 1418
                    > USED AT LINE 1401
                    > USED AT LINE 1414
GETHEXBYTE:         C75F DEFINED AT LINE 1426
                    > USED AT LINE 1388
                    > USED AT LINE 1390
                    > USED AT LINE 1392
                    > USED AT LINE 1400
                    > USED AT LINE 1406
                    > USED AT LINE 1419
GETHEXCHAR:         C770 DEFINED AT LINE 1441
                    > USED AT LINE 1427
                    > USED AT LINE 1433
DATATOSERIAL:       C77C DEFINED AT LINE 1451
                    > USED AT LINE 3640
SENDTOSERIAL:       C77F DEFINED AT LINE 1454
                    > USED AT LINE 1468
SENDLOOP:           C782 DEFINED AT LINE 1456
                    > USED AT LINE 1460
SENDTOSERIALAPI:    C78C DEFINED AT LINE 1465
                    > USED AT LINE 3451
DATAFROMSERIAL:     C791 DEFINED AT LINE 1471
                    > USED AT LINE 3644
RECEIVEFROMSERIAL:  C794 DEFINED AT LINE 1473
                    > USED AT LINE 1477
                    > USED AT LINE 1485
RECEIVEFROMSERIALAPI: C79E DEFINED AT LINE 1482
                    > USED AT LINE 3452
GETTOFROM:          C7A3 DEFINED AT LINE 1493
                    > USED AT LINE 1452
                    > USED AT LINE 1472
                    > USED AT LINE 1514
                    > USED AT LINE 1554
                    > USED AT LINE 2170
DATARANGEPARAMS:    C7B4 DEFINED AT LINE 1502
                    > USED AT LINE 1494
ASSEMBLYTOSERIAL:   C7EE DEFINED AT LINE 1513
                    > USED AT LINE 3638
SENDASSEMBLY:       C7F1 DEFINED AT LINE 1517
ASSEMBLYLOOP:       C7FA DEFINED AT LINE 1521
                    > USED AT LINE 1538
                    > USED AT LINE 1548
SENDASSEMBLYAPI:    C821 DEFINED AT LINE 1543
                    > USED AT LINE 3453
HEXDUMPTOSERIAL:    C82E DEFINED AT LINE 1553
                    > USED AT LINE 3642
SENDHEX:            C834 DEFINED AT LINE 1556
                    > USED AT LINE 1594
                    > USED AT LINE 1606
HEXMORE:            C842 DEFINED AT LINE 1567
                    > USED AT LINE 1563
HEXTEXTLOOP:        C84E DEFINED AT LINE 1574
                    > USED AT LINE 1580
SKIPHEX:            C858 DEFINED AT LINE 1581
                    > USED AT LINE 1578
SENDHEXAPI:         C86F DEFINED AT LINE 1598
                    > USED AT LINE 3454
DISPLAY7SEGS:       C87D DEFINED AT LINE 1612
                    > USED AT LINE 2176
                    > USED AT LINE 2179
                    > USED AT LINE 2182
DISPLAYLOOP:        C88E DEFINED AT LINE 1620
                    > USED AT LINE 1623
STRINGCOMPARE:      C897 DEFINED AT LINE 1635
                    > USED AT LINE 357
                    > USED AT LINE 1643
                    > USED AT LINE 3433
STRINGZEROSPACE:    C8A1 DEFINED AT LINE 1647
                    > USED AT LINE 878
STRINGZERO:         C8A3 DEFINED AT LINE 1657
SZ1:                C8A8 DEFINED AT LINE 1661
                    > USED AT LINE 1665
SZ2:                C8B2 DEFINED AT LINE 1669
                    > USED AT LINE 1663
STRINGSPACES:       C8B5 DEFINED AT LINE 1677
STRSPLOOP:          C8B9 DEFINED AT LINE 1681
                    > USED AT LINE 1692
STRSPCHECK:         C8C1 DEFINED AT LINE 1689
                    > USED AT LINE 1684
HLTOSTRING:         C8C9 DEFINED AT LINE 1701
                    > USED AT LINE 1071
                    > USED AT LINE 1760
                    > USED AT LINE 3434
ATOSTRING:          C8CE DEFINED AT LINE 1711
                    > USED AT LINE 1703
                    > USED AT LINE 1769
                    > USED AT LINE 3435
                    > USED AT LINE 356 IN packages.z80
                    > USED AT LINE 363 IN packages.z80
                    > USED AT LINE 372 IN packages.z80
                    > USED AT LINE 416 IN packages.z80
                    > USED AT LINE 422 IN packages.z80
                    > USED AT LINE 429 IN packages.z80
                    > USED AT LINE 431 IN packages.z80
LOWNIBTOSTRING:     C8D7 DEFINED AT LINE 1719
                    > USED AT LINE 1717
REGATOASCII:        C8E2 DEFINED AT LINE 1733
                    > USED AT LINE 2338
                    > USED AT LINE 2486
                    > USED AT LINE 2783
                    > USED AT LINE 3431
NIBBLE2ASCII:       C8EC DEFINED AT LINE 1742
                    > USED AT LINE 1739
GENDATADUMP:        C8F6 DEFINED AT LINE 1758
                    > USED AT LINE 775
                    > USED AT LINE 1571
                    > USED AT LINE 3455
DATADUMPLOOP:       C8FE DEFINED AT LINE 1764
                    > USED AT LINE 1771
CHECKSTARTEND:      C90D DEFINED AT LINE 1784
                    > USED AT LINE 1497
                    > USED AT LINE 1807
                    > USED AT LINE 2108
                    > USED AT LINE 2146
                    > USED AT LINE 3456
BLOCKMOVE:          C91D DEFINED AT LINE 1805
                    > USED AT LINE 1862
                    > USED AT LINE 2094
                    > USED AT LINE 2123
MVUP:               C939 DEFINED AT LINE 1820
                    > USED AT LINE 1811
BLOCKMOVEPARAMS:    C93E DEFINED AT LINE 1825
                    > USED AT LINE 2092
BLOCKCOPYPARAMS:    C98B DEFINED AT LINE 1835
                    > USED AT LINE 1859
BLOCKRESTOREPARAMS: C9D8 DEFINED AT LINE 1845
                    > USED AT LINE 2113
SMARTCOPY:          CA25 DEFINED AT LINE 1858
                    > USED AT LINE 3555
                    > USED AT LINE 3634
SMARTCOPYDIRECT:    CA2B DEFINED AT LINE 1861
                    > USED AT LINE 599
                    > USED AT LINE 616
CHECKINST:          CA52 DEFINED AT LINE 1877
                    > USED AT LINE 1945
FOURBYTEADDR:       CA7A DEFINED AT LINE 1901
                    > USED AT LINE 1886
                    > USED AT LINE 1896
CHECK3:             CA80 DEFINED AT LINE 1905
                    > USED AT LINE 1883
TARGETSKIP:         CAAC DEFINED AT LINE 1935
                    > USED AT LINE 1923
                    > USED AT LINE 1927
ENDTEST:            CAB2 DEFINED AT LINE 1940
                    > USED AT LINE 1951
NEXTINST:           CABF DEFINED AT LINE 1947
                    > USED AT LINE 1889
                    > USED AT LINE 1900
                    > USED AT LINE 1907
                    > USED AT LINE 1911
                    > USED AT LINE 1950
GETINSTLEN:         CAC5 DEFINED AT LINE 1958
                    > USED AT LINE 1880
GETINS1:            CADB DEFINED AT LINE 1973
                    > USED AT LINE 1969
GETINS2:            CAE3 DEFINED AT LINE 1979
                    > USED AT LINE 1966
GETINS3:            CAF2 DEFINED AT LINE 1991
                    > USED AT LINE 1978
GETINS4:            CB07 DEFINED AT LINE 2008
                    > USED AT LINE 1982
CALCDISADDRESS:     CB52 DEFINED AT LINE 2070
                    > USED AT LINE 788
                    > USED AT LINE 846
DISTESTLOOP:        CB5E DEFINED AT LINE 2076
                    > USED AT LINE 2074
                    > USED AT LINE 2085
DUMBCOPY:           CB77 DEFINED AT LINE 2091
                    > USED AT LINE 3554
                    > USED AT LINE 3636
RESTOREBACKUP:      CB80 DEFINED AT LINE 2100
                    > USED AT LINE 3553
HLTODE:             CBCB DEFINED AT LINE 2130
                    > USED AT LINE 2103
                    > USED AT LINE 2106
NOPFILL:            CBD2 DEFINED AT LINE 2140
                    > USED AT LINE 3551
DOFILL:             CBE8 DEFINED AT LINE 2150
                    > USED AT LINE 2147
FILLRANGEPARAMS:    CBF1 DEFINED AT LINE 2160
                    > USED AT LINE 2141
DISPLAYERROR:       CC2E DEFINED AT LINE 2174
                    > USED AT LINE 225
                    > USED AT LINE 262
                    > USED AT LINE 1376
                    > USED AT LINE 1500
                    > USED AT LINE 1808
                    > USED AT LINE 2149
                    > USED AT LINE 3437
DISPLAYPASS:        CC34 DEFINED AT LINE 2177
                    > USED AT LINE 1375
DISPLAYNOFN:        CC3A DEFINED AT LINE 2180
                    > USED AT LINE 3552
MATRIXSCAN:         CC40 DEFINED AT LINE 2191
                    > USED AT LINE 347
                    > USED AT LINE 1126
                    > USED AT LINE 3444
KLINE:              CC48 DEFINED AT LINE 2195
                    > USED AT LINE 2214
KBITS:              CC51 DEFINED AT LINE 2202
                    > USED AT LINE 2205
                    > USED AT LINE 2208
KDONE:              CC5A DEFINED AT LINE 2209
                    > USED AT LINE 2199
JOYSTICKSCAN:       CC6F DEFINED AT LINE 2242
                    > USED AT LINE 3445
BREAKPOINT:         CC7A DEFINED AT LINE 2254
                    > USED AT LINE 208
BPTEXT:             CC8D DEFINED AT LINE 2263
                    > USED AT LINE 2270
BPDATA:             CC99 DEFINED AT LINE 2273
BPFLAGROW:          CCB6 DEFINED AT LINE 2287
                    > USED AT LINE 2303
BPFLAGCOL:          CCC1 DEFINED AT LINE 2295
                    > USED AT LINE 2302
BPQUERY:            CCD0 DEFINED AT LINE 2306
                    > USED AT LINE 2290
                    > USED AT LINE 2313
                    > USED AT LINE 2314
                    > USED AT LINE 2322
BPNOSTOP:           CCE7 DEFINED AT LINE 2317
                    > USED AT LINE 2311
BPPRINTDATA:        CCF8 DEFINED AT LINE 2326
                    > USED AT LINE 2277
                    > USED AT LINE 2280
                    > USED AT LINE 2351
BPDATAOUT:          CD05 DEFINED AT LINE 2336
                    > USED AT LINE 2344
SAVEREGISTERS:      CD1D DEFINED AT LINE 2361
                    > USED AT LINE 2255
RESTOREREGISTERS:   CD49 DEFINED AT LINE 2394
                    > USED AT LINE 2319
SAVELCD:            CD65 DEFINED AT LINE 2418
                    > USED AT LINE 2256
RESTORELCD:         CD82 DEFINED AT LINE 2440
                    > USED AT LINE 2318
SETCELQUICKJUMP:    CD9F DEFINED AT LINE 2460
                    > USED AT LINE 3543
PRINTCELROW:        CDC0 DEFINED AT LINE 2473
                    > USED AT LINE 2496
PRINTHL:            CDD2 DEFINED AT LINE 2483
                    > USED AT LINE 2493
CELKEYPRESS:        CDE7 DEFINED AT LINE 2498
                    > USED AT LINE 2504
QJMPTOCEL:          CDF6 DEFINED AT LINE 2507
GETCELQUICKJUMP:    CE0E DEFINED AT LINE 2525
                    > USED AT LINE 3544
                    > USED AT LINE 3545
                    > USED AT LINE 3546
SERIALENABLE:       CE23 DEFINED AT LINE 2544
                    > USED AT LINE 1261
                    > USED AT LINE 3446
SERIALDISABLE:      CE2C DEFINED AT LINE 2554
                    > USED AT LINE 3447
LCDCONFIRM:         CE32 DEFINED AT LINE 2563
                    > USED AT LINE 2143
                    > USED AT LINE 2577
                    > USED AT LINE 3313
                    > USED AT LINE 3481
RTCRESET:           CE41 DEFINED AT LINE 2576
                    > USED AT LINE 3671
RESETRTCPRAM:       CE45 DEFINED AT LINE 2584
                    > USED AT LINE 383
RTCRESETLOOP1:      CE4E DEFINED AT LINE 2588
                    > USED AT LINE 2605
RTCSAVECHECKSUM:    CE6F DEFINED AT LINE 2609
                    > USED AT LINE 2644
RTCGETPRAM:         CE78 DEFINED AT LINE 2618
                    > USED AT LINE 2650
                    > USED AT LINE 2653
                    > USED AT LINE 2656
                    > USED AT LINE 2660
                    > USED AT LINE 2663
                    > USED AT LINE 2666
                    > USED AT LINE 2669
                    > USED AT LINE 2672
RTCSETPRAM:         CE86 DEFINED AT LINE 2633
                    > USED AT LINE 731
                    > USED AT LINE 2522
                    > USED AT LINE 3055
                    > USED AT LINE 3277
RTCFILLRAM:         CE97 DEFINED AT LINE 2647
                    > USED AT LINE 384
                    > USED AT LINE 2606
MENUINIT:           CEDD DEFINED AT LINE 2682
                    > USED AT LINE 436
                    > USED AT LINE 623
                    > USED AT LINE 2850
                    > USED AT LINE 2875
MENURESET:          CEF7 DEFINED AT LINE 2704
                    > USED AT LINE 433
                    > USED AT LINE 2683
                    > USED AT LINE 2730
MENUPOP:            CF06 DEFINED AT LINE 2716
                    > USED AT LINE 672
                    > USED AT LINE 696
                    > USED AT LINE 3271
                    > USED AT LINE 3281
                    > USED AT LINE 3473
MENUDRAW:           CF20 DEFINED AT LINE 2735
                    > USED AT LINE 757
LCDSEGLOOP:         CF2E DEFINED AT LINE 2743
                    > USED AT LINE 2749
DRAWLOOP:           CF4C DEFINED AT LINE 2760
                    > USED AT LINE 2797
DRAWHL:             CF6B DEFINED AT LINE 2780
                    > USED AT LINE 2790
DRAWHLSKIP:         CF7D DEFINED AT LINE 2792
                    > USED AT LINE 2768
MENUINDEX:          CF9A DEFINED AT LINE 2815
                    > USED AT LINE 675
                    > USED AT LINE 704
                    > USED AT LINE 2753
INDEXLOOP:          CFA6 DEFINED AT LINE 2825
                    > USED AT LINE 2832
MENUDRIVER:         CFB0 DEFINED AT LINE 2849
                    > USED AT LINE 3064
                    > USED AT LINE 3069
                    > USED AT LINE 3074
                    > USED AT LINE 3079
                    > USED AT LINE 3457
PARAMDRIVER:        CFBD DEFINED AT LINE 2874
                    > USED AT LINE 1495
                    > USED AT LINE 1860
                    > USED AT LINE 2093
                    > USED AT LINE 2114
                    > USED AT LINE 2142
                    > USED AT LINE 3458
                    > USED AT LINE 43 IN packages.z80
GETCAPS:            CFCA DEFINED AT LINE 2884
                    > USED AT LINE 3192
                    > USED AT LINE 3463
GETGLCDTERM:        CFCE DEFINED AT LINE 2891
                    > USED AT LINE 429
                    > USED AT LINE 3482
GETSHADOW:          CFD2 DEFINED AT LINE 2898
                    > USED AT LINE 3464
GETPROTECT:         CFDA DEFINED AT LINE 2907
                    > USED AT LINE 3465
GETEXPAND:          CFDE DEFINED AT LINE 2914
                    > USED AT LINE 3466
SETCAPS:            CFE4 DEFINED AT LINE 2922
                    > USED AT LINE 365
                    > USED AT LINE 3467
UPDATEMODE:         CFF0 DEFINED AT LINE 2929
                    > USED AT LINE 2956
                    > USED AT LINE 2968
                    > USED AT LINE 2980
SETGLCDTERM:        CFF8 DEFINED AT LINE 2939
                    > USED AT LINE 430
                    > USED AT LINE 3483
SETSHADOW:          D003 DEFINED AT LINE 2949
                    > USED AT LINE 3468
SETPROTECT:         D00F DEFINED AT LINE 2961
                    > USED AT LINE 3469
SETEXPAND:          D01D DEFINED AT LINE 2973
                    > USED AT LINE 362
                    > USED AT LINE 3470
                    > USED AT LINE 1234 IN packages.z80
                    > USED AT LINE 1289 IN packages.z80
                    > USED AT LINE 1294 IN packages.z80
TOGGLECAPS:         D02B DEFINED AT LINE 2985
                    > USED AT LINE 3247
                    > USED AT LINE 3474
UPDATECTL:          D038 DEFINED AT LINE 2991
                    > USED AT LINE 3005
TOGGLEEXPAND:       D03E DEFINED AT LINE 2999
                    > USED AT LINE 3557
                    > USED AT LINE 3673
TOGGLEGLCDTERMINAL: D04D DEFINED AT LINE 3010
                    > USED AT LINE 3548
                    > USED AT LINE 3665
INITGLCDTERMINAL:   D054 DEFINED AT LINE 3014
                    > USED AT LINE 2944
TOGGLEBEEP:         D068 DEFINED AT LINE 3033
                    > USED AT LINE 3661
TOGGLEAUTOADDRESS:  D071 DEFINED AT LINE 3042
                    > USED AT LINE 3667
TOGGLERTCUPDATE:    D078 DEFINED AT LINE 3046
                    > USED AT LINE 3037
DISPLAYCREDITS:     D08D DEFINED AT LINE 3062
                    > USED AT LINE 3650
DISPLAYSETTINGS:    D093 DEFINED AT LINE 3067
                    > USED AT LINE 3648
DISPLAYBAUD:        D099 DEFINED AT LINE 3072
                    > USED AT LINE 3663
DISPLAYDRIVE:       D09F DEFINED AT LINE 3077
                    > USED AT LINE 3632
RANDOM:             D0A5 DEFINED AT LINE 3085
                    > USED AT LINE 3475
SETDISSTART:        D0B7 DEFINED AT LINE 3102
                    > USED AT LINE 3476
GETDISNEXT:         D0BB DEFINED AT LINE 3110
                    > USED AT LINE 3477
GETDISASSEMBLY:     D0BF DEFINED AT LINE 3118
                    > USED AT LINE 3478
MATRIXSCANASCII:    D0CB DEFINED AT LINE 3132
                    > USED AT LINE 3250
                    > USED AT LINE 3479
KCPI:               D0D2 DEFINED AT LINE 3137
                    > USED AT LINE 3140
KMODA:              D0DC DEFINED AT LINE 3142
                    > USED AT LINE 3138
KSHIFTINDEX:        D0EB DEFINED AT LINE 3153
                    > USED AT LINE 3175
KMOD_TABLE:         D0EF DEFINED AT LINE 3158
                    > USED AT LINE 3135
KNUMCHAR:           D0F9 DEFINED AT LINE 3161
                    > USED AT LINE 3141
KSHIFT_TABLE:       D110 DEFINED AT LINE 3176
                    > USED AT LINE 3150
                    > USED AT LINE 3172
KALPHA:             D124 DEFINED AT LINE 3179
                    > USED AT LINE 3164
                    > USED AT LINE 3166
KCAPS:              D132 DEFINED AT LINE 3191
                    > USED AT LINE 3187
KUPPER:             D13C DEFINED AT LINE 3198
                    > USED AT LINE 3194
KALPEND:            D140 DEFINED AT LINE 3202
                    > USED AT LINE 3149
                    > USED AT LINE 3171
                    > USED AT LINE 3197
PARSEMATRIXSCAN:    D142 DEFINED AT LINE 3216
                    > USED AT LINE 3480
PARSESPECIAL:       D14D DEFINED AT LINE 3222
                    > USED AT LINE 3234
                    > USED AT LINE 3241
                    > USED AT LINE 3248
PARSEKEY:           D155 DEFINED AT LINE 3228
                    > USED AT LINE 3218
PARSENEWKEY:        D160 DEFINED AT LINE 3236
                    > USED AT LINE 3232
PARSEMATRIX:        D173 DEFINED AT LINE 3249
                    > USED AT LINE 3246
BAUD2400:           D178 DEFINED AT LINE 3256
                    > USED AT LINE 3296
BAUD4800:           D17C DEFINED AT LINE 3259
                    > USED AT LINE 3294
BAUD9600:           D180 DEFINED AT LINE 3262
                    > USED AT LINE 3292
BAUD14400:          D184 DEFINED AT LINE 3265
                    > USED AT LINE 3290
SAVEBAUD:           D186 DEFINED AT LINE 3267
                    > USED AT LINE 3258
                    > USED AT LINE 3261
                    > USED AT LINE 3264
BAUDCFG:            D1A2 DEFINED AT LINE 3284
                    > USED AT LINE 3073
DRIVECFG:           D1DB DEFINED AT LINE 3299
                    > USED AT LINE 3078
LOADRAMCONFIRM:     D21F DEFINED AT LINE 3312
                    > USED AT LINE 3309
                    > USED AT LINE 3550
EGG:                D226 DEFINED AT LINE 3317
                    > USED AT LINE 3684
EGG1:               D228 DEFINED AT LINE 3319
                    > USED AT LINE 3333
EGG2:               D22C DEFINED AT LINE 3321
                    > USED AT LINE 3330
                    > USED AT LINE 3335
EGG_DATA:           D245 DEFINED AT LINE 3337
                    > USED AT LINE 3320
APITABLE2:          D280 DEFINED AT LINE 3349
                    > USED AT LINE 229
API_COUNT2:         0044 DEFINED AT LINE 3385
                    > USED AT LINE 223
RGBSCAN:            D2D0 DEFINED AT LINE 3399
                    > USED AT LINE 3488
RGBLOOP:            D2D5 DEFINED AT LINE 3403
                    > USED AT LINE 3418
APITABLE:           D300 DEFINED AT LINE 3425
                    > USED AT LINE 266
API_COUNT:          007E DEFINED AT LINE 3490
                    > USED AT LINE 259
DEFAULTS:           D400 DEFINED AT LINE 3504
                    > USED AT LINE 372
DEFAULTSSIZE:       0017 DEFINED AT LINE 3523
                    > USED AT LINE 374
LCDINITTABLE:       D417 DEFINED AT LINE 3526
                    > USED AT LINE 1053
LCDBASEROWS:        D41B DEFINED AT LINE 3533
                    > USED AT LINE 765
                    > USED AT LINE 850
                    > USED AT LINE 2471
                    > USED AT LINE 2759
                    > USED AT LINE 2803
HEXTOSEGMENTTABLE:  D41F DEFINED AT LINE 3537
                    > USED AT LINE 946
FUNCTIONJUMPTABLE:  D42F DEFINED AT LINE 3542
                    > USED AT LINE 571
ASCIISEGTABLE:      D44F DEFINED AT LINE 3560
                    > USED AT LINE 1229
PASSTEXT:           D4AE DEFINED AT LINE 3574
                    > USED AT LINE 2178
ERRORTEXT:          D4B4 DEFINED AT LINE 3576
                    > USED AT LINE 2175
NOFNTEXT:           D4BA DEFINED AT LINE 3578
                    > USED AT LINE 2181
BREAKTEXT:          D4C0 DEFINED AT LINE 3580
                    > USED AT LINE 2307
BREAKPOINTREGS:     D4C6 DEFINED AT LINE 3583
                    > USED AT LINE 2261
BREAKPOINTROWS:     D4E6 DEFINED AT LINE 3586
                    > USED AT LINE 2260
                    > USED AT LINE 2274
BREAKPOINTFLAGS:    D4EE DEFINED AT LINE 3588
                    > USED AT LINE 2286
BREAKPOINTFLAGROWS: D4F6 DEFINED AT LINE 3590
                    > USED AT LINE 2285
CELJUMPTEXT:        D4FB DEFINED AT LINE 3594
                    > USED AT LINE 2464
CELHELPTEXT:        D510 DEFINED AT LINE 3596
                    > USED AT LINE 2468
MENUGOTEXT:         D51C DEFINED AT LINE 3600
                    > USED AT LINE 688
SERIALSTARTUP:      D529 DEFINED AT LINE 3604
                    > USED AT LINE 407
CONFIRMTEXT:        D53C DEFINED AT LINE 3608
                    > USED AT LINE 2564
HARDRESETTUNE:      D551 DEFINED AT LINE 3612
                    > USED AT LINE 417
HARDRESETMESSAGE:   D561 DEFINED AT LINE 3616
                    > USED AT LINE 404
MAINMENUCFG:        D5B2 DEFINED AT LINE 3623
                    > USED AT LINE 432
                    > USED AT LINE 622
                    > USED AT LINE 3520
INTELLABEL:         D5CE DEFINED AT LINE 3628
SETTINGSCFG:        D698 DEFINED AT LINE 3655
                    > USED AT LINE 3068
CREDITSCFG:         D731 DEFINED AT LINE 3676
                    > USED AT LINE 3063
V_DELAY_US:         000A DEFINED AT LINE 49 IN packages.z80
                    > USED AT LINE 700 IN packages.z80
UP:                 0005 DEFINED AT LINE 52 IN packages.z80
                    > USED AT LINE 761 IN packages.z80
DN:                 0006 DEFINED AT LINE 53 IN packages.z80
                    > USED AT LINE 767 IN packages.z80
FF:                 000C DEFINED AT LINE 54 IN packages.z80
                    > USED AT LINE 789 IN packages.z80
                    > USED AT LINE 840 IN packages.z80
CURSOR:             008F DEFINED AT LINE 55 IN packages.z80
INITLCD:            D800 DEFINED AT LINE 58 IN packages.z80
                    > USED AT LINE 410
                    > USED AT LINE 3023
                    > USED AT LINE 3350
                    > USED AT LINE 725 IN packages.z80
NEXT_CMD:           D805 DEFINED AT LINE 61 IN packages.z80
                    > USED AT LINE 66 IN packages.z80
CLEARGBUF:          D81D DEFINED AT LINE 76 IN packages.z80
                    > USED AT LINE 3351
                    > USED AT LINE 713 IN packages.z80
                    > USED AT LINE 731 IN packages.z80
CLEARGRLCD:         D82D DEFINED AT LINE 87 IN packages.z80
                    > USED AT LINE 3352
                    > USED AT LINE 73 IN packages.z80
CLR_X:              D832 DEFINED AT LINE 90 IN packages.z80
                    > USED AT LINE 109 IN packages.z80
CLR_Y:              D844 DEFINED AT LINE 100 IN packages.z80
                    > USED AT LINE 105 IN packages.z80
CLEARTXTLCD:        D857 DEFINED AT LINE 113 IN packages.z80
                    > USED AT LINE 3353
CLR_ROWS:           D863 DEFINED AT LINE 119 IN packages.z80
                    > USED AT LINE 123 IN packages.z80
SETGRMODE:          D86D DEFINED AT LINE 127 IN packages.z80
                    > USED AT LINE 3354
                    > USED AT LINE 88 IN packages.z80
                    > USED AT LINE 726 IN packages.z80
SETTXTMODE:         D87B DEFINED AT LINE 136 IN packages.z80
                    > USED AT LINE 3355
                    > USED AT LINE 114 IN packages.z80
                    > USED AT LINE 648 IN packages.z80
                    > USED AT LINE 678 IN packages.z80
DRAWBOX:            D882 DEFINED AT LINE 145 IN packages.z80
                    > USED AT LINE 3356
TOP:                D883 DEFINED AT LINE 147 IN packages.z80
                    > USED AT LINE 152 IN packages.z80
BOTTOM:             D88E DEFINED AT LINE 157 IN packages.z80
                    > USED AT LINE 162 IN packages.z80
LEFT:               D898 DEFINED AT LINE 166 IN packages.z80
                    > USED AT LINE 171 IN packages.z80
RIGHT:              D8A3 DEFINED AT LINE 176 IN packages.z80
                    > USED AT LINE 181 IN packages.z80
FILLBOX:            D8AD DEFINED AT LINE 190 IN packages.z80
                    > USED AT LINE 3360
                    > USED AT LINE 202 IN packages.z80
NEXT_PIXEL:         D8AE DEFINED AT LINE 192 IN packages.z80
                    > USED AT LINE 197 IN packages.z80
DRAWLINE:           D8BD DEFINED AT LINE 222 IN packages.z80
                    > USED AT LINE 3357
LINE_LOOP:          D918 DEFINED AT LINE 291 IN packages.z80
                    > USED AT LINE 330 IN packages.z80
                    > USED AT LINE 339 IN packages.z80
LL2:                D943 DEFINED AT LINE 323 IN packages.z80
                    > USED AT LINE 312 IN packages.z80
LL3:                D950 DEFINED AT LINE 331 IN packages.z80
                    > USED AT LINE 329 IN packages.z80
ABSHL:              D95E DEFINED AT LINE 341 IN packages.z80
                    > USED AT LINE 265 IN packages.z80
                    > USED AT LINE 276 IN packages.z80
DRAWCIRCLE:         D968 DEFINED AT LINE 370 IN packages.z80
                    > USED AT LINE 3358
                    > USED AT LINE 505 IN packages.z80
CIRCLE_LOOP:        D984 DEFINED AT LINE 391 IN packages.z80
                    > USED AT LINE 493 IN packages.z80
DS1:                D9F0 DEFINED AT LINE 459 IN packages.z80
                    > USED AT LINE 447 IN packages.z80
DS2:                DA14 DEFINED AT LINE 478 IN packages.z80
                    > USED AT LINE 468 IN packages.z80
DS3:                DA27 DEFINED AT LINE 490 IN packages.z80
                    > USED AT LINE 476 IN packages.z80
                    > USED AT LINE 477 IN packages.z80
FILLCIRCLE:         DA2F DEFINED AT LINE 500 IN packages.z80
                    > USED AT LINE 3361
NEXT_CIRCLE:        DA31 DEFINED AT LINE 502 IN packages.z80
                    > USED AT LINE 510 IN packages.z80
DRAWPIXEL:          DA3D DEFINED AT LINE 516 IN packages.z80
                    > USED AT LINE 3359
                    > USED AT LINE 148 IN packages.z80
                    > USED AT LINE 158 IN packages.z80
                    > USED AT LINE 167 IN packages.z80
                    > USED AT LINE 177 IN packages.z80
                    > USED AT LINE 193 IN packages.z80
                    > USED AT LINE 293 IN packages.z80
                    > USED AT LINE 401 IN packages.z80
                    > USED AT LINE 412 IN packages.z80
                    > USED AT LINE 424 IN packages.z80
                    > USED AT LINE 434 IN packages.z80
                    > USED AT LINE 1133 IN packages.z80
CLEARPIXEL:         DA4E DEFINED AT LINE 536 IN packages.z80
                    > USED AT LINE 3369
                    > USED AT LINE 1136 IN packages.z80
                    > USED AT LINE 1186 IN packages.z80
FLIPPIXEL:          DA60 DEFINED AT LINE 557 IN packages.z80
                    > USED AT LINE 3370
                    > USED AT LINE 1169 IN packages.z80
SET_GBUF:           DA71 DEFINED AT LINE 578 IN packages.z80
                    > USED AT LINE 525 IN packages.z80
                    > USED AT LINE 545 IN packages.z80
                    > USED AT LINE 566 IN packages.z80
BASE_COL:           DA81 DEFINED AT LINE 591 IN packages.z80
                    > USED AT LINE 594 IN packages.z80
SHIFT_BIT:          DA8A DEFINED AT LINE 600 IN packages.z80
                    > USED AT LINE 603 IN packages.z80
PLOTTOLCD:          DA90 DEFINED AT LINE 608 IN packages.z80
                    > USED AT LINE 415
                    > USED AT LINE 3362
                    > USED AT LINE 765 IN packages.z80
                    > USED AT LINE 817 IN packages.z80
PLOT_ROW:           DA95 DEFINED AT LINE 611 IN packages.z80
                    > USED AT LINE 635 IN packages.z80
PLOT_COLUMN:        DAAC DEFINED AT LINE 623 IN packages.z80
                    > USED AT LINE 632 IN packages.z80
PRINTSTRING:        DAC3 DEFINED AT LINE 646 IN packages.z80
                    > USED AT LINE 3363
DS_LOOP:            DAD7 DEFINED AT LINE 659 IN packages.z80
                    > USED AT LINE 666 IN packages.z80
DS_EXIT:            DAE3 DEFINED AT LINE 667 IN packages.z80
                    > USED AT LINE 663 IN packages.z80
PRINTCHARS:         DAE4 DEFINED AT LINE 677 IN packages.z80
                    > USED AT LINE 3364
PC_LOOP:            DAF7 DEFINED AT LINE 689 IN packages.z80
                    > USED AT LINE 696 IN packages.z80
DELAYUS:            DB02 DEFINED AT LINE 699 IN packages.z80
                    > USED AT LINE 3365
                    > USED AT LINE 64 IN packages.z80
                    > USED AT LINE 94 IN packages.z80
                    > USED AT LINE 97 IN packages.z80
                    > USED AT LINE 102 IN packages.z80
                    > USED AT LINE 104 IN packages.z80
                    > USED AT LINE 117 IN packages.z80
                    > USED AT LINE 122 IN packages.z80
                    > USED AT LINE 130 IN packages.z80
                    > USED AT LINE 133 IN packages.z80
                    > USED AT LINE 139 IN packages.z80
                    > USED AT LINE 615 IN packages.z80
                    > USED AT LINE 621 IN packages.z80
                    > USED AT LINE 626 IN packages.z80
                    > USED AT LINE 657 IN packages.z80
                    > USED AT LINE 665 IN packages.z80
                    > USED AT LINE 688 IN packages.z80
                    > USED AT LINE 695 IN packages.z80
DELAYMS:            DB05 DEFINED AT LINE 701 IN packages.z80
                    > USED AT LINE 3366
                    > USED AT LINE 68 IN packages.z80
                    > USED AT LINE 705 IN packages.z80
SETBUFCLEAR:        DB0B DEFINED AT LINE 710 IN packages.z80
                    > USED AT LINE 3367
SETBUFNOCLEAR:      DB13 DEFINED AT LINE 715 IN packages.z80
                    > USED AT LINE 3368
                    > USED AT LINE 727 IN packages.z80
INITTERMINAL:       DB18 DEFINED AT LINE 724 IN packages.z80
                    > USED AT LINE 3021
                    > USED AT LINE 3373
                    > USED AT LINE 790 IN packages.z80
SENDCHARTOLCD:      DB45 DEFINED AT LINE 755 IN packages.z80
                    > USED AT LINE 3374
DO_SCRL_UP:         DB49 DEFINED AT LINE 760 IN packages.z80
DO_SCRL_DN:         DB54 DEFINED AT LINE 766 IN packages.z80
                    > USED AT LINE 762 IN packages.z80
DO_CR:              DB5C DEFINED AT LINE 771 IN packages.z80
                    > USED AT LINE 768 IN packages.z80
DO_FF:              DB7D DEFINED AT LINE 788 IN packages.z80
                    > USED AT LINE 778 IN packages.z80
                    > USED AT LINE 841 IN packages.z80
DO_BS:              DB81 DEFINED AT LINE 791 IN packages.z80
DO_TAB:             DB90 DEFINED AT LINE 798 IN packages.z80
                    > USED AT LINE 793 IN packages.z80
DO_CHAR:            DBA5 DEFINED AT LINE 807 IN packages.z80
                    > USED AT LINE 800 IN packages.z80
DRAW_CURSOR:        DBAC DEFINED AT LINE 811 IN packages.z80
                    > USED AT LINE 740 IN packages.z80
                    > USED AT LINE 759 IN packages.z80
                    > USED AT LINE 787 IN packages.z80
                    > USED AT LINE 797 IN packages.z80
                    > USED AT LINE 806 IN packages.z80
                    > USED AT LINE 855 IN packages.z80
                    > USED AT LINE 884 IN packages.z80
                    > USED AT LINE 1031 IN packages.z80
JUST_PLOT:          DBAF DEFINED AT LINE 813 IN packages.z80
                    > USED AT LINE 831 IN packages.z80
                    > USED AT LINE 838 IN packages.z80
SENDSTRINGTOLCD:    DBB7 DEFINED AT LINE 825 IN packages.z80
                    > USED AT LINE 3375
NEXT_CHAR:          DBB8 DEFINED AT LINE 827 IN packages.z80
                    > USED AT LINE 847 IN packages.z80
CHECK_FF:           DBCF DEFINED AT LINE 839 IN packages.z80
                    > USED AT LINE 833 IN packages.z80
SENDREGTOLCD:       DBDF DEFINED AT LINE 852 IN packages.z80
                    > USED AT LINE 3376
DRAW_A:             DBE5 DEFINED AT LINE 856 IN packages.z80
                    > USED AT LINE 854 IN packages.z80
                    > USED AT LINE 880 IN packages.z80
                    > USED AT LINE 883 IN packages.z80
NIBBLE_TO_LCD:      DBEE DEFINED AT LINE 864 IN packages.z80
                    > USED AT LINE 862 IN packages.z80
SENDHLTOLCD:        DBFE DEFINED AT LINE 877 IN packages.z80
                    > USED AT LINE 3377
SETCURSOR:          DC0A DEFINED AT LINE 890 IN packages.z80
                    > USED AT LINE 3378
                    > USED AT LINE 739 IN packages.z80
INC_CURSOR:         DC1B DEFINED AT LINE 911 IN packages.z80
                    > USED AT LINE 802 IN packages.z80
                    > USED AT LINE 803 IN packages.z80
                    > USED AT LINE 804 IN packages.z80
                    > USED AT LINE 805 IN packages.z80
                    > USED AT LINE 810 IN packages.z80
                    > USED AT LINE 845 IN packages.z80
                    > USED AT LINE 872 IN packages.z80
INC_ROW:            DC28 DEFINED AT LINE 918 IN packages.z80
                    > USED AT LINE 785 IN packages.z80
                    > USED AT LINE 836 IN packages.z80
                    > USED AT LINE 915 IN packages.z80
SAVE_ROW:           DC41 DEFINED AT LINE 932 IN packages.z80
                    > USED AT LINE 927 IN packages.z80
SHIFT_BUFFER:       DC45 DEFINED AT LINE 939 IN packages.z80
                    > USED AT LINE 929 IN packages.z80
SKIP_TBUF:          DC59 DEFINED AT LINE 950 IN packages.z80
                    > USED AT LINE 945 IN packages.z80
MOVE_VPORT:         DC7B DEFINED AT LINE 971 IN packages.z80
                    > USED AT LINE 764 IN packages.z80
MOVE_UP:            DC82 DEFINED AT LINE 976 IN packages.z80
SAVE_VPORT:         DC8B DEFINED AT LINE 981 IN packages.z80
                    > USED AT LINE 990 IN packages.z80
MOVE_DOWN:          DC90 DEFINED AT LINE 985 IN packages.z80
                    > USED AT LINE 975 IN packages.z80
DEC_CURSOR:         DC9B DEFINED AT LINE 995 IN packages.z80
                    > USED AT LINE 795 IN packages.z80
SAVE_COL:           DCA0 DEFINED AT LINE 998 IN packages.z80
                    > USED AT LINE 1009 IN packages.z80
GETCURSOR:          DCC0 DEFINED AT LINE 1019 IN packages.z80
                    > USED AT LINE 3379
DISPLAYCURSOR:      DCC5 DEFINED AT LINE 1026 IN packages.z80
                    > USED AT LINE 3380
INVGRAPHIC:         DCD0 DEFINED AT LINE 1036 IN packages.z80
                    > USED AT LINE 3372
UNDERLINE:          DCD8 DEFINED AT LINE 1045 IN packages.z80
                    > USED AT LINE 3382
AUTOLF:             DCE0 DEFINED AT LINE 1054 IN packages.z80
                    > USED AT LINE 3381
PLOTALWAYS:         DCE5 DEFINED AT LINE 1063 IN packages.z80
                    > USED AT LINE 3383
DRAWGRAPHIC:        DCEA DEFINED AT LINE 1076 IN packages.z80
                    > USED AT LINE 3371
                    > USED AT LINE 809 IN packages.z80
                    > USED AT LINE 844 IN packages.z80
                    > USED AT LINE 871 IN packages.z80
PLOT_GRAPHIC:       DCFE DEFINED AT LINE 1092 IN packages.z80
                    > USED AT LINE 1079 IN packages.z80
PLOT_BYTE:          DD08 DEFINED AT LINE 1098 IN packages.z80
                    > USED AT LINE 1147 IN packages.z80
                    > USED AT LINE 1156 IN packages.z80
GET_ROW_DATA:       DD1D DEFINED AT LINE 1113 IN packages.z80
                    > USED AT LINE 1107 IN packages.z80
                    > USED AT LINE 1110 IN packages.z80
INV_BIT:            DD2B DEFINED AT LINE 1125 IN packages.z80
                    > USED AT LINE 1116 IN packages.z80
PLOT_BIT:           DD30 DEFINED AT LINE 1129 IN packages.z80
                    > USED AT LINE 1140 IN packages.z80
REMOVE_PIXEL:       DD3A DEFINED AT LINE 1135 IN packages.z80
                    > USED AT LINE 1132 IN packages.z80
DRAWCURSOR:         DD58 DEFINED AT LINE 1160 IN packages.z80
                    > USED AT LINE 782 IN packages.z80
                    > USED AT LINE 812 IN packages.z80
FLIP_BIT:           DD64 DEFINED AT LINE 1166 IN packages.z80
                    > USED AT LINE 1172 IN packages.z80
                    > USED AT LINE 1179 IN packages.z80
DRAWBLANK:          DD7A DEFINED AT LINE 1182 IN packages.z80
                    > USED AT LINE 784 IN packages.z80
                    > USED AT LINE 794 IN packages.z80
                    > USED AT LINE 796 IN packages.z80
                    > USED AT LINE 801 IN packages.z80
                    > USED AT LINE 1030 IN packages.z80
FLIP_BIT1:          DD81 DEFINED AT LINE 1185 IN packages.z80
                    > USED AT LINE 1189 IN packages.z80
                    > USED AT LINE 1196 IN packages.z80
ROWS:               DD93 DEFINED AT LINE 1199 IN packages.z80
                    > USED AT LINE 649 IN packages.z80
                    > USED AT LINE 679 IN packages.z80
INIT_BASIC:         DD97 DEFINED AT LINE 1201 IN packages.z80
                    > USED AT LINE 59 IN packages.z80
FONT_DATA:          DD9B DEFINED AT LINE 1211 IN packages.z80
                    > USED AT LINE 1089 IN packages.z80
GLCD_BANNER:        E39B DEFINED AT LINE 3006 IN packages.z80
                    > USED AT LINE 411
GBUF:               0A00 DEFINED AT LINE 3075 IN packages.z80
                    > USED AT LINE 412
                    > USED AT LINE 70 IN packages.z80
ENDPT:              0E00 DEFINED AT LINE 3076 IN packages.z80
                    > USED AT LINE 255 IN packages.z80
                    > USED AT LINE 296 IN packages.z80
                    > USED AT LINE 299 IN packages.z80
SX:                 0E02 DEFINED AT LINE 3077 IN packages.z80
                    > USED AT LINE 244 IN packages.z80
                    > USED AT LINE 318 IN packages.z80
                    > USED AT LINE 374 IN packages.z80
                    > USED AT LINE 394 IN packages.z80
                    > USED AT LINE 405 IN packages.z80
                    > USED AT LINE 420 IN packages.z80
                    > USED AT LINE 431 IN packages.z80
                    > USED AT LINE 461 IN packages.z80
                    > USED AT LINE 479 IN packages.z80
                    > USED AT LINE 481 IN packages.z80
                    > USED AT LINE 491 IN packages.z80
SY:                 0E03 DEFINED AT LINE 3078 IN packages.z80
                    > USED AT LINE 253 IN packages.z80
                    > USED AT LINE 335 IN packages.z80
                    > USED AT LINE 377 IN packages.z80
                    > USED AT LINE 398 IN packages.z80
                    > USED AT LINE 408 IN packages.z80
                    > USED AT LINE 416 IN packages.z80
                    > USED AT LINE 428 IN packages.z80
                    > USED AT LINE 440 IN packages.z80
                    > USED AT LINE 448 IN packages.z80
                    > USED AT LINE 450 IN packages.z80
                    > USED AT LINE 470 IN packages.z80
DX:                 0E04 DEFINED AT LINE 3079 IN packages.z80
                    > USED AT LINE 266 IN packages.z80
                    > USED AT LINE 287 IN packages.z80
                    > USED AT LINE 325 IN packages.z80
DY:                 0E06 DEFINED AT LINE 3080 IN packages.z80
                    > USED AT LINE 283 IN packages.z80
                    > USED AT LINE 308 IN packages.z80
ERR:                0E08 DEFINED AT LINE 3081 IN packages.z80
                    > USED AT LINE 289 IN packages.z80
                    > USED AT LINE 304 IN packages.z80
                    > USED AT LINE 315 IN packages.z80
                    > USED AT LINE 317 IN packages.z80
                    > USED AT LINE 332 IN packages.z80
                    > USED AT LINE 334 IN packages.z80
                    > USED AT LINE 389 IN packages.z80
                    > USED AT LINE 437 IN packages.z80
                    > USED AT LINE 455 IN packages.z80
                    > USED AT LINE 457 IN packages.z80
                    > USED AT LINE 469 IN packages.z80
                    > USED AT LINE 486 IN packages.z80
                    > USED AT LINE 488 IN packages.z80
RAD:                0E0A DEFINED AT LINE 3082 IN packages.z80
                    > USED AT LINE 381 IN packages.z80
                    > USED AT LINE 438 IN packages.z80
                    > USED AT LINE 460 IN packages.z80
CLRBUF:             0E0C DEFINED AT LINE 3083 IN packages.z80
                    > USED AT LINE 627 IN packages.z80
                    > USED AT LINE 712 IN packages.z80
                    > USED AT LINE 717 IN packages.z80
CURSOR_XY:          0E0D DEFINED AT LINE 3084 IN packages.z80
                    > USED AT LINE 899 IN packages.z80
                    > USED AT LINE 1020 IN packages.z80
                    > USED AT LINE 1097 IN packages.z80
                    > USED AT LINE 1165 IN packages.z80
                    > USED AT LINE 1184 IN packages.z80
                    > USED AT LINE 3085 IN packages.z80
                    > USED AT LINE 3086 IN packages.z80
CURSOR_Y:           0E0D DEFINED AT LINE 3085 IN packages.z80
                    > USED AT LINE 924 IN packages.z80
                    > USED AT LINE 933 IN packages.z80
                    > USED AT LINE 1005 IN packages.z80
                    > USED AT LINE 1012 IN packages.z80
                    > USED AT LINE 1014 IN packages.z80
CURSOR_X:           0E0E DEFINED AT LINE 3086 IN packages.z80
                    > USED AT LINE 779 IN packages.z80
                    > USED AT LINE 912 IN packages.z80
                    > USED AT LINE 916 IN packages.z80
                    > USED AT LINE 920 IN packages.z80
                    > USED AT LINE 996 IN packages.z80
                    > USED AT LINE 999 IN packages.z80
                    > USED AT LINE 1011 IN packages.z80
                    > USED AT LINE 1152 IN packages.z80
                    > USED AT LINE 1177 IN packages.z80
                    > USED AT LINE 1194 IN packages.z80
CURSOR_YS:          0E0F DEFINED AT LINE 3087 IN packages.z80
                    > USED AT LINE 786 IN packages.z80
                    > USED AT LINE 837 IN packages.z80
                    > USED AT LINE 901 IN packages.z80
                    > USED AT LINE 962 IN packages.z80
                    > USED AT LINE 965 IN packages.z80
                    > USED AT LINE 1003 IN packages.z80
CURSOR_ON:          0E10 DEFINED AT LINE 3088 IN packages.z80
                    > USED AT LINE 733 IN packages.z80
                    > USED AT LINE 1028 IN packages.z80
                    > USED AT LINE 1161 IN packages.z80
INVERSE:            0E11 DEFINED AT LINE 3089 IN packages.z80
                    > USED AT LINE 734 IN packages.z80
                    > USED AT LINE 1037 IN packages.z80
                    > USED AT LINE 1039 IN packages.z80
                    > USED AT LINE 1126 IN packages.z80
                    > USED AT LINE 1167 IN packages.z80
PIXEL_X:            0E12 DEFINED AT LINE 3090 IN packages.z80
                    > USED AT LINE 1095 IN packages.z80
                    > USED AT LINE 1154 IN packages.z80
VPORT:              0E13 DEFINED AT LINE 3091 IN packages.z80
                    > USED AT LINE 71 IN packages.z80
                    > USED AT LINE 77 IN packages.z80
                    > USED AT LINE 78 IN packages.z80
                    > USED AT LINE 585 IN packages.z80
                    > USED AT LINE 609 IN packages.z80
                    > USED AT LINE 729 IN packages.z80
                    > USED AT LINE 774 IN packages.z80
                    > USED AT LINE 835 IN packages.z80
                    > USED AT LINE 972 IN packages.z80
                    > USED AT LINE 983 IN packages.z80
TBUF:               0E15 DEFINED AT LINE 3092 IN packages.z80
                    > USED AT LINE 730 IN packages.z80
                    > USED AT LINE 941 IN packages.z80
                    > USED AT LINE 949 IN packages.z80
                    > USED AT LINE 977 IN packages.z80
ULINE:              0E17 DEFINED AT LINE 3093 IN packages.z80
                    > USED AT LINE 736 IN packages.z80
                    > USED AT LINE 1046 IN packages.z80
                    > USED AT LINE 1048 IN packages.z80
                    > USED AT LINE 1108 IN packages.z80
AUTO_LF:            0E18 DEFINED AT LINE 3094 IN packages.z80
                    > USED AT LINE 735 IN packages.z80
                    > USED AT LINE 921 IN packages.z80
                    > USED AT LINE 1056 IN packages.z80
PLOT_ALWAYS:        0E19 DEFINED AT LINE 3095 IN packages.z80
                    > USED AT LINE 737 IN packages.z80
                    > USED AT LINE 814 IN packages.z80
                    > USED AT LINE 1065 IN packages.z80
SBUF:               03C0 DEFINED AT LINE 3096 IN packages.z80
                    > USED AT LINE 942 IN packages.z80
                    > USED AT LINE 951 IN packages.z80
                    > USED AT LINE 952 IN packages.z80
                    > USED AT LINE 3097 IN packages.z80
TGBUF:              13C0 DEFINED AT LINE 3097 IN packages.z80
                    > USED AT LINE 728 IN packages.z80
                    > USED AT LINE 773 IN packages.z80
                    > USED AT LINE 834 IN packages.z80
                    > USED AT LINE 942 IN packages.z80
                    > USED AT LINE 951 IN packages.z80
                    > USED AT LINE 952 IN packages.z80
                    > USED AT LINE 955 IN packages.z80
                    > USED AT LINE 956 IN packages.z80
                    > USED AT LINE 986 IN packages.z80
DISRAM:             0900 DEFINED AT LINE 19 IN packages.z80
                    > USED AT LINE 20 IN packages.z80
                    > USED AT LINE 21 IN packages.z80
                    > USED AT LINE 22 IN packages.z80
                    > USED AT LINE 23 IN packages.z80
                    > USED AT LINE 24 IN packages.z80
DISLINE1:           0900 DEFINED AT LINE 20 IN packages.z80
                    > USED AT LINE 869
                    > USED AT LINE 871
                    > USED AT LINE 873
                    > USED AT LINE 875
                    > USED AT LINE 1523
                    > USED AT LINE 3122
                    > USED AT LINE 27 IN packages.z80
                    > USED AT LINE 37 IN packages.z80
DISLINE2:           0913 DEFINED AT LINE 21 IN packages.z80
                    > USED AT LINE 877
                    > USED AT LINE 250 IN packages.z80
DISPTR:             0926 DEFINED AT LINE 22 IN packages.z80
                    > USED AT LINE 3120
                    > USED AT LINE 30 IN packages.z80
                    > USED AT LINE 41 IN packages.z80
                    > USED AT LINE 225 IN packages.z80
                    > USED AT LINE 227 IN packages.z80
                    > USED AT LINE 231 IN packages.z80
                    > USED AT LINE 234 IN packages.z80
                    > USED AT LINE 238 IN packages.z80
                    > USED AT LINE 251 IN packages.z80
                    > USED AT LINE 257 IN packages.z80
                    > USED AT LINE 262 IN packages.z80
                    > USED AT LINE 301 IN packages.z80
                    > USED AT LINE 304 IN packages.z80
                    > USED AT LINE 321 IN packages.z80
                    > USED AT LINE 326 IN packages.z80
                    > USED AT LINE 556 IN packages.z80
                    > USED AT LINE 564 IN packages.z80
                    > USED AT LINE 667 IN packages.z80
                    > USED AT LINE 802 IN packages.z80
                    > USED AT LINE 806 IN packages.z80
                    > USED AT LINE 808 IN packages.z80
                    > USED AT LINE 812 IN packages.z80
                    > USED AT LINE 850 IN packages.z80
                    > USED AT LINE 862 IN packages.z80
                    > USED AT LINE 866 IN packages.z80
                    > USED AT LINE 884 IN packages.z80
DISFLAG:            0928 DEFINED AT LINE 23 IN packages.z80
                    > USED AT LINE 29 IN packages.z80
                    > USED AT LINE 183 IN packages.z80
                    > USED AT LINE 204 IN packages.z80
                    > USED AT LINE 880 IN packages.z80
                    > USED AT LINE 922 IN packages.z80
                    > USED AT LINE 941 IN packages.z80
                    > USED AT LINE 958 IN packages.z80
                    > USED AT LINE 994 IN packages.z80
DISFROM:            0929 DEFINED AT LINE 24 IN packages.z80
                    > USED AT LINE 790
                    > USED AT LINE 848
                    > USED AT LINE 1520
                    > USED AT LINE 1533
                    > USED AT LINE 1544
                    > USED AT LINE 2078
                    > USED AT LINE 3103
                    > USED AT LINE 3111
                    > USED AT LINE 31 IN packages.z80
                    > USED AT LINE 54 IN packages.z80
                    > USED AT LINE 56 IN packages.z80
                    > USED AT LINE 162 IN packages.z80
                    > USED AT LINE 221 IN packages.z80
                    > USED AT LINE 329 IN packages.z80
                    > USED AT LINE 341 IN packages.z80
                    > USED AT LINE 381 IN packages.z80
                    > USED AT LINE 392 IN packages.z80
                    > USED AT LINE 406 IN packages.z80
                    > USED AT LINE 704 IN packages.z80
                    > USED AT LINE 779 IN packages.z80
                    > USED AT LINE 885 IN packages.z80
                    > USED AT LINE 889 IN packages.z80
                    > USED AT LINE 911 IN packages.z80
                    > USED AT LINE 914 IN packages.z80
                    > USED AT LINE 966 IN packages.z80
DISSTART:           E79B DEFINED AT LINE 26 IN packages.z80
                    > USED AT LINE 868
                    > USED AT LINE 1522
                    > USED AT LINE 2079
                    > USED AT LINE 3119
L0X302E:            E7CE DEFINED AT LINE 53 IN packages.z80
                    > USED AT LINE 48 IN packages.z80
L0X3031:            E7D6 DEFINED AT LINE 58 IN packages.z80
                    > USED AT LINE 49 IN packages.z80
L0X3049:            E7EE DEFINED AT LINE 71 IN packages.z80
                    > USED AT LINE 67 IN packages.z80
L0X304D:            E7F2 DEFINED AT LINE 74 IN packages.z80
                    > USED AT LINE 60 IN packages.z80
                    > USED AT LINE 69 IN packages.z80
L0X304F:            E7F4 DEFINED AT LINE 77 IN packages.z80
                    > USED AT LINE 62 IN packages.z80
L0X3055:            E7FA DEFINED AT LINE 81 IN packages.z80
                    > USED AT LINE 79 IN packages.z80
                    > USED AT LINE 481 IN packages.z80
                    > USED AT LINE 653 IN packages.z80
L0X305A:            E7FF DEFINED AT LINE 84 IN packages.z80
                    > USED AT LINE 80 IN packages.z80
L0X305B:            E800 DEFINED AT LINE 86 IN packages.z80
                    > USED AT LINE 192 IN packages.z80
L0X3073:            E818 DEFINED AT LINE 99 IN packages.z80
                    > USED AT LINE 88 IN packages.z80
L0X3086:            E82B DEFINED AT LINE 110 IN packages.z80
                    > USED AT LINE 108 IN packages.z80
                    > USED AT LINE 698 IN packages.z80
                    > USED AT LINE 820 IN packages.z80
L0X3092:            E837 DEFINED AT LINE 116 IN packages.z80
                    > USED AT LINE 109 IN packages.z80
L0X3096:            E83B DEFINED AT LINE 120 IN packages.z80
                    > USED AT LINE 191 IN packages.z80
                    > USED AT LINE 347 IN packages.z80
L0X30A4:            E849 DEFINED AT LINE 129 IN packages.z80
                    > USED AT LINE 127 IN packages.z80
L0X30B0:            E855 DEFINED AT LINE 138 IN packages.z80
                    > USED AT LINE 122 IN packages.z80
L0X30C1:            E866 DEFINED AT LINE 148 IN packages.z80
                    > USED AT LINE 143 IN packages.z80
                    > USED AT LINE 146 IN packages.z80
L0X30D7:            E87C DEFINED AT LINE 161 IN packages.z80
                    > USED AT LINE 73 IN packages.z80
L0X30EA:            E88F DEFINED AT LINE 174 IN packages.z80
                    > USED AT LINE 166 IN packages.z80
L0X30ED:            E892 DEFINED AT LINE 177 IN packages.z80
                    > USED AT LINE 171 IN packages.z80
L0X30FB:            E8A0 DEFINED AT LINE 187 IN packages.z80
                    > USED AT LINE 185 IN packages.z80
L0X3106:            E8AB DEFINED AT LINE 193 IN packages.z80
                    > USED AT LINE 94 IN packages.z80
                    > USED AT LINE 119 IN packages.z80
                    > USED AT LINE 137 IN packages.z80
                    > USED AT LINE 160 IN packages.z80
                    > USED AT LINE 502 IN packages.z80
                    > USED AT LINE 915 IN packages.z80
                    > USED AT LINE 964 IN packages.z80
L0X3107:            E8AC DEFINED AT LINE 195 IN packages.z80
                    > USED AT LINE 98 IN packages.z80
L0X310B:            E8B0 DEFINED AT LINE 198 IN packages.z80
                    > USED AT LINE 114 IN packages.z80
                    > USED AT LINE 255 IN packages.z80
                    > USED AT LINE 419 IN packages.z80
                    > USED AT LINE 423 IN packages.z80
                    > USED AT LINE 427 IN packages.z80
                    > USED AT LINE 437 IN packages.z80
                    > USED AT LINE 457 IN packages.z80
                    > USED AT LINE 460 IN packages.z80
                    > USED AT LINE 740 IN packages.z80
                    > USED AT LINE 758 IN packages.z80
                    > USED AT LINE 936 IN packages.z80
                    > USED AT LINE 939 IN packages.z80
L0X310D:            E8B2 DEFINED AT LINE 200 IN packages.z80
                    > USED AT LINE 209 IN packages.z80
                    > USED AT LINE 218 IN packages.z80
                    > USED AT LINE 454 IN packages.z80
                    > USED AT LINE 745 IN packages.z80
                    > USED AT LINE 956 IN packages.z80
L0X3112:            E8B7 DEFINED AT LINE 203 IN packages.z80
                    > USED AT LINE 197 IN packages.z80
L0X311E:            E8C3 DEFINED AT LINE 210 IN packages.z80
                    > USED AT LINE 206 IN packages.z80
L0X3126:            E8CB DEFINED AT LINE 216 IN packages.z80
                    > USED AT LINE 214 IN packages.z80
L0X3134:            E8D9 DEFINED AT LINE 224 IN packages.z80
                    > USED AT LINE 222 IN packages.z80
L0X3145:            E8EA DEFINED AT LINE 233 IN packages.z80
                    > USED AT LINE 202 IN packages.z80
                    > USED AT LINE 376 IN packages.z80
L0X3153:            E8F8 DEFINED AT LINE 241 IN packages.z80
                    > USED AT LINE 107 IN packages.z80
                    > USED AT LINE 134 IN packages.z80
                    > USED AT LINE 150 IN packages.z80
                    > USED AT LINE 364 IN packages.z80
                    > USED AT LINE 484 IN packages.z80
                    > USED AT LINE 530 IN packages.z80
                    > USED AT LINE 547 IN packages.z80
                    > USED AT LINE 577 IN packages.z80
                    > USED AT LINE 600 IN packages.z80
                    > USED AT LINE 696 IN packages.z80
                    > USED AT LINE 735 IN packages.z80
                    > USED AT LINE 751 IN packages.z80
                    > USED AT LINE 767 IN packages.z80
                    > USED AT LINE 771 IN packages.z80
                    > USED AT LINE 829 IN packages.z80
L0X315D:            E904 DEFINED AT LINE 249 IN packages.z80
                    > USED AT LINE 346 IN packages.z80
                    > USED AT LINE 361 IN packages.z80
L0X3164:            E90B DEFINED AT LINE 253 IN packages.z80
                    > USED AT LINE 95 IN packages.z80
                    > USED AT LINE 115 IN packages.z80
                    > USED AT LINE 157 IN packages.z80
                    > USED AT LINE 355 IN packages.z80
                    > USED AT LINE 404 IN packages.z80
                    > USED AT LINE 420 IN packages.z80
                    > USED AT LINE 435 IN packages.z80
                    > USED AT LINE 444 IN packages.z80
                    > USED AT LINE 471 IN packages.z80
                    > USED AT LINE 517 IN packages.z80
                    > USED AT LINE 718 IN packages.z80
                    > USED AT LINE 723 IN packages.z80
                    > USED AT LINE 741 IN packages.z80
                    > USED AT LINE 753 IN packages.z80
                    > USED AT LINE 774 IN packages.z80
L0X3169:            E910 DEFINED AT LINE 256 IN packages.z80
                    > USED AT LINE 248 IN packages.z80
                    > USED AT LINE 266 IN packages.z80
L0X317B:            E922 DEFINED AT LINE 267 IN packages.z80
                    > USED AT LINE 111 IN packages.z80
L0X3182:            E929 DEFINED AT LINE 273 IN packages.z80
                    > USED AT LINE 270 IN packages.z80
L0X3188:            E92F DEFINED AT LINE 278 IN packages.z80
                    > USED AT LINE 275 IN packages.z80
L0X318A:            E931 DEFINED AT LINE 281 IN packages.z80
                    > USED AT LINE 33 IN packages.z80
                    > USED AT LINE 976 IN packages.z80
L0X3191:            E938 DEFINED AT LINE 287 IN packages.z80
                    > USED AT LINE 229 IN packages.z80
                    > USED AT LINE 284 IN packages.z80
                    > USED AT LINE 334 IN packages.z80
                    > USED AT LINE 384 IN packages.z80
                    > USED AT LINE 389 IN packages.z80
                    > USED AT LINE 408 IN packages.z80
                    > USED AT LINE 681 IN packages.z80
L0X319A:            E941 DEFINED AT LINE 295 IN packages.z80
                    > USED AT LINE 156 IN packages.z80
                    > USED AT LINE 293 IN packages.z80
L0X31AC:            E953 DEFINED AT LINE 307 IN packages.z80
                    > USED AT LINE 92 IN packages.z80
                    > USED AT LINE 101 IN packages.z80
                    > USED AT LINE 123 IN packages.z80
                    > USED AT LINE 153 IN packages.z80
                    > USED AT LINE 401 IN packages.z80
                    > USED AT LINE 501 IN packages.z80
                    > USED AT LINE 691 IN packages.z80
                    > USED AT LINE 738 IN packages.z80
                    > USED AT LINE 756 IN packages.z80
L0X31B7:            E95E DEFINED AT LINE 317 IN packages.z80
                    > USED AT LINE 265 IN packages.z80
                    > USED AT LINE 335 IN packages.z80
L0X31B9:            E960 DEFINED AT LINE 319 IN packages.z80
                    > USED AT LINE 35 IN packages.z80
L0X31BE:            E965 DEFINED AT LINE 322 IN packages.z80
                    > USED AT LINE 325 IN packages.z80
L0X31C6:            E96D DEFINED AT LINE 328 IN packages.z80
                    > USED AT LINE 345 IN packages.z80
                    > USED AT LINE 360 IN packages.z80
L0X31CA:            E971 DEFINED AT LINE 330 IN packages.z80
                    > USED AT LINE 339 IN packages.z80
L0X31DE:            E985 DEFINED AT LINE 343 IN packages.z80
                    > USED AT LINE 64 IN packages.z80
L0X31E9:            E990 DEFINED AT LINE 348 IN packages.z80
                    > USED AT LINE 909 IN packages.z80
L0X31FD:            E9A4 DEFINED AT LINE 357 IN packages.z80
                    > USED AT LINE 352 IN packages.z80
                    > USED AT LINE 892 IN packages.z80
L0X31FF:            E9A6 DEFINED AT LINE 359 IN packages.z80
                    > USED AT LINE 83 IN packages.z80
                    > USED AT LINE 188 IN packages.z80
                    > USED AT LINE 462 IN packages.z80
                    > USED AT LINE 528 IN packages.z80
                    > USED AT LINE 545 IN packages.z80
                    > USED AT LINE 596 IN packages.z80
                    > USED AT LINE 617 IN packages.z80
                    > USED AT LINE 712 IN packages.z80
                    > USED AT LINE 789 IN packages.z80
                    > USED AT LINE 826 IN packages.z80
                    > USED AT LINE 848 IN packages.z80
                    > USED AT LINE 897 IN packages.z80
L0X3205:            E9AC DEFINED AT LINE 362 IN packages.z80
                    > USED AT LINE 90 IN packages.z80
                    > USED AT LINE 353 IN packages.z80
                    > USED AT LINE 463 IN packages.z80
                    > USED AT LINE 713 IN packages.z80
L0X320A:            E9B1 DEFINED AT LINE 365 IN packages.z80
                    > USED AT LINE 354 IN packages.z80
                    > USED AT LINE 720 IN packages.z80
                    > USED AT LINE 722 IN packages.z80
                    > USED AT LINE 776 IN packages.z80
L0X320B:            E9B2 DEFINED AT LINE 367 IN packages.z80
                    > USED AT LINE 425 IN packages.z80
                    > USED AT LINE 479 IN packages.z80
                    > USED AT LINE 490 IN packages.z80
                    > USED AT LINE 519 IN packages.z80
                    > USED AT LINE 670 IN packages.z80
L0X3221:            E9C8 DEFINED AT LINE 380 IN packages.z80
                    > USED AT LINE 356 IN packages.z80
                    > USED AT LINE 458 IN packages.z80
                    > USED AT LINE 603 IN packages.z80
                    > USED AT LINE 633 IN packages.z80
L0X3236:            E9DD DEFINED AT LINE 394 IN packages.z80
                    > USED AT LINE 351 IN packages.z80
L0X324D:            E9F4 DEFINED AT LINE 405 IN packages.z80
                    > USED AT LINE 700 IN packages.z80
                    > USED AT LINE 807 IN packages.z80
L0X3254:            E9FB DEFINED AT LINE 409 IN packages.z80
                    > USED AT LINE 397 IN packages.z80
L0X326B:            EA12 DEFINED AT LINE 421 IN packages.z80
                    > USED AT LINE 982 IN packages.z80
L0X327B:            EA22 DEFINED AT LINE 428 IN packages.z80
                    > USED AT LINE 414 IN packages.z80
L0X3287:            EA2E DEFINED AT LINE 434 IN packages.z80
                    > USED AT LINE 797 IN packages.z80
L0X3290:            EA37 DEFINED AT LINE 438 IN packages.z80
                    > USED AT LINE 430 IN packages.z80
L0X32A0:            EA47 DEFINED AT LINE 446 IN packages.z80
                    > USED AT LINE 470 IN packages.z80
L0X32A4:            EA4B DEFINED AT LINE 449 IN packages.z80
                    > USED AT LINE 516 IN packages.z80
                    > USED AT LINE 773 IN packages.z80
L0X32A7:            EA4E DEFINED AT LINE 451 IN packages.z80
                    > USED AT LINE 448 IN packages.z80
L0X32AF:            EA56 DEFINED AT LINE 455 IN packages.z80
                    > USED AT LINE 443 IN packages.z80
                    > USED AT LINE 472 IN packages.z80
                    > USED AT LINE 717 IN packages.z80
                    > USED AT LINE 724 IN packages.z80
L0X32BE:            EA65 DEFINED AT LINE 461 IN packages.z80
                    > USED AT LINE 399 IN packages.z80
                    > USED AT LINE 416 IN packages.z80
                    > USED AT LINE 432 IN packages.z80
                    > USED AT LINE 442 IN packages.z80
                    > USED AT LINE 468 IN packages.z80
L0X32C4:            EA6B DEFINED AT LINE 464 IN packages.z80
                    > USED AT LINE 440 IN packages.z80
L0X32D6:            EA7D DEFINED AT LINE 473 IN packages.z80
                    > USED AT LINE 466 IN packages.z80
L0X32E3:            EA8A DEFINED AT LINE 480 IN packages.z80
                    > USED AT LINE 477 IN packages.z80
                    > USED AT LINE 498 IN packages.z80
L0X32E8:            EA8F DEFINED AT LINE 483 IN packages.z80
                    > USED AT LINE 602 IN packages.z80
                    > USED AT LINE 619 IN packages.z80
                    > USED AT LINE 655 IN packages.z80
L0X32EB:            EA92 DEFINED AT LINE 485 IN packages.z80
                    > USED AT LINE 476 IN packages.z80
L0X32F6:            EA9D DEFINED AT LINE 491 IN packages.z80
                    > USED AT LINE 488 IN packages.z80
                    > USED AT LINE 506 IN packages.z80
L0X32FB:            EAA2 DEFINED AT LINE 494 IN packages.z80
                    > USED AT LINE 487 IN packages.z80
L0X3305:            EAAC DEFINED AT LINE 500 IN packages.z80
                    > USED AT LINE 508 IN packages.z80
L0X330B:            EAB2 DEFINED AT LINE 503 IN packages.z80
                    > USED AT LINE 497 IN packages.z80
L0X3315:            EABC DEFINED AT LINE 509 IN packages.z80
                    > USED AT LINE 505 IN packages.z80
L0X332B:            EAD2 DEFINED AT LINE 520 IN packages.z80
                    > USED AT LINE 513 IN packages.z80
L0X3332:            EAD9 DEFINED AT LINE 525 IN packages.z80
                    > USED AT LINE 536 IN packages.z80
L0X334B:            EAE6 DEFINED AT LINE 532 IN packages.z80
                    > USED AT LINE 523 IN packages.z80
L0X3353:            EAEE DEFINED AT LINE 537 IN packages.z80
                    > USED AT LINE 534 IN packages.z80
FIXCOMMA:           EB0A DEFINED AT LINE 553 IN packages.z80
                    > USED AT LINE 550 IN packages.z80
                    > USED AT LINE 632 IN packages.z80
L0X336C:            EB1A DEFINED AT LINE 569 IN packages.z80
                    > USED AT LINE 549 IN packages.z80
L0X336E:            EB1C DEFINED AT LINE 571 IN packages.z80
                    > USED AT LINE 587 IN packages.z80
L0X3377:            EB25 DEFINED AT LINE 578 IN packages.z80
                    > USED AT LINE 541 IN packages.z80
L0X3389:            EB30 DEFINED AT LINE 585 IN packages.z80
                    > USED AT LINE 622 IN packages.z80
L0X338D:            EB34 DEFINED AT LINE 588 IN packages.z80
                    > USED AT LINE 583 IN packages.z80
L0X3391:            EB38 DEFINED AT LINE 591 IN packages.z80
                    > USED AT LINE 581 IN packages.z80
L0X3393:            EB3A DEFINED AT LINE 593 IN packages.z80
                    > USED AT LINE 590 IN packages.z80
L0X33A1:            EB48 DEFINED AT LINE 601 IN packages.z80
                    > USED AT LINE 599 IN packages.z80
L0X33A7:            EB4E DEFINED AT LINE 604 IN packages.z80
                    > USED AT LINE 584 IN packages.z80
L0X33B8:            EB5F DEFINED AT LINE 614 IN packages.z80
                    > USED AT LINE 610 IN packages.z80
                    > USED AT LINE 631 IN packages.z80
L0X33C5:            EB6C DEFINED AT LINE 623 IN packages.z80
                    > USED AT LINE 607 IN packages.z80
L0X33CE:            EB75 DEFINED AT LINE 629 IN packages.z80
                    > USED AT LINE 638 IN packages.z80
L0X33D6:            EB80 DEFINED AT LINE 634 IN packages.z80
                    > USED AT LINE 627 IN packages.z80
L0X33DE:            EB88 DEFINED AT LINE 639 IN packages.z80
                    > USED AT LINE 636 IN packages.z80
L0X33E9:            EB93 DEFINED AT LINE 646 IN packages.z80
                    > USED AT LINE 643 IN packages.z80
L0X33EE:            EB98 DEFINED AT LINE 650 IN packages.z80
                    > USED AT LINE 645 IN packages.z80
L0X3401:            EBAB DEFINED AT LINE 662 IN packages.z80
                    > USED AT LINE 659 IN packages.z80
L0X340B:            EBB5 DEFINED AT LINE 669 IN packages.z80
                    > USED AT LINE 661 IN packages.z80
L0X340E:            EBB8 DEFINED AT LINE 671 IN packages.z80
                    > USED AT LINE 52 IN packages.z80
L0X3421:            EBCB DEFINED AT LINE 682 IN packages.z80
                    > USED AT LINE 674 IN packages.z80
L0X3439:            EBE3 DEFINED AT LINE 697 IN packages.z80
L0X3440:            EBEA DEFINED AT LINE 701 IN packages.z80
                    > USED AT LINE 686 IN packages.z80
L0X3468:            EC12 DEFINED AT LINE 721 IN packages.z80
                    > USED AT LINE 715 IN packages.z80
L0X3471:            EC1B DEFINED AT LINE 725 IN packages.z80
                    > USED AT LINE 710 IN packages.z80
L0X3475:            EC1F DEFINED AT LINE 728 IN packages.z80
                    > USED AT LINE 790 IN packages.z80
L0X348E:            EC38 DEFINED AT LINE 742 IN packages.z80
                    > USED AT LINE 752 IN packages.z80
L0X3496:            EC40 DEFINED AT LINE 746 IN packages.z80
                    > USED AT LINE 732 IN packages.z80
L0X34AF:            EC59 DEFINED AT LINE 759 IN packages.z80
                    > USED AT LINE 748 IN packages.z80
L0X34C0:            EC6A DEFINED AT LINE 769 IN packages.z80
                    > USED AT LINE 765 IN packages.z80
L0X34C5:            EC6F DEFINED AT LINE 772 IN packages.z80
                    > USED AT LINE 768 IN packages.z80
L0X34CF:            EC79 DEFINED AT LINE 777 IN packages.z80
                    > USED AT LINE 788 IN packages.z80
L0X34DF:            EC89 DEFINED AT LINE 786 IN packages.z80
                    > USED AT LINE 727 IN packages.z80
L0X34E8:            EC92 DEFINED AT LINE 791 IN packages.z80
                    > USED AT LINE 703 IN packages.z80
                    > USED AT LINE 761 IN packages.z80
L0X34F7:            ECA1 DEFINED AT LINE 798 IN packages.z80
                    > USED AT LINE 688 IN packages.z80
                    > USED AT LINE 795 IN packages.z80
                    > USED AT LINE 818 IN packages.z80
L0X34FB:            ECA5 DEFINED AT LINE 801 IN packages.z80
                    > USED AT LINE 796 IN packages.z80
                    > USED AT LINE 821 IN packages.z80
L0X3502:            ECBD DEFINED AT LINE 814 IN packages.z80
                    > USED AT LINE 793 IN packages.z80
L0X3511:            ECCE DEFINED AT LINE 822 IN packages.z80
                    > USED AT LINE 493 IN packages.z80
                    > USED AT LINE 515 IN packages.z80
                    > USED AT LINE 678 IN packages.z80
L0X3513:            ECD0 DEFINED AT LINE 824 IN packages.z80
                    > USED AT LINE 800 IN packages.z80
L0X351D:            ECDA DEFINED AT LINE 831 IN packages.z80
                    > USED AT LINE 46 IN packages.z80
                    > USED AT LINE 985 IN packages.z80
L0X3522:            ECDF DEFINED AT LINE 834 IN packages.z80
                    > USED AT LINE 785 IN packages.z80
                    > USED AT LINE 842 IN packages.z80
L0X3525:            ECE2 DEFINED AT LINE 837 IN packages.z80
                    > USED AT LINE 840 IN packages.z80
L0X352F:            ECEC DEFINED AT LINE 845 IN packages.z80
                    > USED AT LINE 836 IN packages.z80
L0X3539:            ECF6 DEFINED AT LINE 851 IN packages.z80
                    > USED AT LINE 857 IN packages.z80
L0X354B:            ED08 DEFINED AT LINE 865 IN packages.z80
                    > USED AT LINE 816 IN packages.z80
L0X3559:            ED16 DEFINED AT LINE 873 IN packages.z80
                    > USED AT LINE 868 IN packages.z80
L0X3562:            ED1F DEFINED AT LINE 879 IN packages.z80
                    > USED AT LINE 872 IN packages.z80
L0X358D:            ED4E DEFINED AT LINE 905 IN packages.z80
                    > USED AT LINE 901 IN packages.z80
                    > USED AT LINE 903 IN packages.z80
L0X3590:            ED51 DEFINED AT LINE 908 IN packages.z80
                    > USED AT LINE 875 IN packages.z80
L0X3593:            ED54 DEFINED AT LINE 910 IN packages.z80
                    > USED AT LINE 961 IN packages.z80
L0X35A6:            ED5F DEFINED AT LINE 916 IN packages.z80
                    > USED AT LINE 370 IN packages.z80
L0X35B5:            ED6E DEFINED AT LINE 927 IN packages.z80
                    > USED AT LINE 924 IN packages.z80
L0X35BB:            ED74 DEFINED AT LINE 932 IN packages.z80
                    > USED AT LINE 929 IN packages.z80
L0X35CD:            ED86 DEFINED AT LINE 940 IN packages.z80
                    > USED AT LINE 450 IN packages.z80
                    > USED AT LINE 937 IN packages.z80
L0X35D9:            ED92 DEFINED AT LINE 947 IN packages.z80
                    > USED AT LINE 944 IN packages.z80
L0X35E0:            ED99 DEFINED AT LINE 952 IN packages.z80
                    > USED AT LINE 949 IN packages.z80
L0X35E2:            ED9B DEFINED AT LINE 954 IN packages.z80
                    > USED AT LINE 946 IN packages.z80
                    > USED AT LINE 951 IN packages.z80
L0X35E7:            EDA0 DEFINED AT LINE 957 IN packages.z80
                    > USED AT LINE 403 IN packages.z80
L0X35EB:            EDA4 DEFINED AT LINE 960 IN packages.z80
                    > USED AT LINE 963 IN packages.z80
L0X35F3:            EDAC DEFINED AT LINE 965 IN packages.z80
                    > USED AT LINE 531 IN packages.z80
                    > USED AT LINE 551 IN packages.z80
L0X35FD:            EDB6 DEFINED AT LINE 972 IN packages.z80
                    > USED AT LINE 970 IN packages.z80
L0X3603:            EDBC DEFINED AT LINE 977 IN packages.z80
                    > USED AT LINE 433 IN packages.z80
L0X360A:            EDC3 DEFINED AT LINE 983 IN packages.z80
                    > USED AT LINE 906 IN packages.z80
L0X360E:            EDC7 DEFINED AT LINE 986 IN packages.z80
                    > USED AT LINE 990 IN packages.z80
TABLEOPS:           EDD9 DEFINED AT LINE 1002 IN packages.z80
                    > USED AT LINE 242 IN packages.z80
TABLEFLG:           EE34 DEFINED AT LINE 1035 IN packages.z80
TABLEOBT:           EE49 DEFINED AT LINE 1047 IN packages.z80
                    > USED AT LINE 833 IN packages.z80
TABLEEXC:           EEB1 DEFINED AT LINE 1068 IN packages.z80
                    > USED AT LINE 782 IN packages.z80
TABLEREG:           EF3C DEFINED AT LINE 1098 IN packages.z80
                    > USED AT LINE 201 IN packages.z80
                    > USED AT LINE 375 IN packages.z80
TABLESREG:          EF56 DEFINED AT LINE 1107 IN packages.z80
PLAYTUNEMENU:       EF6B DEFINED AT LINE 41 IN packages.z80
                    > USED AT LINE 3462
                    > USED AT LINE 3646
PLAYTUNE:           EF75 DEFINED AT LINE 45 IN packages.z80
                    > USED AT LINE 418
                    > USED AT LINE 3461
                    > USED AT LINE 69 IN packages.z80
                    > USED AT LINE 79 IN packages.z80
TUNEPAUSE:          EF96 DEFINED AT LINE 70 IN packages.z80
                    > USED AT LINE 51 IN packages.z80
PLAYNOTE:           EFA7 DEFINED AT LINE 85 IN packages.z80
                    > USED AT LINE 3460
                    > USED AT LINE 67 IN packages.z80
NOTELOOP:           EFAF DEFINED AT LINE 92 IN packages.z80
                    > USED AT LINE 102 IN packages.z80
FREQ_TABLE:         EFC5 DEFINED AT LINE 109 IN packages.z80
                    > USED AT LINE 52 IN packages.z80
TUNEPARAMS:         EFF5 DEFINED AT LINE 117 IN packages.z80
                    > USED AT LINE 42 IN packages.z80
PATA_ADDR:          0020 DEFINED AT LINE 2 IN packages.z80
                    > USED AT LINE 3 IN packages.z80
                    > USED AT LINE 4 IN packages.z80
                    > USED AT LINE 5 IN packages.z80
                    > USED AT LINE 6 IN packages.z80
                    > USED AT LINE 7 IN packages.z80
                    > USED AT LINE 8 IN packages.z80
                    > USED AT LINE 9 IN packages.z80
                    > USED AT LINE 10 IN packages.z80
                    > USED AT LINE 11 IN packages.z80
                    > USED AT LINE 12 IN packages.z80
                    > USED AT LINE 13 IN packages.z80
                    > USED AT LINE 14 IN packages.z80
                    > USED AT LINE 15 IN packages.z80
                    > USED AT LINE 16 IN packages.z80
                    > USED AT LINE 17 IN packages.z80
REG_DATA:           0020 DEFINED AT LINE 3 IN packages.z80
                    > USED AT LINE 208 IN packages.z80
                    > USED AT LINE 302 IN packages.z80
REG_ERR:            0021 DEFINED AT LINE 4 IN packages.z80
                    > USED AT LINE 129 IN packages.z80
                    > USED AT LINE 156 IN packages.z80
REG_FR:             0021 DEFINED AT LINE 5 IN packages.z80
REG_SC:             0022 DEFINED AT LINE 6 IN packages.z80
                    > USED AT LINE 342 IN packages.z80
REG_SN:             0023 DEFINED AT LINE 7 IN packages.z80
REG_LBA7:           0023 DEFINED AT LINE 8 IN packages.z80
                    > USED AT LINE 344 IN packages.z80
REG_CYLO:           0024 DEFINED AT LINE 9 IN packages.z80
REG_LBA15:          0024 DEFINED AT LINE 10 IN packages.z80
                    > USED AT LINE 346 IN packages.z80
REG_CYHI:           0025 DEFINED AT LINE 11 IN packages.z80
REG_LBA23:          0025 DEFINED AT LINE 12 IN packages.z80
                    > USED AT LINE 348 IN packages.z80
REG_DH:             0026 DEFINED AT LINE 13 IN packages.z80
REG_LBA27:          0026 DEFINED AT LINE 14 IN packages.z80
                    > USED AT LINE 352 IN packages.z80
REG_STATUS:         0027 DEFINED AT LINE 15 IN packages.z80
                    > USED AT LINE 115 IN packages.z80
                    > USED AT LINE 144 IN packages.z80
REG_CMD:            0027 DEFINED AT LINE 16 IN packages.z80
                    > USED AT LINE 203 IN packages.z80
                    > USED AT LINE 291 IN packages.z80
REG_DATA_HI:        0028 DEFINED AT LINE 17 IN packages.z80
                    > USED AT LINE 211 IN packages.z80
                    > USED AT LINE 300 IN packages.z80
F_BSY:              0007 DEFINED AT LINE 20 IN packages.z80
F_DRDY:             0006 DEFINED AT LINE 21 IN packages.z80
F_DSC:              0004 DEFINED AT LINE 22 IN packages.z80
F_DRQ:              0003 DEFINED AT LINE 23 IN packages.z80
F_ERR:              0001 DEFINED AT LINE 24 IN packages.z80
F_ENA8BIT:          0001 DEFINED AT LINE 27 IN packages.z80
F_DIS8BIT:          0081 DEFINED AT LINE 28 IN packages.z80
CMD_INITPAR:        0091 DEFINED AT LINE 31 IN packages.z80
CMD_READ:           0020 DEFINED AT LINE 32 IN packages.z80
                    > USED AT LINE 202 IN packages.z80
CMD_WRITE:          0030 DEFINED AT LINE 33 IN packages.z80
                    > USED AT LINE 290 IN packages.z80
CMD_IDENTIFY:       00EC DEFINED AT LINE 34 IN packages.z80
CMD_SETFR:          00EF DEFINED AT LINE 35 IN packages.z80
CMD_DIAG:           0090 DEFINED AT LINE 36 IN packages.z80
C_RETRIES:          00FF DEFINED AT LINE 39 IN packages.z80
                    > USED AT LINE 113 IN packages.z80
                    > USED AT LINE 142 IN packages.z80
                    > USED AT LINE 142 IN packages.z80
C_FILENO:           0897 DEFINED AT LINE 40 IN packages.z80
                    > USED AT LINE 649 IN packages.z80
                    > USED AT LINE 656 IN packages.z80
                    > USED AT LINE 709 IN packages.z80
                    > USED AT LINE 913 IN packages.z80
                    > USED AT LINE 1011 IN packages.z80
                    > USED AT LINE 1032 IN packages.z80
                    > USED AT LINE 1058 IN packages.z80
C_MCB:              0888 DEFINED AT LINE 41 IN packages.z80
                    > USED AT LINE 89 IN packages.z80
                    > USED AT LINE 170 IN packages.z80
                    > USED AT LINE 257 IN packages.z80
C_SERIDLE:          0005 DEFINED AT LINE 42 IN packages.z80
                    > USED AT LINE 1348 IN packages.z80
                    > USED AT LINE 1528 IN packages.z80
                    > USED AT LINE 1543 IN packages.z80
                    > USED AT LINE 1557 IN packages.z80
                    > USED AT LINE 1573 IN packages.z80
                    > USED AT LINE 1586 IN packages.z80
C_SERCS:            00FB DEFINED AT LINE 43 IN packages.z80
                    > USED AT LINE 1544 IN packages.z80
                    > USED AT LINE 1574 IN packages.z80
API_STR2LCD:        000D DEFINED AT LINE 46 IN packages.z80
                    > USED AT LINE 231 IN packages.z80
                    > USED AT LINE 237 IN packages.z80
API_CHR2LCD:        000E DEFINED AT LINE 47 IN packages.z80
                    > USED AT LINE 371 IN packages.z80
API_CMD2LCD:        000F DEFINED AT LINE 48 IN packages.z80
                    > USED AT LINE 226 IN packages.z80
                    > USED AT LINE 234 IN packages.z80
API_MENU:           001F DEFINED AT LINE 49 IN packages.z80
                    > USED AT LINE 82 IN packages.z80
API_PARAM:          0020 DEFINED AT LINE 50 IN packages.z80
                    > USED AT LINE 652 IN packages.z80
API_MENUPOP:        002F DEFINED AT LINE 51 IN packages.z80
                    > USED AT LINE 698 IN packages.z80
HIGH_RAM:           0800 DEFINED AT LINE 54 IN packages.z80
                    > USED AT LINE 55 IN packages.z80
                    > USED AT LINE 532 IN packages.z80
                    > USED AT LINE 665 IN packages.z80
                    > USED AT LINE 717 IN packages.z80
DISK_BUFF:          0600 DEFINED AT LINE 55 IN packages.z80
                    > USED AT LINE 57 IN packages.z80
                    > USED AT LINE 380 IN packages.z80
                    > USED AT LINE 384 IN packages.z80
                    > USED AT LINE 387 IN packages.z80
                    > USED AT LINE 392 IN packages.z80
                    > USED AT LINE 398 IN packages.z80
                    > USED AT LINE 402 IN packages.z80
                    > USED AT LINE 405 IN packages.z80
                    > USED AT LINE 410 IN packages.z80
                    > USED AT LINE 414 IN packages.z80
                    > USED AT LINE 418 IN packages.z80
                    > USED AT LINE 422 IN packages.z80
                    > USED AT LINE 426 IN packages.z80
                    > USED AT LINE 430 IN packages.z80
                    > USED AT LINE 522 IN packages.z80
                    > USED AT LINE 526 IN packages.z80
                    > USED AT LINE 539 IN packages.z80
                    > USED AT LINE 543 IN packages.z80
                    > USED AT LINE 660 IN packages.z80
                    > USED AT LINE 667 IN packages.z80
                    > USED AT LINE 684 IN packages.z80
                    > USED AT LINE 688 IN packages.z80
                    > USED AT LINE 712 IN packages.z80
                    > USED AT LINE 718 IN packages.z80
                    > USED AT LINE 790 IN packages.z80
                    > USED AT LINE 794 IN packages.z80
                    > USED AT LINE 872 IN packages.z80
                    > USED AT LINE 884 IN packages.z80
                    > USED AT LINE 900 IN packages.z80
                    > USED AT LINE 1153 IN packages.z80
                    > USED AT LINE 1166 IN packages.z80
                    > USED AT LINE 1499 IN packages.z80
                    > USED AT LINE 1505 IN packages.z80
DATA_START:         05FC DEFINED AT LINE 57 IN packages.z80
                    > USED AT LINE 58 IN packages.z80
                    > USED AT LINE 451 IN packages.z80
                    > USED AT LINE 452 IN packages.z80
                    > USED AT LINE 843 IN packages.z80
                    > USED AT LINE 845 IN packages.z80
ROOT_CLUS:          05F8 DEFINED AT LINE 58 IN packages.z80
                    > USED AT LINE 59 IN packages.z80
                    > USED AT LINE 423 IN packages.z80
                    > USED AT LINE 454 IN packages.z80
                    > USED AT LINE 455 IN packages.z80
                    > USED AT LINE 858 IN packages.z80
                    > USED AT LINE 859 IN packages.z80
                    > USED AT LINE 894 IN packages.z80
                    > USED AT LINE 895 IN packages.z80
                    > USED AT LINE 992 IN packages.z80
                    > USED AT LINE 993 IN packages.z80
                    > USED AT LINE 1076 IN packages.z80
                    > USED AT LINE 1080 IN packages.z80
                    > USED AT LINE 1134 IN packages.z80
                    > USED AT LINE 1135 IN packages.z80
ROOT_START:         05F4 DEFINED AT LINE 59 IN packages.z80
                    > USED AT LINE 60 IN packages.z80
                    > USED AT LINE 457 IN packages.z80
                    > USED AT LINE 458 IN packages.z80
                    > USED AT LINE 523 IN packages.z80
                    > USED AT LINE 524 IN packages.z80
FAT_START:          05F0 DEFINED AT LINE 60 IN packages.z80
                    > USED AT LINE 61 IN packages.z80
                    > USED AT LINE 437 IN packages.z80
                    > USED AT LINE 441 IN packages.z80
                    > USED AT LINE 447 IN packages.z80
                    > USED AT LINE 448 IN packages.z80
                    > USED AT LINE 864 IN packages.z80
                    > USED AT LINE 867 IN packages.z80
PART_START:         05EC DEFINED AT LINE 61 IN packages.z80
                    > USED AT LINE 62 IN packages.z80
                    > USED AT LINE 393 IN packages.z80
                    > USED AT LINE 396 IN packages.z80
                    > USED AT LINE 397 IN packages.z80
                    > USED AT LINE 434 IN packages.z80
                    > USED AT LINE 438 IN packages.z80
FAT_COUNT:          05EB DEFINED AT LINE 62 IN packages.z80
                    > USED AT LINE 63 IN packages.z80
                    > USED AT LINE 427 IN packages.z80
                    > USED AT LINE 443 IN packages.z80
FAT_SIZE:           05E7 DEFINED AT LINE 63 IN packages.z80
                    > USED AT LINE 64 IN packages.z80
                    > USED AT LINE 431 IN packages.z80
                    > USED AT LINE 444 IN packages.z80
                    > USED AT LINE 445 IN packages.z80
RSVD_SEC:           05E5 DEFINED AT LINE 64 IN packages.z80
                    > USED AT LINE 65 IN packages.z80
                    > USED AT LINE 419 IN packages.z80
                    > USED AT LINE 435 IN packages.z80
CLUS_SEC:           05E4 DEFINED AT LINE 65 IN packages.z80
                    > USED AT LINE 66 IN packages.z80
                    > USED AT LINE 415 IN packages.z80
                    > USED AT LINE 841 IN packages.z80
                    > USED AT LINE 896 IN packages.z80
                    > USED AT LINE 994 IN packages.z80
                    > USED AT LINE 1109 IN packages.z80
VOL_LABEL:          05D9 DEFINED AT LINE 66 IN packages.z80
                    > USED AT LINE 68 IN packages.z80
                    > USED AT LINE 411 IN packages.z80
                    > USED AT LINE 514 IN packages.z80
FCB_NAME:           05CD DEFINED AT LINE 68 IN packages.z80
                    > USED AT LINE 69 IN packages.z80
                    > USED AT LINE 639 IN packages.z80
                    > USED AT LINE 928 IN packages.z80
FCB_NSEC:           05C9 DEFINED AT LINE 69 IN packages.z80
                    > USED AT LINE 70 IN packages.z80
                    > USED AT LINE 540 IN packages.z80
                    > USED AT LINE 541 IN packages.z80
                    > USED AT LINE 661 IN packages.z80
                    > USED AT LINE 662 IN packages.z80
                    > USED AT LINE 685 IN packages.z80
                    > USED AT LINE 686 IN packages.z80
                    > USED AT LINE 713 IN packages.z80
                    > USED AT LINE 714 IN packages.z80
                    > USED AT LINE 791 IN packages.z80
                    > USED AT LINE 792 IN packages.z80
                    > USED AT LINE 817 IN packages.z80
                    > USED AT LINE 820 IN packages.z80
                    > USED AT LINE 848 IN packages.z80
                    > USED AT LINE 849 IN packages.z80
                    > USED AT LINE 901 IN packages.z80
                    > USED AT LINE 902 IN packages.z80
                    > USED AT LINE 1138 IN packages.z80
                    > USED AT LINE 1139 IN packages.z80
                    > USED AT LINE 1151 IN packages.z80
                    > USED AT LINE 1152 IN packages.z80
                    > USED AT LINE 1164 IN packages.z80
                    > USED AT LINE 1165 IN packages.z80
FCB_ADDR:           05C7 DEFINED AT LINE 70 IN packages.z80
                    > USED AT LINE 71 IN packages.z80
                    > USED AT LINE 668 IN packages.z80
                    > USED AT LINE 1625 IN packages.z80
FCB_SCNT:           05C6 DEFINED AT LINE 71 IN packages.z80
                    > USED AT LINE 73 IN packages.z80
                    > USED AT LINE 416 IN packages.z80
                    > USED AT LINE 807 IN packages.z80
                    > USED AT LINE 821 IN packages.z80
                    > USED AT LINE 897 IN packages.z80
                    > USED AT LINE 995 IN packages.z80
SD_CMD:             05C0 DEFINED AT LINE 73 IN packages.z80
                    > USED AT LINE 75 IN packages.z80
                    > USED AT LINE 175 IN packages.z80
                    > USED AT LINE 178 IN packages.z80
                    > USED AT LINE 180 IN packages.z80
                    > USED AT LINE 182 IN packages.z80
                    > USED AT LINE 184 IN packages.z80
                    > USED AT LINE 186 IN packages.z80
                    > USED AT LINE 187 IN packages.z80
                    > USED AT LINE 262 IN packages.z80
                    > USED AT LINE 265 IN packages.z80
                    > USED AT LINE 267 IN packages.z80
                    > USED AT LINE 269 IN packages.z80
                    > USED AT LINE 271 IN packages.z80
                    > USED AT LINE 273 IN packages.z80
                    > USED AT LINE 274 IN packages.z80
RFC_LIST:           0430 DEFINED AT LINE 75 IN packages.z80
                    > USED AT LINE 77 IN packages.z80
                    > USED AT LINE 590 IN packages.z80
                    > USED AT LINE 953 IN packages.z80
                    > USED AT LINE 1059 IN packages.z80
DIR_CFG:            0100 DEFINED AT LINE 77 IN packages.z80
                    > USED AT LINE 81 IN packages.z80
                    > USED AT LINE 507 IN packages.z80
                    > USED AT LINE 587 IN packages.z80
                    > USED AT LINE 626 IN packages.z80
                    > USED AT LINE 909 IN packages.z80
                    > USED AT LINE 1007 IN packages.z80
                    > USED AT LINE 1009 IN packages.z80
LOADFROMDISK:       F022 DEFINED AT LINE 79 IN packages.z80
                    > USED AT LINE 3305
                    > USED AT LINE 3484
                    > USED AT LINE 3558
INITDISK:           F02C DEFINED AT LINE 86 IN packages.z80
                    > USED AT LINE 80 IN packages.z80
                    > USED AT LINE 1003 IN packages.z80
INITPATA1:          F03B DEFINED AT LINE 96 IN packages.z80
WAITBUSY:           F03F DEFINED AT LINE 110 IN packages.z80
                    > USED AT LINE 97 IN packages.z80
                    > USED AT LINE 197 IN packages.z80
                    > USED AT LINE 200 IN packages.z80
                    > USED AT LINE 285 IN packages.z80
                    > USED AT LINE 288 IN packages.z80
WAITLOOP1:          F043 DEFINED AT LINE 114 IN packages.z80
                    > USED AT LINE 123 IN packages.z80
WAITLOOP2:          F04D DEFINED AT LINE 120 IN packages.z80
                    > USED AT LINE 122 IN packages.z80
WAITEXIT:           F05E DEFINED AT LINE 130 IN packages.z80
                    > USED AT LINE 118 IN packages.z80
                    > USED AT LINE 128 IN packages.z80
WAITDATAREQUEST:    F060 DEFINED AT LINE 139 IN packages.z80
                    > USED AT LINE 204 IN packages.z80
                    > USED AT LINE 292 IN packages.z80
WAITDRLOOP1:        F065 DEFINED AT LINE 143 IN packages.z80
                    > USED AT LINE 150 IN packages.z80
WAITDREXIT:         F07C DEFINED AT LINE 157 IN packages.z80
                    > USED AT LINE 146 IN packages.z80
                    > USED AT LINE 155 IN packages.z80
IDEREADSECTOR:      F07E DEFINED AT LINE 166 IN packages.z80
                    > USED AT LINE 381 IN packages.z80
                    > USED AT LINE 399 IN packages.z80
                    > USED AT LINE 812 IN packages.z80
                    > USED AT LINE 873 IN packages.z80
                    > USED AT LINE 1154 IN packages.z80
READPATA:           F0B6 DEFINED AT LINE 196 IN packages.z80
                    > USED AT LINE 172 IN packages.z80
RSLOOP:             F0CE DEFINED AT LINE 207 IN packages.z80
                    > USED AT LINE 214 IN packages.z80
RSEXIT:             F0D8 DEFINED AT LINE 215 IN packages.z80
                    > USED AT LINE 194 IN packages.z80
                    > USED AT LINE 283 IN packages.z80
                    > USED AT LINE 305 IN packages.z80
DOERR:              F0DC DEFINED AT LINE 224 IN packages.z80
                    > USED AT LINE 191 IN packages.z80
                    > USED AT LINE 198 IN packages.z80
                    > USED AT LINE 201 IN packages.z80
                    > USED AT LINE 205 IN packages.z80
                    > USED AT LINE 278 IN packages.z80
                    > USED AT LINE 282 IN packages.z80
                    > USED AT LINE 286 IN packages.z80
                    > USED AT LINE 289 IN packages.z80
                    > USED AT LINE 293 IN packages.z80
                    > USED AT LINE 501 IN packages.z80
IDEWRITESECTOR:     F0FC DEFINED AT LINE 253 IN packages.z80
                    > USED AT LINE 1167 IN packages.z80
WRITEPATA:          F138 DEFINED AT LINE 284 IN packages.z80
                    > USED AT LINE 259 IN packages.z80
WSLOOP1:            F150 DEFINED AT LINE 295 IN packages.z80
                    > USED AT LINE 304 IN packages.z80
SETLBA:             F15F DEFINED AT LINE 338 IN packages.z80
                    > USED AT LINE 199 IN packages.z80
                    > USED AT LINE 287 IN packages.z80
ATOLCD:             F176 DEFINED AT LINE 357 IN packages.z80
                    > USED AT LINE 240 IN packages.z80
LOWNIBTOSTRING1:    F17F DEFINED AT LINE 365 IN packages.z80
                    > USED AT LINE 363 IN packages.z80
FATMOUNT:           F18B DEFINED AT LINE 376 IN packages.z80
                    > USED AT LINE 92 IN packages.z80
FATERROR1:          F255 DEFINED AT LINE 461 IN packages.z80
                    > USED AT LINE 382 IN packages.z80
FATERROR2:          F25A DEFINED AT LINE 464 IN packages.z80
                    > USED AT LINE 386 IN packages.z80
                    > USED AT LINE 389 IN packages.z80
FATERROR3:          F25F DEFINED AT LINE 467 IN packages.z80
                    > USED AT LINE 400 IN packages.z80
FATERROR4:          F264 DEFINED AT LINE 470 IN packages.z80
                    > USED AT LINE 404 IN packages.z80
                    > USED AT LINE 407 IN packages.z80
FATERROR5:          F269 DEFINED AT LINE 473 IN packages.z80
                    > USED AT LINE 813 IN packages.z80
                    > USED AT LINE 1155 IN packages.z80
                    > USED AT LINE 1168 IN packages.z80
FATERROR6:          F26E DEFINED AT LINE 476 IN packages.z80
                    > USED AT LINE 922 IN packages.z80
                    > USED AT LINE 1045 IN packages.z80
FATERROR7:          F273 DEFINED AT LINE 479 IN packages.z80
                    > USED AT LINE 695 IN packages.z80
FATERROR8:          F278 DEFINED AT LINE 482 IN packages.z80
                    > USED AT LINE 1467 IN packages.z80
FATERROR9:          F27D DEFINED AT LINE 485 IN packages.z80
                    > USED AT LINE 1497 IN packages.z80
FATERROR10:         F282 DEFINED AT LINE 488 IN packages.z80
                    > USED AT LINE 1508 IN packages.z80
FATERROR11:         F287 DEFINED AT LINE 491 IN packages.z80
                    > USED AT LINE 1515 IN packages.z80
FATERROR12:         F28C DEFINED AT LINE 494 IN packages.z80
                    > USED AT LINE 1091 IN packages.z80
                    > USED AT LINE 1096 IN packages.z80
                    > USED AT LINE 1101 IN packages.z80
                    > USED AT LINE 1106 IN packages.z80
FATERROR:           F291 DEFINED AT LINE 498 IN packages.z80
                    > USED AT LINE 463 IN packages.z80
                    > USED AT LINE 466 IN packages.z80
                    > USED AT LINE 469 IN packages.z80
                    > USED AT LINE 472 IN packages.z80
                    > USED AT LINE 475 IN packages.z80
                    > USED AT LINE 478 IN packages.z80
                    > USED AT LINE 481 IN packages.z80
                    > USED AT LINE 484 IN packages.z80
                    > USED AT LINE 487 IN packages.z80
                    > USED AT LINE 490 IN packages.z80
                    > USED AT LINE 493 IN packages.z80
                    > USED AT LINE 496 IN packages.z80
FATGETROOTDIR:      F296 DEFINED AT LINE 505 IN packages.z80
                    > USED AT LINE 93 IN packages.z80
DIRLOOP:            F2C3 DEFINED AT LINE 528 IN packages.z80
                    > USED AT LINE 550 IN packages.z80
                    > USED AT LINE 553 IN packages.z80
                    > USED AT LINE 627 IN packages.z80
SKIPLOADNEXTSEC:    F2E6 DEFINED AT LINE 544 IN packages.z80
                    > USED AT LINE 537 IN packages.z80
SPACELOOP:          F2FE DEFINED AT LINE 558 IN packages.z80
                    > USED AT LINE 563 IN packages.z80
MAINDONE:           F308 DEFINED AT LINE 564 IN packages.z80
                    > USED AT LINE 561 IN packages.z80
EXTLOOP:            F310 DEFINED AT LINE 570 IN packages.z80
                    > USED AT LINE 575 IN packages.z80
EXTDONE:            F31A DEFINED AT LINE 576 IN packages.z80
                    > USED AT LINE 573 IN packages.z80
MENU_SEG:           F36A DEFINED AT LINE 629 IN packages.z80
                    > USED AT LINE 511 IN packages.z80
FATFILELOADER:      F378 DEFINED AT LINE 635 IN packages.z80
                    > USED AT LINE 580 IN packages.z80
FILECOPYLOOP:       F3BD DEFINED AT LINE 669 IN packages.z80
                    > USED AT LINE 677 IN packages.z80
                    > USED AT LINE 680 IN packages.z80
                    > USED AT LINE 691 IN packages.z80
HEXFILE:            F3E7 DEFINED AT LINE 692 IN packages.z80
                    > USED AT LINE 646 IN packages.z80
FILELOADED:         F3ED DEFINED AT LINE 696 IN packages.z80
                    > USED AT LINE 671 IN packages.z80
                    > USED AT LINE 674 IN packages.z80
HEX_EXT:            F3F1 DEFINED AT LINE 702 IN packages.z80
                    > USED AT LINE 643 IN packages.z80
LOADHEX:            F3F5 DEFINED AT LINE 707 IN packages.z80
                    > USED AT LINE 694 IN packages.z80
INTELLOADER1:       F414 DEFINED AT LINE 719 IN packages.z80
                    > USED AT LINE 744 IN packages.z80
INTELMARK1:         F416 DEFINED AT LINE 722 IN packages.z80
                    > USED AT LINE 727 IN packages.z80
INTELLOAD1:         F433 DEFINED AT LINE 738 IN packages.z80
                    > USED AT LINE 742 IN packages.z80
INTELCHECKSUM1:     F440 DEFINED AT LINE 746 IN packages.z80
                    > USED AT LINE 735 IN packages.z80
                    > USED AT LINE 743 IN packages.z80
GETHEXBYTE1:        F446 DEFINED AT LINE 754 IN packages.z80
                    > USED AT LINE 728 IN packages.z80
                    > USED AT LINE 730 IN packages.z80
                    > USED AT LINE 732 IN packages.z80
                    > USED AT LINE 734 IN packages.z80
                    > USED AT LINE 739 IN packages.z80
                    > USED AT LINE 747 IN packages.z80
GETHEXCHAR1:        F457 DEFINED AT LINE 769 IN packages.z80
                    > USED AT LINE 755 IN packages.z80
                    > USED AT LINE 761 IN packages.z80
CHECKENDBUFF:       F468 DEFINED AT LINE 779 IN packages.z80
                    > USED AT LINE 723 IN packages.z80
                    > USED AT LINE 770 IN packages.z80
FATREADSECTOR:      F48B DEFINED AT LINE 805 IN packages.z80
                    > USED AT LINE 525 IN packages.z80
                    > USED AT LINE 542 IN packages.z80
                    > USED AT LINE 663 IN packages.z80
                    > USED AT LINE 687 IN packages.z80
                    > USED AT LINE 715 IN packages.z80
                    > USED AT LINE 793 IN packages.z80
READSECTOR1:        F494 DEFINED AT LINE 811 IN packages.z80
                    > USED AT LINE 809 IN packages.z80
FATGETSECTOR:       F4AE DEFINED AT LINE 830 IN packages.z80
                    > USED AT LINE 456 IN packages.z80
                    > USED AT LINE 659 IN packages.z80
                    > USED AT LINE 711 IN packages.z80
                    > USED AT LINE 899 IN packages.z80
                    > USED AT LINE 1137 IN packages.z80
NODEC:              F4BB DEFINED AT LINE 840 IN packages.z80
                    > USED AT LINE 836 IN packages.z80
                    > USED AT LINE 838 IN packages.z80
FATGETFAT:          F4D5 DEFINED AT LINE 857 IN packages.z80
                    > USED AT LINE 810 IN packages.z80
                    > USED AT LINE 1129 IN packages.z80
SAVEFILENAME:       F531 DEFINED AT LINE 908 IN packages.z80
                    > USED AT LINE 637 IN packages.z80
TITLELOOP:          F53D DEFINED AT LINE 914 IN packages.z80
                    > USED AT LINE 925 IN packages.z80
SAVETITLE:          F54D DEFINED AT LINE 926 IN packages.z80
                    > USED AT LINE 916 IN packages.z80
SAVELOOP:           F553 DEFINED AT LINE 929 IN packages.z80
                    > USED AT LINE 933 IN packages.z80
FILLLOOP:           F55E DEFINED AT LINE 939 IN packages.z80
                    > USED AT LINE 942 IN packages.z80
GETFIRSTCLUSTER:    F563 DEFINED AT LINE 951 IN packages.z80
                    > USED AT LINE 657 IN packages.z80
                    > USED AT LINE 710 IN packages.z80
GETCLUSTER:         F58A DEFINED AT LINE 982 IN packages.z80
                    > USED AT LINE 977 IN packages.z80
                    > USED AT LINE 980 IN packages.z80
OPENFILE:           F5A1 DEFINED AT LINE 1001 IN packages.z80
                    > USED AT LINE 3485
                    > USED AT LINE 1190 IN packages.z80
                    > USED AT LINE 1241 IN packages.z80
SKIPTITLE:          F5B2 DEFINED AT LINE 1012 IN packages.z80
                    > USED AT LINE 1016 IN packages.z80
FINDLOOP:           F5B8 DEFINED AT LINE 1018 IN packages.z80
                    > USED AT LINE 1043 IN packages.z80
FINDLOOP1:          F5B9 DEFINED AT LINE 1020 IN packages.z80
                    > USED AT LINE 1027 IN packages.z80
NOMATCH:            F5C4 DEFINED AT LINE 1030 IN packages.z80
                    > USED AT LINE 1025 IN packages.z80
FINDLOOP2:          F5C8 DEFINED AT LINE 1035 IN packages.z80
                    > USED AT LINE 1039 IN packages.z80
READSECTOR:         F5D5 DEFINED AT LINE 1055 IN packages.z80
                    > USED AT LINE 3486
                    > USED AT LINE 1212 IN packages.z80
                    > USED AT LINE 1259 IN packages.z80
SIZECHECKDONE:      F61D DEFINED AT LINE 1107 IN packages.z80
                    > USED AT LINE 1092 IN packages.z80
                    > USED AT LINE 1097 IN packages.z80
                    > USED AT LINE 1102 IN packages.z80
CLUSTERLOOP:        F627 DEFINED AT LINE 1115 IN packages.z80
                    > USED AT LINE 1120 IN packages.z80
FATLOOP:            F632 DEFINED AT LINE 1125 IN packages.z80
                    > USED AT LINE 1132 IN packages.z80
FATLOOPEXIT:        F63D DEFINED AT LINE 1133 IN packages.z80
                    > USED AT LINE 1127 IN packages.z80
WRITESECTOR:        F66D DEFINED AT LINE 1163 IN packages.z80
                    > USED AT LINE 3487
                    > USED AT LINE 1220 IN packages.z80
CPSTR:              F67F DEFINED AT LINE 1175 IN packages.z80
                    > USED AT LINE 645 IN packages.z80
                    > USED AT LINE 1183 IN packages.z80
SAVERAM:            F689 DEFINED AT LINE 1188 IN packages.z80
                    > USED AT LINE 3307
                    > USED AT LINE 3549
SAVERAMLOOP:        F69D DEFINED AT LINE 1198 IN packages.z80
                    > USED AT LINE 1231 IN packages.z80
SKIPEXP:            F6D4 DEFINED AT LINE 1230 IN packages.z80
                    > USED AT LINE 1227 IN packages.z80
LOADRAM:            F6DB DEFINED AT LINE 1238 IN packages.z80
                    > USED AT LINE 3315
LOADLOOP:           F6EC DEFINED AT LINE 1248 IN packages.z80
                    > USED AT LINE 1286 IN packages.z80
SKIPEXP2:           F70C DEFINED AT LINE 1270 IN packages.z80
                    > USED AT LINE 1266 IN packages.z80
SETEXPANDFLAG:      F72E DEFINED AT LINE 1292 IN packages.z80
                    > USED AT LINE 1228 IN packages.z80
                    > USED AT LINE 1285 IN packages.z80
SETUPLCD:           F73F DEFINED AT LINE 1304 IN packages.z80
                    > USED AT LINE 1193 IN packages.z80
                    > USED AT LINE 1244 IN packages.z80
SECTORTOBYTES:      F762 DEFINED AT LINE 1323 IN packages.z80
                    > USED AT LINE 1210 IN packages.z80
                    > USED AT LINE 1256 IN packages.z80
CHECKSDCARDPRESENT: F771 DEFINED AT LINE 1341 IN packages.z80
                    > USED AT LINE 398
                    > USED AT LINE 1466 IN packages.z80
SDINIT1:            F774 DEFINED AT LINE 1344 IN packages.z80
                    > USED AT LINE 1364 IN packages.z80
SDRESET:            F77B DEFINED AT LINE 1349 IN packages.z80
                    > USED AT LINE 1356 IN packages.z80
SDRESET1:           F797 DEFINED AT LINE 1365 IN packages.z80
                    > USED AT LINE 1363 IN packages.z80
SDRESET2:           F799 DEFINED AT LINE 1367 IN packages.z80
                    > USED AT LINE 1361 IN packages.z80
SENDSPICOMMAND:     F79B DEFINED AT LINE 1374 IN packages.z80
                    > USED AT LINE 188 IN packages.z80
                    > USED AT LINE 275 IN packages.z80
                    > USED AT LINE 1359 IN packages.z80
                    > USED AT LINE 1471 IN packages.z80
                    > USED AT LINE 1488 IN packages.z80
                    > USED AT LINE 1490 IN packages.z80
                    > USED AT LINE 1495 IN packages.z80
                    > USED AT LINE 1513 IN packages.z80
SENDLOOP1:          F79F DEFINED AT LINE 1378 IN packages.z80
                    > USED AT LINE 1382 IN packages.z80
READSPIBYTE:        F7AC DEFINED AT LINE 1391 IN packages.z80
                    > USED AT LINE 1383 IN packages.z80
                    > USED AT LINE 1449 IN packages.z80
                    > USED AT LINE 1477 IN packages.z80
                    > USED AT LINE 1501 IN packages.z80
READLOOP:           F7B0 DEFINED AT LINE 1395 IN packages.z80
                    > USED AT LINE 1399 IN packages.z80
READSPIBLOCK:       F7BC DEFINED AT LINE 1407 IN packages.z80
                    > USED AT LINE 193 IN packages.z80
READBLOCKBUSY:      F7BF DEFINED AT LINE 1409 IN packages.z80
                    > USED AT LINE 1412 IN packages.z80
                    > USED AT LINE 1414 IN packages.z80
READBLOCKLOOP:      F7CA DEFINED AT LINE 1415 IN packages.z80
                    > USED AT LINE 1422 IN packages.z80
WRITESPIBLOCK:      F7DB DEFINED AT LINE 1432 IN packages.z80
                    > USED AT LINE 280 IN packages.z80
WRITEBLOCKLOOP:     F7E3 DEFINED AT LINE 1436 IN packages.z80
                    > USED AT LINE 1443 IN packages.z80
WAITDONELOOP:       F7F9 DEFINED AT LINE 1452 IN packages.z80
                    > USED AT LINE 1455 IN packages.z80
INITSD:             F803 DEFINED AT LINE 1464 IN packages.z80
                    > USED AT LINE 91 IN packages.z80
CMD8LOOP:           F815 DEFINED AT LINE 1476 IN packages.z80
                    > USED AT LINE 1478 IN packages.z80
SENDCMD55:          F81A DEFINED AT LINE 1479 IN packages.z80
                    > USED AT LINE 1473 IN packages.z80
                    > USED AT LINE 1492 IN packages.z80
CMD55DELAY:         F81D DEFINED AT LINE 1482 IN packages.z80
                    > USED AT LINE 1486 IN packages.z80
CMD58LOOP:          F840 DEFINED AT LINE 1500 IN packages.z80
                    > USED AT LINE 1504 IN packages.z80
SPIINIT:            F85F DEFINED AT LINE 1526 IN packages.z80
                    > USED AT LINE 1345 IN packages.z80
SPIREAD:            F866 DEFINED AT LINE 1537 IN packages.z80
                    > USED AT LINE 1396 IN packages.z80
                    > USED AT LINE 1410 IN packages.z80
                    > USED AT LINE 1416 IN packages.z80
                    > USED AT LINE 1424 IN packages.z80
                    > USED AT LINE 1425 IN packages.z80
                    > USED AT LINE 1453 IN packages.z80
SPIREADLOOP:        F86C DEFINED AT LINE 1542 IN packages.z80
                    > USED AT LINE 1556 IN packages.z80
SPIWRITE:           F88C DEFINED AT LINE 1568 IN packages.z80
                    > USED AT LINE 1380 IN packages.z80
                    > USED AT LINE 1434 IN packages.z80
                    > USED AT LINE 1438 IN packages.z80
                    > USED AT LINE 1446 IN packages.z80
                    > USED AT LINE 1447 IN packages.z80
SPIWRITELOOP:       F890 DEFINED AT LINE 1572 IN packages.z80
                    > USED AT LINE 1585 IN packages.z80
MSG_TIMEOUT:        F8B0 DEFINED AT LINE 1593 IN packages.z80
                    > USED AT LINE 125 IN packages.z80
MSG_DRQST:          F8BE DEFINED AT LINE 1594 IN packages.z80
                    > USED AT LINE 152 IN packages.z80
MSG_IOERR:          F8CE DEFINED AT LINE 1595 IN packages.z80
                    > USED AT LINE 230 IN packages.z80
MSG_MBR:            F8DE DEFINED AT LINE 1596 IN packages.z80
                    > USED AT LINE 462 IN packages.z80
MSG_MBR_BAD:        F8EE DEFINED AT LINE 1597 IN packages.z80
                    > USED AT LINE 465 IN packages.z80
MSG_BPB:            F8FB DEFINED AT LINE 1598 IN packages.z80
                    > USED AT LINE 190 IN packages.z80
                    > USED AT LINE 277 IN packages.z80
                    > USED AT LINE 468 IN packages.z80
MSG_BPS:            F90A DEFINED AT LINE 1599 IN packages.z80
                    > USED AT LINE 471 IN packages.z80
MSG_ROOT:           F91A DEFINED AT LINE 1600 IN packages.z80
                    > USED AT LINE 474 IN packages.z80
MSG_FILE:           F929 DEFINED AT LINE 1601 IN packages.z80
                    > USED AT LINE 477 IN packages.z80
MSG_INTEL:          F939 DEFINED AT LINE 1602 IN packages.z80
                    > USED AT LINE 480 IN packages.z80
MSG_NOSDCARD:       F947 DEFINED AT LINE 1603 IN packages.z80
                    > USED AT LINE 483 IN packages.z80
MSG_OCR:            F953 DEFINED AT LINE 1604 IN packages.z80
                    > USED AT LINE 486 IN packages.z80
MSG_SDINVALID:      F962 DEFINED AT LINE 1605 IN packages.z80
                    > USED AT LINE 489 IN packages.z80
MSG_SDCMD16:        F972 DEFINED AT LINE 1606 IN packages.z80
                    > USED AT LINE 492 IN packages.z80
MSG_TOOBIG:         F980 DEFINED AT LINE 1607 IN packages.z80
                    > USED AT LINE 495 IN packages.z80
SPICMD0:            F98F DEFINED AT LINE 1610 IN packages.z80
                    > USED AT LINE 1358 IN packages.z80
SPICMD8:            F995 DEFINED AT LINE 1611 IN packages.z80
                    > USED AT LINE 1470 IN packages.z80
SPICMD16:           F99B DEFINED AT LINE 1612 IN packages.z80
                    > USED AT LINE 1512 IN packages.z80
SPICMD17:           F9A1 DEFINED AT LINE 1613 IN packages.z80
                    > USED AT LINE 185 IN packages.z80
SPICMD24:           F9A7 DEFINED AT LINE 1614 IN packages.z80
                    > USED AT LINE 272 IN packages.z80
SPICMD55:           F9AD DEFINED AT LINE 1615 IN packages.z80
                    > USED AT LINE 1487 IN packages.z80
SPICMD58:           F9B3 DEFINED AT LINE 1616 IN packages.z80
                    > USED AT LINE 1494 IN packages.z80
SPIACMD41:          F9B9 DEFINED AT LINE 1617 IN packages.z80
                    > USED AT LINE 1489 IN packages.z80
LOAD_CFG:           F9BF DEFINED AT LINE 1620 IN packages.z80
                    > USED AT LINE 651 IN packages.z80
RAM_FILE:           F9EA DEFINED AT LINE 1628 IN packages.z80
                    > USED AT LINE 1189 IN packages.z80
                    > USED AT LINE 1240 IN packages.z80
LOADING_TEXT:       F9F5 DEFINED AT LINE 1629 IN packages.z80
                    > USED AT LINE 1243 IN packages.z80
SAVING_TEXT:        FA0A DEFINED AT LINE 1630 IN packages.z80
                    > USED AT LINE 1192 IN packages.z80
GENERAL_TEXT:       FA1F DEFINED AT LINE 1631 IN packages.z80
                    > USED AT LINE 1310 IN packages.z80
BCDETIMEA:          FA3E DEFINED AT LINE 1645 IN packages.z80
                    > USED AT LINE 446 IN packages.z80
                    > USED AT LINE 842 IN packages.z80
                    > USED AT LINE 880 IN packages.z80
DEHLDIVC:           FA5B DEFINED AT LINE 1666 IN packages.z80
                    > USED AT LINE 861 IN packages.z80
DIVLOOP:            FA5E DEFINED AT LINE 1669 IN packages.z80
                    > USED AT LINE 1679 IN packages.z80
DIVLBL:             FA69 DEFINED AT LINE 1678 IN packages.z80
                    > USED AT LINE 1675 IN packages.z80
BCDEMINUSHL:        FA6C DEFINED AT LINE 1686 IN packages.z80
                    > USED AT LINE 1119 IN packages.z80
RTCAPI:             FA78 DEFINED AT LINE 15 IN packages.z80
                    > USED AT LINE 3472
APIERR:             FA7D DEFINED AT LINE 19 IN packages.z80
APIOK:              FA7F DEFINED AT LINE 22 IN packages.z80
                    > USED AT LINE 18 IN packages.z80
CHECKDS1302PRESENT: FA93 DEFINED AT LINE 43 IN packages.z80
                    > USED AT LINE 377
                    > USED AT LINE 651 IN packages.z80
                    > USED AT LINE 1083 IN packages.z80
NODS1302:           FAB5 DEFINED AT LINE 65 IN packages.z80
                    > USED AT LINE 54 IN packages.z80
                    > USED AT LINE 59 IN packages.z80
RESETDS1302:        FAB8 DEFINED AT LINE 74 IN packages.z80
                    > USED AT LINE 2585
                    > USED AT LINE 740 IN packages.z80
                    > USED AT LINE 1084 IN packages.z80
GETTIME:            FAF2 DEFINED AT LINE 109 IN packages.z80
                    > USED AT LINE 782 IN packages.z80
                    > USED AT LINE 795 IN packages.z80
                    > USED AT LINE 1002 IN packages.z80
                    > USED AT LINE 1085 IN packages.z80
SETTIME:            FB08 DEFINED AT LINE 133 IN packages.z80
                    > USED AT LINE 776 IN packages.z80
                    > USED AT LINE 1086 IN packages.z80
GETDATE:            FB24 DEFINED AT LINE 162 IN packages.z80
                    > USED AT LINE 702 IN packages.z80
                    > USED AT LINE 1087 IN packages.z80
SETDATE:            FB3C DEFINED AT LINE 189 IN packages.z80
                    > USED AT LINE 873 IN packages.z80
                    > USED AT LINE 1088 IN packages.z80
GETDAY:             FB4F DEFINED AT LINE 208 IN packages.z80
                    > USED AT LINE 695 IN packages.z80
                    > USED AT LINE 816 IN packages.z80
                    > USED AT LINE 1089 IN packages.z80
DAYLOOP:            FB60 DEFINED AT LINE 220 IN packages.z80
                    > USED AT LINE 224 IN packages.z80
                    > USED AT LINE 225 IN packages.z80
FOUNDDAY:           FB68 DEFINED AT LINE 227 IN packages.z80
                    > USED AT LINE 217 IN packages.z80
SETDAY:             FB6A DEFINED AT LINE 234 IN packages.z80
                    > USED AT LINE 823 IN packages.z80
                    > USED AT LINE 1090 IN packages.z80
VALIDDAY:           FB71 DEFINED AT LINE 241 IN packages.z80
                    > USED AT LINE 237 IN packages.z80
GET1224MODE:        FB7D DEFINED AT LINE 255 IN packages.z80
                    > USED AT LINE 142 IN packages.z80
                    > USED AT LINE 1009 IN packages.z80
                    > USED AT LINE 1091 IN packages.z80
SET12HRMODE:        FB88 DEFINED AT LINE 269 IN packages.z80
                    > USED AT LINE 808 IN packages.z80
                    > USED AT LINE 1092 IN packages.z80
PR12:               FB93 DEFINED AT LINE 277 IN packages.z80
                    > USED AT LINE 273 IN packages.z80
NOTMIDNIGHT:        FB9D DEFINED AT LINE 283 IN packages.z80
                    > USED AT LINE 279 IN packages.z80
ISPM:               FBA7 DEFINED AT LINE 290 IN packages.z80
                    > USED AT LINE 286 IN packages.z80
SETPM:              FBAA DEFINED AT LINE 292 IN packages.z80
                    > USED AT LINE 285 IN packages.z80
SET24HRMODE:        FBAE DEFINED AT LINE 299 IN packages.z80
                    > USED AT LINE 810 IN packages.z80
                    > USED AT LINE 1093 IN packages.z80
PR24:               FBB9 DEFINED AT LINE 307 IN packages.z80
                    > USED AT LINE 303 IN packages.z80
FIXT:               FBCA DEFINED AT LINE 319 IN packages.z80
                    > USED AT LINE 310 IN packages.z80
NOFIX:              FBCF DEFINED AT LINE 323 IN packages.z80
                    > USED AT LINE 320 IN packages.z80
SETHOUR:            FBD1 DEFINED AT LINE 326 IN packages.z80
                    > USED AT LINE 281 IN packages.z80
                    > USED AT LINE 288 IN packages.z80
                    > USED AT LINE 293 IN packages.z80
                    > USED AT LINE 314 IN packages.z80
                    > USED AT LINE 317 IN packages.z80
FORMATTIME:         FBD9 DEFINED AT LINE 345 IN packages.z80
                    > USED AT LINE 686 IN packages.z80
                    > USED AT LINE 1099 IN packages.z80
IS24:               FBE4 DEFINED AT LINE 355 IN packages.z80
                    > USED AT LINE 352 IN packages.z80
ISAM:               FC0C DEFINED AT LINE 390 IN packages.z80
                    > USED AT LINE 386 IN packages.z80
NOAMPM:             FC13 DEFINED AT LINE 397 IN packages.z80
                    > USED AT LINE 376 IN packages.z80
FORMATDATE:         FC16 DEFINED AT LINE 410 IN packages.z80
                    > USED AT LINE 708 IN packages.z80
                    > USED AT LINE 1100 IN packages.z80
READRTCBYTE:        FC37 DEFINED AT LINE 442 IN packages.z80
                    > USED AT LINE 2621
                    > USED AT LINE 2626
                    > USED AT LINE 1026 IN packages.z80
                    > USED AT LINE 1094 IN packages.z80
WRITERTCBYTE:       FC46 DEFINED AT LINE 458 IN packages.z80
                    > USED AT LINE 2591
                    > USED AT LINE 2595
                    > USED AT LINE 2613
                    > USED AT LINE 2637
                    > USED AT LINE 2643
                    > USED AT LINE 1095 IN packages.z80
BURSTRTCREAD:       FC53 DEFINED AT LINE 474 IN packages.z80
                    > USED AT LINE 885 IN packages.z80
                    > USED AT LINE 1039 IN packages.z80
                    > USED AT LINE 1096 IN packages.z80
BREAD:              FC62 DEFINED AT LINE 487 IN packages.z80
                    > USED AT LINE 490 IN packages.z80
RTC_WR:             FC6F DEFINED AT LINE 504 IN packages.z80
                    > USED AT LINE 47 IN packages.z80
                    > USED AT LINE 49 IN packages.z80
                    > USED AT LINE 78 IN packages.z80
                    > USED AT LINE 80 IN packages.z80
                    > USED AT LINE 83 IN packages.z80
                    > USED AT LINE 85 IN packages.z80
                    > USED AT LINE 87 IN packages.z80
                    > USED AT LINE 90 IN packages.z80
                    > USED AT LINE 92 IN packages.z80
                    > USED AT LINE 94 IN packages.z80
                    > USED AT LINE 96 IN packages.z80
                    > USED AT LINE 136 IN packages.z80
                    > USED AT LINE 146 IN packages.z80
                    > USED AT LINE 150 IN packages.z80
                    > USED AT LINE 191 IN packages.z80
                    > USED AT LINE 195 IN packages.z80
                    > USED AT LINE 199 IN packages.z80
                    > USED AT LINE 246 IN packages.z80
                    > USED AT LINE 329 IN packages.z80
                    > USED AT LINE 465 IN packages.z80
RTC_RD:             FC84 DEFINED AT LINE 524 IN packages.z80
                    > USED AT LINE 52 IN packages.z80
                    > USED AT LINE 57 IN packages.z80
                    > USED AT LINE 111 IN packages.z80
                    > USED AT LINE 116 IN packages.z80
                    > USED AT LINE 120 IN packages.z80
                    > USED AT LINE 166 IN packages.z80
                    > USED AT LINE 170 IN packages.z80
                    > USED AT LINE 174 IN packages.z80
                    > USED AT LINE 210 IN packages.z80
                    > USED AT LINE 258 IN packages.z80
                    > USED AT LINE 271 IN packages.z80
                    > USED AT LINE 301 IN packages.z80
                    > USED AT LINE 450 IN packages.z80
BYTELPW:            FC97 DEFINED AT LINE 541 IN packages.z80
                    > USED AT LINE 483 IN packages.z80
                    > USED AT LINE 510 IN packages.z80
                    > USED AT LINE 512 IN packages.z80
                    > USED AT LINE 529 IN packages.z80
BLP:                FC9A DEFINED AT LINE 545 IN packages.z80
                    > USED AT LINE 551 IN packages.z80
BYTELPR:            FCA9 DEFINED AT LINE 559 IN packages.z80
                    > USED AT LINE 487 IN packages.z80
                    > USED AT LINE 530 IN packages.z80
BLP2:               FCAE DEFINED AT LINE 565 IN packages.z80
                    > USED AT LINE 573 IN packages.z80
BCDTOBIN:           FCC2 DEFINED AT LINE 582 IN packages.z80
                    > USED AT LINE 1097 IN packages.z80
BINTOBCD:           FCD5 DEFINED AT LINE 603 IN packages.z80
                    > USED AT LINE 1098 IN packages.z80
DIV10:              FCDA DEFINED AT LINE 607 IN packages.z80
                    > USED AT LINE 609 IN packages.z80
RTCSETUP:           FCE8 DEFINED AT LINE 644 IN packages.z80
                    > USED AT LINE 3669
                    > USED AT LINE 1101 IN packages.z80
NORTC:              FCFF DEFINED AT LINE 662 IN packages.z80
                    > USED AT LINE 654 IN packages.z80
CLOCKLOOP:          FD14 DEFINED AT LINE 665 IN packages.z80
                    > USED AT LINE 653 IN packages.z80
                    > USED AT LINE 732 IN packages.z80
                    > USED AT LINE 741 IN packages.z80
                    > USED AT LINE 878 IN packages.z80
                    > USED AT LINE 880 IN packages.z80
RTCUPDATE:          FD24 DEFINED AT LINE 678 IN packages.z80
                    > USED AT LINE 777 IN packages.z80
                    > USED AT LINE 809 IN packages.z80
                    > USED AT LINE 811 IN packages.z80
                    > USED AT LINE 827 IN packages.z80
                    > USED AT LINE 874 IN packages.z80
KEYRTC:             FD7A DEFINED AT LINE 729 IN packages.z80
                    > USED AT LINE 674 IN packages.z80
KEYTRYF:            FD84 DEFINED AT LINE 737 IN packages.z80
KEYTRY0:            FD8E DEFINED AT LINE 742 IN packages.z80
                    > USED AT LINE 739 IN packages.z80
SET12:              FDA1 DEFINED AT LINE 754 IN packages.z80
                    > USED AT LINE 747 IN packages.z80
NOFLIP:             FDB4 DEFINED AT LINE 767 IN packages.z80
                    > USED AT LINE 762 IN packages.z80
SAVETIME:           FDB5 DEFINED AT LINE 768 IN packages.z80
                    > USED AT LINE 751 IN packages.z80
                    > USED AT LINE 753 IN packages.z80
                    > USED AT LINE 766 IN packages.z80
STTIME:             FDBE DEFINED AT LINE 775 IN packages.z80
                    > USED AT LINE 790 IN packages.z80
                    > USED AT LINE 797 IN packages.z80
KEYTRY1:            FDC4 DEFINED AT LINE 779 IN packages.z80
                    > USED AT LINE 744 IN packages.z80
KEYTRY2:            FDD6 DEFINED AT LINE 792 IN packages.z80
                    > USED AT LINE 781 IN packages.z80
KEYTRY3:            FDE1 DEFINED AT LINE 799 IN packages.z80
                    > USED AT LINE 794 IN packages.z80
TO24:               FDF7 DEFINED AT LINE 810 IN packages.z80
                    > USED AT LINE 807 IN packages.z80
KEYTRY4:            FDFD DEFINED AT LINE 813 IN packages.z80
                    > USED AT LINE 801 IN packages.z80
KEYTRY5:            FE18 DEFINED AT LINE 829 IN packages.z80
                    > USED AT LINE 815 IN packages.z80
KEYTRY6:            FE32 DEFINED AT LINE 844 IN packages.z80
                    > USED AT LINE 831 IN packages.z80
KEYTRY7:            FE4C DEFINED AT LINE 859 IN packages.z80
                    > USED AT LINE 846 IN packages.z80
SETYEAR:            FE64 DEFINED AT LINE 872 IN packages.z80
                    > USED AT LINE 842 IN packages.z80
                    > USED AT LINE 857 IN packages.z80
KEYTRY8:            FE6A DEFINED AT LINE 876 IN packages.z80
                    > USED AT LINE 861 IN packages.z80
DUMPRAM:            FE75 DEFINED AT LINE 883 IN packages.z80
                    > USED AT LINE 879 IN packages.z80
DUMPLOOP:           FE7F DEFINED AT LINE 890 IN packages.z80
                    > USED AT LINE 941 IN packages.z80
                    > USED AT LINE 951 IN packages.z80
DUMPKEY:            FEAB DEFINED AT LINE 921 IN packages.z80
                    > USED AT LINE 924 IN packages.z80
                    > USED AT LINE 938 IN packages.z80
                    > USED AT LINE 945 IN packages.z80
                    > USED AT LINE 948 IN packages.z80
KEYTRYPLUS:         FEBB DEFINED AT LINE 933 IN packages.z80
                    > USED AT LINE 927 IN packages.z80
KEYTRYMINUS:        FECC DEFINED AT LINE 943 IN packages.z80
                    > USED AT LINE 935 IN packages.z80
DISPLAYRAMLINE:     FEDC DEFINED AT LINE 953 IN packages.z80
                    > USED AT LINE 903 IN packages.z80
                    > USED AT LINE 908 IN packages.z80
                    > USED AT LINE 913 IN packages.z80
                    > USED AT LINE 918 IN packages.z80
GENRAMLINE:         FEE5 DEFINED AT LINE 965 IN packages.z80
                    > USED AT LINE 954 IN packages.z80
RAMDISPLOOP:        FEFF DEFINED AT LINE 982 IN packages.z80
                    > USED AT LINE 990 IN packages.z80
GETRTCTIME:         FF11 DEFINED AT LINE 1001 IN packages.z80
                    > USED AT LINE 667 IN packages.z80
                    > USED AT LINE 682 IN packages.z80
CHECKRTCCHECKSUM:   FF25 DEFINED AT LINE 1022 IN packages.z80
                    > USED AT LINE 381
GETRTCCHECKSUM:     FF30 DEFINED AT LINE 1035 IN packages.z80
                    > USED AT LINE 2610
                    > USED AT LINE 1023 IN packages.z80
CHECKSUMLOOP:       FF3E DEFINED AT LINE 1043 IN packages.z80
                    > USED AT LINE 1047 IN packages.z80
RTC_BASE:           0900 DEFINED AT LINE 1056 IN packages.z80
                    > USED AT LINE 1057 IN packages.z80
                    > USED AT LINE 1058 IN packages.z80
                    > USED AT LINE 1059 IN packages.z80
                    > USED AT LINE 1060 IN packages.z80
                    > USED AT LINE 1061 IN packages.z80
                    > USED AT LINE 1062 IN packages.z80
                    > USED AT LINE 1063 IN packages.z80
                    > USED AT LINE 1064 IN packages.z80
                    > USED AT LINE 1065 IN packages.z80
                    > USED AT LINE 1066 IN packages.z80
RTC_SECS:           0900 DEFINED AT LINE 1057 IN packages.z80
                    > USED AT LINE 672 IN packages.z80
                    > USED AT LINE 772 IN packages.z80
                    > USED AT LINE 1004 IN packages.z80
RTC_OSEC:           0901 DEFINED AT LINE 1058 IN packages.z80
                    > USED AT LINE 670 IN packages.z80
                    > USED AT LINE 677 IN packages.z80
RTC_MINS:           0902 DEFINED AT LINE 1059 IN packages.z80
                    > USED AT LINE 770 IN packages.z80
                    > USED AT LINE 1006 IN packages.z80
RTC_HOURS:          0903 DEFINED AT LINE 1060 IN packages.z80
                    > USED AT LINE 745 IN packages.z80
                    > USED AT LINE 805 IN packages.z80
                    > USED AT LINE 1012 IN packages.z80
RTC_DAY:            0904 DEFINED AT LINE 1061 IN packages.z80
                    > USED AT LINE 704 IN packages.z80
                    > USED AT LINE 832 IN packages.z80
                    > USED AT LINE 854 IN packages.z80
                    > USED AT LINE 868 IN packages.z80
RTC_MONTH:          0905 DEFINED AT LINE 1062 IN packages.z80
                    > USED AT LINE 706 IN packages.z80
                    > USED AT LINE 839 IN packages.z80
                    > USED AT LINE 847 IN packages.z80
                    > USED AT LINE 870 IN packages.z80
RTC_YEAR:           0906 DEFINED AT LINE 1063 IN packages.z80
                    > USED AT LINE 707 IN packages.z80
                    > USED AT LINE 841 IN packages.z80
                    > USED AT LINE 856 IN packages.z80
                    > USED AT LINE 862 IN packages.z80
                    > USED AT LINE 867 IN packages.z80
RTC_BUFF:           0908 DEFINED AT LINE 1064 IN packages.z80
                    > USED AT LINE 685 IN packages.z80
                    > USED AT LINE 687 IN packages.z80
                    > USED AT LINE 698 IN packages.z80
                    > USED AT LINE 711 IN packages.z80
                    > USED AT LINE 977 IN packages.z80
                    > USED AT LINE 994 IN packages.z80
RTC_RAM:            091D DEFINED AT LINE 1065 IN packages.z80
                    > USED AT LINE 884 IN packages.z80
                    > USED AT LINE 896 IN packages.z80
                    > USED AT LINE 967 IN packages.z80
                    > USED AT LINE 1038 IN packages.z80
                    > USED AT LINE 1040 IN packages.z80
RAM_PTR:            093C DEFINED AT LINE 1066 IN packages.z80
                    > USED AT LINE 888 IN packages.z80
                    > USED AT LINE 891 IN packages.z80
                    > USED AT LINE 936 IN packages.z80
                    > USED AT LINE 940 IN packages.z80
                    > USED AT LINE 946 IN packages.z80
                    > USED AT LINE 950 IN packages.z80
RTC_PORT:           00FC DEFINED AT LINE 1071 IN packages.z80
                    > USED AT LINE 478 IN packages.z80
                    > USED AT LINE 507 IN packages.z80
                    > USED AT LINE 526 IN packages.z80
SEGDISP:            FF48 DEFINED AT LINE 1072 IN packages.z80
                    > USED AT LINE 657 IN packages.z80
                    > USED AT LINE 730 IN packages.z80
                    > USED AT LINE 922 IN packages.z80
DAYSLIST:           FF4E DEFINED AT LINE 1073 IN packages.z80
                    > USED AT LINE 214 IN packages.z80
HELPLIST:           FF87 DEFINED AT LINE 1080 IN packages.z80
                    > USED AT LINE 719 IN packages.z80
DSAPIFUNCTIONS:     FFB1 DEFINED AT LINE 1083 IN packages.z80
                    > USED AT LINE 27 IN packages.z80
DSAPIFNMAX:         0013 DEFINED AT LINE 1103 IN packages.z80
                    > USED AT LINE 17 IN packages.z80
RELMAJOR:           FFEC DEFINED AT LINE 3706
                    > USED AT LINE 1252
RELMINOR:           FFEE DEFINED AT LINE 3707
                    > USED AT LINE 1253
SOFTWARE:           FFF0 DEFINED AT LINE 3708
                    > USED AT LINE 354
                    > USED AT LINE 367
                    > USED AT LINE 1241
RELEASE:            FFF8 DEFINED AT LINE 3709
                    > USED AT LINE 1251
REL_TXT:            2025.16 DEFINED AT LINE 3710
                    > USED AT LINE 3651
                    > USED AT LINE 3709
